(lp0
(lp1
(dp2
S'liveness'
p3
F0.345218
sS'artist'
p4
S'Bob Mould'
p5
sS'albumArtRef'
p6
S'http://lh5.ggpht.com/S-_szR8Znle9ofSuhTb3LYjsBndlS79PPfyJTE75CjhuDQp8A0EyOyLhyIp4gdwjMX7CcYnp4w'
p7
sS'energy'
p8
F0.992514
sS'title'
p9
S'Makes No Sense At All'
p10
sS'tempo'
p11
F184.487
sS'speechiness'
p12
F0.348382
sS'id'
p13
S'c4e389bd-328f-33c1-b15a-ce47ff149b7a'
p14
sS'acousticness'
p15
F0.014667
sS'cluster'
p16
I0
sS'danceability'
p17
F0.14642
sS'time_signature'
p18
F4.0
sS'year'
p19
F2012.0
sS'duration'
p20
F148.77288
sS'loudness'
p21
F-3.895
sS'storeId'
p22
S'Tomulm2twtscfdq7jlupdez5vxq'
p23
sS'valence'
p24
F0.131003
sS'trackType'
p25
L6L
sS'artist_discovery'
p26
F0.477314504435
sS'instrumentalness'
p27
F0.036649
sa(dp28
g3
F0.866208
sg4
g5
sg6
g7
sg8
F0.991287
sg9
S"If I Can't Change Your Mind"
p29
sg11
F186.134
sg12
F0.263337
sg13
S'7ea79dcb-e203-3753-a644-fda330b40fa4'
p30
sg15
F0.000177
sg16
I0
sg17
F0.132623
sg18
F4.0
sg19
F2012.0
sg20
F193.0068
sg21
F-4.535
sg22
S'Tghumkzfvdywagkq76xxbfbb55q'
p31
sg24
F0.268686
sg25
L6L
sg26
F0.378260564963
sg27
F0.000194
sa(dp32
g3
F0.110628
sg4
S'Vienna Teng'
p33
sg6
S'http://lh4.ggpht.com/2Pw18bR8fL0yKDxTpvlCZv-8ArylwBzVmZw6a-epiY7eUSrQ6BqCQ6LXAY9O1uimC1LY_Ep3'
p34
sg8
F0.647937
sg9
S'Level Up - Social Action Song'
p35
sg11
F170.06
sg12
F0.042408
sg13
S'5cb669ca-8e3f-3e45-ae3c-1c0ca895f877'
p36
sg15
F0.195267
sg16
I0
sg17
F0.512594
sg18
F1.0
sg19
F2014.0
sg20
F233.89995
sg21
F-8.075
sg22
S'Teytpb7qfxcqsalolqddwfyucwm'
p37
sg24
F0.402763
sg25
L6L
sg26
F0.471455234415
sg27
F0.043689
sa(dp38
g3
F0.218013
sg4
S'Audego'
p39
sg6
g34
sg8
F0.458144
sg9
S'Liar - Dance / Electronica Song'
p40
sg11
F179.062
sg12
F0.168968
sg13
S'49b64cc8-f976-3ff4-a846-e2e32b75cec1'
p41
sg15
F0.88014
sg16
I0
sg17
F0.266372
sg18
F3.0
sg19
F2014.0
sg20
F256.83546
sg21
F-10.422
sg22
S'Tgk4i2u65ajomss7u3ygswptn5m'
p42
sg24
F0.450179
sg25
L6L
sg26
F0.429842559251
sg27
F0.000111
sa(dp43
g3
F0.107638
sg4
S'Akuseka Takuwa Kongo Group'
p44
sg6
g34
sg8
F0.50856
sg9
S'The Benefits of Coffee - World Traditional Album'
p45
sg11
F183.687
sg12
F0.067717
sg13
S'5806ee75-98fd-36d4-9acd-3f20ed710da6'
p46
sg15
F0.846371
sg16
I0
sg17
F0.451862
sg18
F3.0
sg19
F2014.0
sg20
F262.89587
sg21
F-9.627
sg22
S'Tab77twe6go3eex3afua2tkiwni'
p47
sg24
F0.957693
sg25
L6L
sg26
F0.303774310654
sg27
F3e-06
sa(dp48
g3
F0.112809
sg4
S'Elizabeth Mitchell'
p49
sg6
g34
sg8
F0.254349
sg9
S"Hop up My Ladies - Children's Music Album"
p50
sg11
F197.061
sg12
F0.08809
sg13
S'94f3ee1d-be53-3709-b4ee-a80392c793c4'
p51
sg15
F0.882233
sg16
I0
sg17
F0.515265
sg18
F4.0
sg19
F2014.0
sg20
F109.26975
sg21
F-13.532
sg22
S'Texmh54z54u34xpskpbalsx2coa'
p52
sg24
F0.88931
sg25
L6L
sg26
F0.485530902477
sg27
F3e-06
sa(dp53
g3
F0.472298
sg4
S'Two Gallants'
p54
sg6
S'http://lh3.ggpht.com/Qxe-LcUp5L9DDerxF7O0zxzwOahPuBIui-RQzEkwOURkXl1I9GuTiW9Uof7HZMg_R3k-YS909A'
p55
sg8
F0.907509
sg9
S'Incidental'
p56
sg11
F161.98
sg12
F0.067308
sg13
S'aa199090-5589-38e0-8766-f3e71a11ba2a'
p57
sg15
F2.1e-05
sg16
I0
sg17
F0.225446
sg18
F4.0
sg19
F2015.0
sg20
F148.22354
sg21
F-3.996
sg22
S'Txbagepv75wddyi64g5vvduumru'
p58
sg24
F0.242289
sg25
L6L
sg26
F0.493368037261
sg27
F1.2e-05
sa(dp59
g3
F0.094756
sg4
S'Rebelution'
p60
sg6
S'http://lh5.ggpht.com/VzSSQBCl8jQcBZ-AeYeJsz9QHHiFqVaEcK2GBVxzjL-dDnXeBfBqwCAzxgcjrV0FBKV73_PKsZQ'
p61
sg8
F0.62988
sg9
S'Outta Control'
p62
sg11
F180.022
sg12
F0.100631
sg13
S'a5b1f791-c064-3fed-b4a8-a2aac1ad5865'
p63
sg15
F0.053409
sg16
I0
sg17
F0.67432
sg18
F4.0
sg19
F2009.0
sg20
F245.29333
sg21
F-6.915
sg22
S'Tjwowvt2bge4zjx3eprn776l5yi'
p64
sg24
F0.665613
sg25
L6L
sg26
F0.451966312978
sg27
F3e-06
sa(dp65
g3
F0.472298
sg4
g54
sg6
S'http://lh6.ggpht.com/KiAk5iTg7S0Bbq9LIGKB48rTZo5EqUc1wIp45CbG6raiVDbFWFSKH7tswJpsPJ1lzBHr7tCj6Q'
p66
sg8
F0.907509
sg9
g56
sg11
F161.98
sg12
F0.067308
sg13
S'5592eb40-c09d-334c-a888-e06820fe4c2e'
p67
sg15
F2.1e-05
sg16
I0
sg17
F0.225446
sg18
F4.0
sg19
F2015.0
sg20
F148.22354
sg21
F-3.996
sg22
S'T2cxsnwqtje7r62z7iyxe22w34e'
p68
sg24
F0.242289
sg25
L6L
sg26
F0.493368037261
sg27
F1.2e-05
sa(dp69
g3
F0.329648
sg4
S'King Diamond'
p70
sg6
S'http://lh6.ggpht.com/F2OhDp6f06mnoW7XQ1Bq7396dexUMA0ArJ5tI953Q-7hBkW9UlN-0VZ9gPFVdOWN1dKQLQSkWj8'
p71
sg8
F0.941216
sg9
S'Never Ending Hill'
p72
sg11
F192.055
sg12
F0.042728
sg13
S'a39a59b1-0866-34bd-9e5b-676ad6659362'
p73
sg15
F0.000259
sg16
I0
sg17
F0.398205
sg18
F4.0
sg19
F2007.0
sg20
F276.77333
sg21
F-5.021
sg22
S'Tz27gfm4yr7u56tdto3jrsp53m4'
p74
sg24
F0.633262
sg25
L6L
sg26
F0.382461900079
sg27
F0.002794
sa(dp75
g3
F0.147927
sg4
S"Umphrey's McGee"
p76
sg6
S'http://lh3.ggpht.com/eHbRnjDBLR_i-zjiAYChmA5issATnGmDju5cF5WpfuKBbVmqVemX5URpzFxrIJ8rxj3QDybETg'
p77
sg8
F0.828804
sg9
S'The Linear'
p78
sg11
F166.85
sg12
F0.040237
sg13
S'a2d6d1ee-dbd0-3e30-97ef-e7e177952cf6'
p79
sg15
F0.424319
sg16
I0
sg17
F0.308665
sg18
F4.0
sg19
F2011.0
sg20
F491.89288
sg21
F-11.303
sg22
S'Tltrnxcu6aru5uxauveqxnx6p5y'
p80
sg24
F0.589495
sg25
L6L
sg26
F0.415381464026
sg27
F0.784653
sa(dp81
g3
F0.964875
sg4
S'Colie Brice'
p82
sg6
S'http://lh6.ggpht.com/LCrdvmyVf3bkL_AmPxNUzbnSk96pNNga_C1Z87mMPZrvtY--7t-rMBFuNTlEm2cIppMt-85ulg'
p83
sg8
F0.160476
sg9
S'Give Me Your Love (Live)'
p84
sg11
F183.031
sg12
F0.049204
sg13
S'5a94a44e-7d7f-3ed0-b967-cd9571917f2f'
p85
sg15
F0.931532
sg16
I0
sg17
F0.341883
sg18
F4.0
sg19
F2011.0
sg20
F162.72898
sg21
F-20.269
sg22
S'Tck6bmtp4v2726p4hx7kkdwlb5u'
p86
sg24
F0.184572
sg25
L6L
sg26
F0.261711676507
sg27
F3e-06
sa(dp87
g3
F0.136443
sg4
S'Colie Brice & The New Age Blues Experience'
p88
sg6
S'http://lh4.ggpht.com/yc5uHaN4Zq7WIwiggRRoDU7xqRH329_qdS5aqXeHxdCUlQWEwDGmymdY6rjsuaug4_QeQiaR'
p89
sg8
F0.869809
sg9
S'Free and Clear'
p90
sg11
F165.315
sg12
F0.103505
sg13
S'b564ad88-626f-329e-b0e5-9aca67070483'
p91
sg15
F0.167899
sg16
I0
sg17
F0.228199
sg18
F4.0
sg19
F2011.0
sg20
F137.7478
sg21
F-8.325
sg22
S'Tm5nvjhi4ofyoyjmy2yzzfxsnzi'
p92
sg24
F0.361097
sg25
L6L
sg26
F0.269127343221
sg27
F0.002556
sa(dp93
g3
F0.15746
sg4
S'Figure'
p94
sg6
S'http://lh4.ggpht.com/zjmMST_NLobXRGnHuxCdLhgVIp9WLmCVJM8r5drKjo7hKekRD3PVauHYvSm4JqJmIt01DA_Y'
p95
sg8
F0.94234
sg9
S'Dominate (Instrumental Mix)'
p96
sg11
F174.11
sg12
F0.553082
sg13
S'8afbb2a2-068a-3eca-a21f-0aa20967ad66'
p97
sg15
F0.000668
sg16
I0
sg17
F0.41096
sg18
F4.0
sg19
F2011.0
sg20
F248.48649
sg21
F-3.888
sg22
S'Tiyowedzr3l4jkfc5okirfq6jdi'
p98
sg24
F0.455431
sg25
L6L
sg26
F0.536887447902
sg27
F0.077068
sa(dp99
g3
F0.056911
sg4
S'Clap Your Hands Say Yeah'
p100
sg6
S'http://lh6.ggpht.com/XcUsb6ALgxCdpkB7y0TGRQIQWWURncJVZvgDE_1093aK3GX4z47KmDTWZscKjObMuoonYCNC9A'
p101
sg8
F0.952944
sg9
S'Hysterical'
p102
sg11
F167.646
sg12
F0.074287
sg13
S'86dd5946-852b-3ccc-995b-a3a76d17dcaf'
p103
sg15
F2.7e-05
sg16
I0
sg17
F0.215229
sg18
F4.0
sg19
F2011.0
sg20
F231.37288
sg21
F-3.742
sg22
S'Tdjboywrh5xabd233yznnfmsfsa'
p104
sg24
F0.285298
sg25
L6L
sg26
F0.418719856012
sg27
F0.011365
sa(dp105
g3
F0.099138
sg4
g100
sg6
g101
sg8
F0.903011
sg9
S'Upon This Tidal Wave Of Young Blood'
p106
sg11
F161.308
sg12
F0.055365
sg13
S'4bd1f1d2-1fa8-3f1e-a394-a2289e14c73a'
p107
sg15
F0.000149
sg16
I0
sg17
F0.44227
sg18
F4.0
sg19
F2011.0
sg20
F274.46621
sg21
F-4.862
sg22
S'Tvqfv25rkagd4yjdw5a676z6p6q'
p108
sg24
F0.715425
sg25
L6L
sg26
F0.418719856012
sg27
F0.000428
sa(dp109
g3
F0.363397
sg4
g100
sg6
g101
sg8
F0.881544
sg9
S'Maniac'
p110
sg11
F169.183
sg12
F0.063429
sg13
S'6d450ec4-7832-3ce0-94ee-013a7f462346'
p111
sg15
F5.9e-05
sg16
I0
sg17
F0.321217
sg18
F4.0
sg19
F2011.0
sg20
F181.63955
sg21
F-3.989
sg22
S'T24ib52odcfx5gsagwnmbac5dma'
p112
sg24
F0.205642
sg25
L6L
sg26
F0.418719856012
sg27
F0.010931
sa(dp113
g3
F0.491916
sg4
S'Taking Meds'
p114
sg6
S'http://lh5.ggpht.com/xBRkf8iWYDCZ68VtmvWdEQiXtB0VBFOTqXKzhKI2Jya0F9HEJG-iE3kRDUxLe3ISbltE6kRf'
p115
sg8
F0.913154
sg9
S'Taking Meds'
p116
sg11
F182.381
sg12
F0.077721
sg13
S'e026d515-57e2-32f1-9086-cee7d3b5c284'
p117
sg15
F0.000209
sg16
I0
sg17
F0.28982
sg18
F5.0
sg19
F2014.0
sg20
F158.79823
sg21
F-7.048
sg22
S'Tpsoaaqay3g5x5mq3mdnd4sbnfe'
p118
sg24
F0.551438
sg25
L6L
sg26
F0.347539858327
sg27
F0.01257
sa(dp119
g3
F0.30721
sg4
S'Cloudkicker'
p120
sg6
g115
sg8
F0.76872
sg9
S'Signal / Noise'
p121
sg11
F168.206
sg12
F0.093971
sg13
S'28a932c7-d8fe-3c01-ba01-f9bc910b9528'
p122
sg15
F6.3e-05
sg16
I0
sg17
F0.19168
sg18
F3.0
sg19
F2014.0
sg20
F302.85669
sg21
F-14.413
sg22
S'Tsvvr3fs56usjozi4dgds5aha6u'
p123
sg24
F0.197419
sg25
L6L
sg26
F0.477356819164
sg27
F0.743762
sa(dp124
g3
F0.160376
sg4
S'Rust Belt Lights'
p125
sg6
g115
sg8
F0.911783
sg9
S'Pack up and Let Go'
p126
sg11
F176.085
sg12
F0.049731
sg13
S'b503df45-f0ac-30aa-ac3a-9f26c21d4e46'
p127
sg15
F9e-06
sg16
I0
sg17
F0.395176
sg18
F4.0
sg19
F2014.0
sg20
F167.25288
sg21
F-4.445
sg22
S'Ti5xhk4wzut3tai5rpajbj4sos4'
p128
sg24
F0.67322
sg25
L6L
sg26
F0.445573689595
sg27
F1e-06
sa(dp129
g3
F0.110565
sg4
S'Arms and Sleepers'
p130
sg6
S'http://lh5.ggpht.com/mar9s3sM-kyeK-jWyIpFDS-E4GTusE-9euI37u96rUbqU_mKehmrK-MgM4jbuEaHdf9CTw5N'
p131
sg8
F0.585425
sg9
S'The Architekt'
p132
sg11
F184.037
sg12
F0.045324
sg13
S'393f797f-ef49-3409-85fd-e98d1a18b102'
p133
sg15
F0.813997
sg16
I0
sg17
F0.48153
sg18
F3.0
sg19
F2009.0
sg20
F285.21288
sg21
F-12.914
sg22
S'Tm2hoer7ev3dhygsce6vjvgwiz4'
p134
sg24
F0.203251
sg25
L6L
sg26
F0.50639870239
sg27
F0.264445
sa(dp135
g3
F0.101212
sg4
S'Furthur Abuse'
p136
sg6
S'http://lh5.ggpht.com/WmflS0JhnQQhVpKc1wjNBKuM4GEDOGneLECVEuDebrzBXBHLHI3BYxvFSmyO_27MLf1YZM6e'
p137
sg8
F0.78413
sg9
S'From the Front Lines'
p138
sg11
F169.382
sg12
F0.034852
sg13
S'cc8a384b-a165-3266-98e0-d339061ae824'
p139
sg15
F0.001588
sg16
I0
sg17
F0.263809
sg18
F4.0
sg19
F1996.0
sg20
F202.88063
sg21
F-11.855
sg22
S'Txbsu2vpd74ozwby42ssxk66hbm'
p140
sg24
F0.755953
sg25
L6L
sg26
F0.250719795666
sg27
F0.705995
sa(dp141
g3
F0.115766
sg4
S'Mike Marshall'
p142
sg6
S'http://lh4.ggpht.com/BBQNyotbC0WOlPIzQ9zdsbyFBcQwiCFVomlKCktq36Loqzmo_gPkjNqb8jczONx7h9lLl1NjPa8'
p143
sg8
F0.02746
sg9
S'Do You Hear What I Hear'
p144
sg11
F176.953
sg12
F0.064089
sg13
S'77f19ce5-6bac-3b8e-aaf1-406de23e60d5'
p145
sg15
F0.768826
sg16
I0
sg17
F0.458026
sg18
F4.0
sg19
F1997.0
sg20
F299.22621
sg21
F-23.084
sg22
S'Tw4fifznzlspkfe5b6eyrwoz2f4'
p146
sg24
F0.084312
sg25
L6L
sg26
F0.433222042245
sg27
F0.898992
sa(dp147
g3
F0.14248
sg4
S'Latyrx'
p148
sg6
S'http://lh4.ggpht.com/f-U7uoCOKIkRDRxpRVWWACf-YwB_1qTnd4OHRuXIRxISWSeWi6xbskXZMg4tE7VN0oex5yLj'
p149
sg8
F0.811512
sg9
S'Storm Warning'
p150
sg11
F174.998
sg12
F0.235074
sg13
S'e1ac271c-6fbb-357e-a5db-6fe6524f9932'
p151
sg15
F0.064936
sg16
I0
sg17
F0.719902
sg18
F4.0
sg19
F2011.0
sg20
F345.86621
sg21
F-8.527
sg22
S'Tkybwcfcn224txyktoj57wqbv5a'
p152
sg24
F0.672402
sg25
L6L
sg26
F0.423050041937
sg27
F0.000139
sa(dp153
g3
F0.302727
sg4
S"Matt Moran's Contra Band"
p154
sg6
S'http://lh5.ggpht.com/twGOCHFRa5t_tAAvPL28DvN9EylHoogmssDsd_j0LZIYD4u_lEPkYlSRYhoFgioVCG9ckDpRGGE'
p155
sg8
F0.586599
sg9
S'Draculas Tavern (Remix Arbic Six Song)'
p156
sg11
F169.935
sg12
F0.035589
sg13
S'6b1e5eb1-d3c7-3494-8a71-e9f94f732d5b'
p157
sg15
F0.000594
sg16
I0
sg17
F0.389682
sg18
F4.0
sg19
F2013.0
sg20
F206.51147
sg21
F-15.53
sg22
S'Tncb66a54boi6fhekttl3x3kee4'
p158
sg24
F0.505881
sg25
L6L
sg26
F0.258036867611
sg27
F0.371102
sa(dp159
g3
F0.106783
sg4
S'Crooked Fingers'
p160
sg6
S'http://lh6.ggpht.com/K1lz_sq-Oq1Mem4IGNeSD2sWlMX4eCj1QphGSWkrwwno6VTK2V97CTRYXp2DLEWPi0OEi0Bq0w'
p161
sg8
F0.374452
sg9
S'Your Apocalypse'
p162
sg11
F178.006
sg12
F0.028733
sg13
S'c1bf6f52-97da-3de9-978e-ceab0c8ec160'
p163
sg15
F0.876246
sg16
I0
sg17
F0.459113
sg18
F4.0
sg19
F2011.0
sg20
F222.7688
sg21
F-10.842
sg22
S'Tdxqk2zydfidkucy6xtwdv2w6fi'
p164
sg24
F0.129723
sg25
L6L
sg26
F0.459953872927
sg27
F0.003758
sa(dp165
g3
F0.110845
sg4
S'JC Brooks & the Uptown Sound'
p166
sg6
S'http://lh6.ggpht.com/kyNRnn3QDGKw_ZVzaOCu2t0LBBigpUlzMmINv54q2vzelcaHfdbA7IRC6Gmve21S6UBr9bJNfw'
p167
sg8
F0.420222
sg9
S'The Beat (Of Our Own Drum)'
p168
sg11
F197.226
sg12
F0.056398
sg13
S'bf931707-2b91-3fea-9724-4c530875bb75'
p169
sg15
F0.068649
sg16
I0
sg17
F0.597131
sg18
F4.0
sg19
F2012.0
sg20
F234.99955
sg21
F-9.421
sg22
S'Tctxtd2jl44d5cwbksbsmt757by'
p170
sg24
F0.544814
sg25
L6L
sg26
F0.542871697728
sg27
F0.114935
sa(dp171
g3
F0.248992
sg4
S'Fort Lean'
p172
sg6
S'http://lh3.ggpht.com/VAWyRNaTP0YU07aG8Mj-JgUirfsLFBLYfed81m88owPJzSQv5EldmPB7BlkQDZwyPlgSuY8VZ_0'
p173
sg8
F0.933476
sg9
S'Perfect'
p174
sg11
F173.382
sg12
F0.04975
sg13
S'55c595e0-ce6c-3a58-befb-36b8c74ef21d'
p175
sg15
F4e-05
sg16
I0
sg17
F0.307052
sg18
F4.0
sg19
F2012.0
sg20
F156.45288
sg21
F-6.703
sg22
S'Tw22vf7swusz5lpunt7lol6uq5i'
p176
sg24
F0.428135
sg25
L6L
sg26
F0.487558872394
sg27
F0.531943
sa(dp177
g3
F0.213605
sg4
S'Pepper Rabbit'
p178
sg6
S'http://lh3.ggpht.com/LMnoJ5uhH5hAzB0jBGlBFovzoVeCXWKoE1FyxsJJGLQr6JlmFRayfl7nXWaEgUfv7f-rwyOa'
p179
sg8
F0.860198
sg9
S'Rose Mary Stretch'
p180
sg11
F170.035
sg12
F0.051305
sg13
S'f015d77f-43e1-3c40-a0f3-7ea3e0febe79'
p181
sg15
F0.007002
sg16
I0
sg17
F0.554987
sg18
F3.0
sg19
F2011.0
sg20
F199.90621
sg21
F-5.1
sg22
S'Tbpmy2wpskjkhs6f5vv2rwasavu'
p182
sg24
F0.717108
sg25
L6L
sg26
F0.529591888426
sg27
F0.565652
sa(dp183
g3
F0.123024
sg4
S'Robin Spielberg'
p184
sg6
S'http://lh4.ggpht.com/4Yk8mkiYtj7vqLT_2hEeD4LUm2tXlBQgkQKrHG15TNx0WndY5dsmgPoBNIicXxmrHHSk864S5Q'
p185
sg8
F0.022272
sg9
S'Amazing Grace/Silent Night'
p186
sg11
F166.383
sg12
F0.032896
sg13
S'e160be12-e1fe-3804-9689-4a36ff5681a0'
p187
sg15
F0.983095
sg16
I0
sg17
F0.265498
sg18
F4.0
sg19
F2005.0
sg20
F272.59955
sg21
F-21.385
sg22
S'Tht5yubc3gsazayj3ixd3ofcqke'
p188
sg24
F0.067347
sg25
L6L
sg26
F0.491936204326
sg27
F0.852588
sa(dp189
g3
F0.079817
sg4
S'Youngin'
p190
sg6
S'http://lh6.ggpht.com/4-4Bj20mM1tmVjSPQl0zjenHJfacAuf4tsOPM1ezlWSnp4oJoG0OflWXZiGEpOS9Mf1msuLNXw'
p191
sg8
F0.891944
sg9
S'Greatness'
p192
sg11
F174.099
sg12
F0.112418
sg13
S'bf381593-0b92-31f4-8a73-da2d77dad132'
p193
sg15
F0.000133
sg16
I0
sg17
F0.789928
sg18
F4.0
sg19
F2013.0
sg20
F275.21415
sg21
F-6.609
sg22
S'Tbx3nai47ksa4esmsiaxlou3uhy'
p194
sg24
F0.501164
sg25
L6L
sg26
F0.334559809193
sg27
F7.1e-05
sa(dp195
g3
F0.485285
sg4
S'Parachute Musical'
p196
sg6
S'http://lh5.ggpht.com/emqbAU14oaK1Nw6RSo9yJvqbZWwdGqNEo7xXwsiLJX9J2dmmCuvO1S42WLKDImUDi3KjFwPThg'
p197
sg8
F0.92692
sg9
S'Back To Life'
p198
sg11
F169.93
sg12
F0.091328
sg13
S'b46cdd3c-a95b-3e71-9692-7f245e8467ee'
p199
sg15
F0.005407
sg16
I0
sg17
F0.378072
sg18
F4.0
sg19
F2011.0
sg20
F243.15955
sg21
F-4.791
sg22
S'Txph6oh2d2gmingz6b4vexlucem'
p200
sg24
F0.541407
sg25
L6L
sg26
F0.443568291148
sg27
F6.7e-05
sa(dp201
g3
F0.14014
sg4
g196
sg6
g197
sg8
F0.873222
sg9
S'Reflection'
p202
sg11
F181.08
sg12
F0.050934
sg13
S'39d7b02e-bf5b-305c-aec2-524164b0095d'
p203
sg15
F0.027784
sg16
I0
sg17
F0.541584
sg18
F4.0
sg19
F2011.0
sg20
F210.97288
sg21
F-5.065
sg22
S'Tvg6ndtrtfcj3zdg3rjn74hpzuu'
p204
sg24
F0.907587
sg25
L6L
sg26
F0.443568291148
sg27
F2e-06
sa(dp205
g3
F0.077742
sg4
g172
sg6
S'http://lh5.ggpht.com/XZT9x1DvRuehQ-REuRFZ64grcb2mCzu_h8me3tzQEG5mFHv6RyGCgIn6ZNwD8Da8O_XRuo_n'
p206
sg8
F0.81525
sg9
S'Beach Holiday'
p207
sg11
F188.512
sg12
F0.07152
sg13
S'4306f4b2-ab8c-3857-bb81-f622f8293a3d'
p208
sg15
F5e-05
sg16
I0
sg17
F0.181116
sg18
F4.0
sg19
F2011.0
sg20
F163.09288
sg21
F-5.282
sg22
S'T3cnjdnnt4bxa4b5m2mtogthfn4'
p209
sg24
F0.566068
sg25
L6L
sg26
F0.487558872394
sg27
F0.007342
sa(dp210
g3
F0.168191
sg4
S'Ultraklystron'
p211
sg6
S'http://lh5.ggpht.com/79TxAi5_RUSwLfwiw0BQxS4cohnlI7gIwhBBlZVEy3LvkVHWVLGwMzFoUCx0ddmKC5CS1fBaRnM'
p212
sg8
F0.696878
sg9
S'Honeycomb'
p213
sg11
F180.0
sg12
F0.02833
sg13
S'6d66c4b7-a4f7-3053-9881-76e61c3b2d19'
p214
sg15
F0.221253
sg16
I0
sg17
F0.508053
sg18
F4.0
sg19
F2014.0
sg20
F199.33288
sg21
F-7.383
sg22
S'Tiol3cnskqgmsm7fo6c6c7735qi'
p215
sg24
F0.230043
sg25
L6L
sg26
F0.386389068806
sg27
F0.929672
sa(dp216
g3
F0.157664
sg4
S'Jarrod Factor'
p217
sg6
S'http://lh6.ggpht.com/r2ETuAfyvt55WgMor2yDBXLjJeOzam_0HW7_5iWIKtPo4h44kk9FGWaR_p5wogrWrTKmZkUkiQ'
p218
sg8
F0.199005
sg9
S'"I. Want. You." from Inversion'
p219
sg11
F170.025
sg12
F0.068377
sg13
S'59cb635c-a4b4-3b10-b009-b2f38661f6b4'
p220
sg15
F0.055656
sg16
I0
sg17
F0.542348
sg18
F5.0
sg19
F2008.0
sg20
F75.85288
sg21
F-27.096
sg22
S'Tvkaaixzofmsewzblo4eex7urwa'
p221
sg24
F0.053265
sg25
L6L
sg26
F0.273430095496
sg27
F0.928399
sa(dp222
g3
F0.132626
sg4
g217
sg6
g218
sg8
F0.432563
sg9
S'"Last Saturday Night" from Holding On'
p223
sg11
F168.053
sg12
F0.039019
sg13
S'c3ba1e16-6879-349f-8229-5149fc13ea0a'
p224
sg15
F0.184398
sg16
I0
sg17
F0.493656
sg18
F4.0
sg19
F2008.0
sg20
F77.34621
sg21
F-22.008
sg22
S'Ti4x3zd4t2xtce22t7oywcl7fem'
p225
sg24
F0.496654
sg25
L6L
sg26
F0.273430095496
sg27
F0.871063
sa(dp226
g3
F0.114764
sg4
g217
sg6
g218
sg8
F0.364186
sg9
S'A Short Portrait of Obsession'
p227
sg11
F179.779
sg12
F0.063368
sg13
S'05524e6a-3709-3283-9988-f654a5194602'
p228
sg15
F0.011292
sg16
I0
sg17
F0.557866
sg18
F4.0
sg19
F2008.0
sg20
F80.55955
sg21
F-19.864
sg22
S'Tcey4keb3lqzs7suduhz2ckt3tm'
p229
sg24
F0.077712
sg25
L6L
sg26
F0.273430095496
sg27
F0.885483
sa(dp230
g3
F0.11242
sg4
S'zYnthetic'
p231
sg6
S'http://lh5.ggpht.com/r81U3HqVM6MkNyNwY5x24mFiIE1tf_8UiuD8Yz7o3jtkscM2jEIZj4ikwemrgigPpo4YWMhKgQ'
p232
sg8
F0.018695
sg9
S'Act 1 - Synaptic Distortion'
p233
sg11
F179.415
sg12
F0.053815
sg13
S'cb3f4307-c45b-3227-88e1-c1bce77feb61'
p234
sg15
F0.921518
sg16
I0
sg17
F0.122614
sg18
F1.0
sg19
F2014.0
sg20
F97.99955
sg21
F-24.617
sg22
S'Te6er5g55okzjzvclyue3injcpe'
p235
sg24
F0.157654
sg25
L6L
sg26
F0.462929240542
sg27
F0.191778
sa(dp236
g3
F0.190038
sg4
S'Kushest'
p237
sg6
S'http://lh4.ggpht.com/R6YYEbXpmzOtPcczgRugDSW2KI0zDLuE9nicvxWNWCjYfl7A0jiW1lJ32HJ0GKRZ3Ry3RjulaW4'
p238
sg8
F0.935409
sg9
S'Survival Of The Fittest'
p239
sg11
F180.394
sg12
F0.246168
sg13
S'df07c6ea-e6e2-3109-b1e6-2082646e94f5'
p240
sg15
F0.001484
sg16
I0
sg17
F0.238115
sg18
F5.0
sg19
F2013.0
sg20
F565.66966
sg21
F-9.07
sg22
S'T32rcij64utb5f3ihtrxnflwgjy'
p241
sg24
F0.370309
sg25
L6L
sg26
F0.252932913188
sg27
F0.538935
saa(lp242
(dp243
g3
F0.704776
sg4
g5
sg6
g7
sg8
F0.931926
sg9
S'Hoover Dam'
p244
sg11
F112.631
sg12
F0.110934
sg13
S'c124db32-ed38-3dc5-9775-a42c587c7ba3'
p245
sg15
F0.030926
sg16
I1
sg17
F0.375139
sg18
F4.0
sg19
F2012.0
sg20
F278.59955
sg21
F-4.738
sg22
S'T3cdtx2ejfl3bufyti4kwa2r57a'
p246
sg24
F0.383736
sg25
L6L
sg26
F0.477314504435
sg27
F0.142562
sa(dp247
g3
F0.413744
sg4
g5
sg6
g7
sg8
F0.994101
sg9
S'I Apologize'
p248
sg11
F113.77
sg12
F0.225832
sg13
S'a6ed2d45-9a62-38ac-b021-585eeeddce10'
p249
sg15
F0.011545
sg16
I1
sg17
F0.324268
sg18
F4.0
sg19
F2012.0
sg20
F198.97288
sg21
F-3.904
sg22
S'Tnqxbfcxjzuyzmumozt4x4bqvqi'
p250
sg24
F0.191411
sg25
L6L
sg26
F0.477314504435
sg27
F0.028939
sa(dp251
g3
F0.206739
sg4
S'Game'
p252
sg6
S'http://lh6.ggpht.com/oZ_JqtTVqIxK3tWwTp2HcGqG7Yxm3NmSTwiu0SbN8t98OO9XGL5z81Lp6Cy8FSCFpNoI9tVnzQ'
p253
sg8
F0.926596
sg9
S'Gotta Take Your Love (Re-edit)'
p254
sg11
F122.06
sg12
F0.402797
sg13
S'5e10ddfa-ef06-3699-a985-f2df0b25c7d9'
p255
sg15
F0.00408
sg16
I1
sg17
F0.73503
sg18
F4.0
sg19
F2013.0
sg20
F154.90458
sg21
F-6.818
sg22
S'Tsbq7lclazcrwxerz6hlhhsrkfu'
p256
sg24
F0.561494
sg25
L6L
sg26
F0.411385030937
sg27
F4.9e-05
sa(dp257
g3
F0.985793
sg4
S'Dave Matthews Band'
p258
sg6
S'http://lh3.ggpht.com/Sfj0Bxs0Us8Uh9fH2vNb-igajLPG1evA_mTm9P3e-IO7VIKsYqO0DZghd59T7VZoye4YtMRTj4k'
p259
sg8
F0.84503
sg9
S'Help Myself'
p260
sg11
F119.216
sg12
F0.039802
sg13
S'84e9b70e-1f09-3911-81eb-5f16a4b95bc2'
p261
sg15
F0.102073
sg16
I1
sg17
F0.51541
sg18
F4.0
sg19
F2011.0
sg20
F323.55955
sg21
F-6.906
sg22
S'Tm4kghu2uwphg67cxh7qo66snte'
p262
sg24
F0.506898
sg25
L6L
sg26
F0.381223175296
sg27
F0.001221
sa(dp263
g3
F0.974162
sg4
g258
sg6
g259
sg8
F0.940381
sg9
S'What Would You Say'
p264
sg11
F112.601
sg12
F0.069971
sg13
S'93393bb2-5304-3d11-ab2a-44046cdb1490'
p265
sg15
F0.06518
sg16
I1
sg17
F0.570784
sg18
F4.0
sg19
F2011.0
sg20
F293.63955
sg21
F-4.551
sg22
S'T42rm6poc7gwig5sqmswk225hom'
p266
sg24
F0.639763
sg25
L6L
sg26
F0.381223175296
sg27
F1e-06
sa(dp267
g3
F0.269214
sg4
S'Classick'
p268
sg6
g34
sg8
F0.892009
sg9
S'This Heart - Rock / Hard Rock Song'
p269
sg11
F119.996
sg12
F0.041597
sg13
S'ff2c6925-d4f8-36a0-915f-5c0b737a702b'
p270
sg15
F0.000596
sg16
I1
sg17
F0.496551
sg18
F4.0
sg19
F2014.0
sg20
F208.22159
sg21
F-4.496
sg22
S'Tc733d5tno3q65chktw25uhess4'
p271
sg24
F0.146288
sg25
L6L
sg26
F0.340148122382
sg27
F0.000177
sa(dp272
g3
F0.2892
sg4
S'Natalie Howard'
p273
sg6
g34
sg8
F0.804726
sg9
S'Paradise - Country Album'
p274
sg11
F124.998
sg12
F0.042883
sg13
S'34a9566e-cea3-3edf-9389-895f69f7fed4'
p275
sg15
F0.000302
sg16
I1
sg17
F0.581093
sg18
F4.0
sg19
F2014.0
sg20
F255.58159
sg21
F-9.085
sg22
S'Trwylshzj3mrt5bjp2zypfkqvq4'
p276
sg24
F0.302652
sg25
L6L
sg26
F0.295212838718
sg27
F0.000871
sa(dp277
g3
F0.447561
sg4
S'Sultans Of String'
p278
sg6
g34
sg8
F0.278823
sg9
S'Josie - Instrumental Song'
p279
sg11
F132.004
sg12
F0.033259
sg13
S'dbdaca0f-e0ab-3656-a111-097a4c8ec9da'
p280
sg15
F0.870403
sg16
I1
sg17
F0.276762
sg18
F4.0
sg19
F2014.0
sg20
F370.52036
sg21
F-12.791
sg22
S'T2xc6mz4xte25syxzlmcjaur25y'
p281
sg24
F0.129893
sg25
L6L
sg26
F0.367688608638
sg27
F0.047702
sa(dp282
g3
F0.363376
sg4
S'Darlene Koldenhoven'
p283
sg6
g34
sg8
F0.357322
sg9
S'Lucid See - New Age Album'
p284
sg11
F132.01
sg12
F0.037142
sg13
S'6dc4a566-b565-3009-9ded-dd078a337893'
p285
sg15
F0.944728
sg16
I1
sg17
F0.565485
sg18
F4.0
sg19
F2014.0
sg20
F250.33098
sg21
F-16.038
sg22
S'Tgt66mgc4c43o32aj5w5k5bakmy'
p286
sg24
F0.075995
sg25
L6L
sg26
F0.323816808351
sg27
F0.924659
sa(dp287
g3
F0.413416
sg4
g39
sg6
g34
sg8
F0.538238
sg9
S'From My Blue - Dance / Electronica Album'
p288
sg11
F112.512
sg12
F0.155705
sg13
S'2e963965-b80e-3fbb-89d9-df28456fb41f'
p289
sg15
F0.173612
sg16
I1
sg17
F0.579983
sg18
F3.0
sg19
F2014.0
sg20
F189.41342
sg21
F-6.821
sg22
S'Tg4tkie2wuevcucspfahqsxo6n4'
p290
sg24
F0.28638
sg25
L6L
sg26
F0.429842559251
sg27
F0.072122
sa(dp291
g3
F0.099163
sg4
S'Amusium'
p292
sg6
S'http://lh5.ggpht.com/dPXd9CI289BMHPSYdcsSnGFiU9eWEhtc_a4qRLgkLqPVvKV4KXs-pylUlh67jE126ZpCYR6LSQ'
p293
sg8
F0.509066
sg9
S'Kick Drum High Hat (Oscilot Remix)'
p294
sg11
F125.136
sg12
F0.176429
sg13
S'5a9bb070-cf7c-31b0-ad9e-e2f8f22aac42'
p295
sg15
F0.628131
sg16
I1
sg17
F0.69268
sg18
F4.0
sg19
F2012.0
sg20
F339.04281
sg21
F-10.049
sg22
S'Tlinptpafuhxcsro6xughqvtzs4'
p296
sg24
F0.269535
sg25
L6L
sg26
F0.309031421999
sg27
F0.029808
sa(dp297
g3
F0.372651
sg4
S'Sylvan Esso'
p298
sg6
S'http://lh6.ggpht.com/d6j3m1R_24gCRo_shMqVFkqQehvrx5RtGUD75Cns65RGuEKj0rYCpxcwPVdiBMZDRtPbwPYf'
p299
sg8
F0.745656
sg9
S'Hey Mami'
p300
sg11
F119.58
sg12
F0.535543
sg13
S'a3aa3a90-b9fa-3a9d-a2ec-ef4f0ed9d70b'
p301
sg15
F0.268542
sg16
I1
sg17
F0.668226
sg18
F4.0
sg19
F2014.0
sg20
F200.19048
sg21
F-6.019
sg22
S'Ttgbsuayqeo5eohjdblistpckia'
p302
sg24
F0.605725
sg25
L6L
sg26
F0.591491394823
sg27
F1e-06
sa(dp303
g3
F0.12797
sg4
S'The M...'
p304
sg6
S'http://lh3.ggpht.com/hDXzIjKalPSDaTJTuka6ualCXxo4KAU9bkjkY9RZfQbYtKnOj-nJoVMtamYPkfJ_L7fYc6F9'
p305
sg8
F0.577071
sg9
S'The Book Monument'
p306
sg11
F120.098
sg12
F0.042635
sg13
S'70a9bc1e-7e9f-3c7d-85f1-771e33653c5f'
p307
sg15
F0.928356
sg16
I1
sg17
F0.241849
sg18
F4.0
sg19
F2013.0
sg20
F306.0
sg21
F-8.908
sg22
S'Tnbqeinxqwaetibccrrx2kpum3u'
p308
sg24
F0.092613
sg25
L6L
sg26
F0.25991974052
sg27
F0.871088
sa(dp309
g3
F0.723171
sg4
S'Free Bears'
p310
sg6
S'http://lh4.ggpht.com/usiMiiPvnw6B2bCRixvxb0Pjkuv5rjOTk6IGJOwOXPzDEgexRXSaAwaDowRmYvn4f244kJoY'
p311
sg8
F0.943235
sg9
S'Say What You Mean'
p312
sg11
F126.066
sg12
F0.036638
sg13
S'dc25e77c-3e4f-3586-94b8-a28afa1e3524'
p313
sg15
F0.044206
sg16
I1
sg17
F0.511998
sg18
F4.0
sg19
F2012.0
sg20
F202.13288
sg21
F-3.346
sg22
S'Tv5bv64fywfgzi7kqh36li3uaxm'
p314
sg24
F0.961883
sg25
L6L
sg26
F0.257350533155
sg27
F1.3e-05
sa(dp315
g3
F0.351945
sg4
S'Best Coast'
p316
sg6
S'http://lh4.ggpht.com/sL_O79LkzEGx2gsrlix7ws9eUF16TGUqZS-jBZstBOlZ--ULXs7kBGY0d9T4He0i3sj4l5dI0Q'
p317
sg8
F0.62196
sg9
S'Do You Love Me Like You Used To'
p318
sg11
F116.722
sg12
F0.026709
sg13
S'4aef81ec-8a4f-3f11-8cac-8c56f34fee73'
p319
sg15
F0.003469
sg16
I1
sg17
F0.618934
sg18
F4.0
sg19
F2012.0
sg20
F195.77692
sg21
F-6.153
sg22
S'T677ovkrd5hyih24shotha5gqmm'
p320
sg24
F0.632316
sg25
L6L
sg26
F0.468873175959
sg27
F2.6e-05
sa(dp321
g3
F0.147798
sg4
g316
sg6
g317
sg8
F0.875429
sg9
S'Boyfriend'
p322
sg11
F115.101
sg12
F0.052552
sg13
S'5b6ff226-5e1f-376a-8c03-460b960549ac'
p323
sg15
F0.120742
sg16
I1
sg17
F0.251596
sg18
F4.0
sg19
F2012.0
sg20
F149.81288
sg21
F-3.864
sg22
S'T7jbnjo7bzfxzlicspr2lumtgl4'
p324
sg24
F0.584839
sg25
L6L
sg26
F0.468873175959
sg27
F0.160026
sa(dp325
g3
F0.198817
sg4
g217
sg6
S'http://lh4.ggpht.com/ZTmp-tvS8DUi7vdUMXUgowCc993IC1OGoqoyTw_kuL6apsH4FbdKse4l-7nv6m-UKyCKt6X3BQ'
p326
sg8
F0.407223
sg9
S'"Design Obsession" from Insignia'
p327
sg11
F113.017
sg12
F0.072577
sg13
S'a5c7813b-486d-3756-b3ae-7e2d5adcf30b'
p328
sg15
F0.00152
sg16
I1
sg17
F0.714951
sg18
F4.0
sg19
F2006.0
sg20
F74.77288
sg21
F-16.247
sg22
S'Tbcbob4ck32nkxokmamda76rg7a'
p329
sg24
F0.276962
sg25
L6L
sg26
F0.273430095496
sg27
F0.908448
sa(dp330
g3
F0.123024
sg4
S'Dregas'
p331
sg6
S'http://lh6.ggpht.com/mFZdS05sDxgUW4noMAxWHmOLFz4taUJUupOp194jLsrFSuq5NLO-vnPoj1bosVGM6PkiVqm8'
p332
sg8
F0.784997
sg9
S'Fall Back In'
p333
sg11
F129.99
sg12
F0.066059
sg13
S'350a9f5e-4fff-3164-b493-98c2586129e9'
p334
sg15
F0.029019
sg16
I1
sg17
F0.787743
sg18
F4.0
sg19
F2012.0
sg20
F247.63224
sg21
F-3.942
sg22
S'Tsvhkzebg24kinkahwjzesc5lne'
p335
sg24
F0.774422
sg25
L6L
sg26
F0.309731157687
sg27
F8.8e-05
sa(dp336
g3
F0.330526
sg4
S'Joshua Burnell'
p337
sg6
S'http://lh6.ggpht.com/iDhbOZh2fu_cevbqdsdMv_MNv3WN6nMmz1oqB55Ow1-OUMhThujHhH8xoGvIBGgOpotvHT9lfX0'
p338
sg8
F0.072824
sg9
S'Far Over the Misty Mountains Cold'
p339
sg11
F116.917
sg12
F0.044037
sg13
S'ff796f66-63d9-33c2-8bea-79d8971540a5'
p340
sg15
F0.906649
sg16
I1
sg17
F0.564542
sg18
F4.0
sg19
F2013.0
sg20
F233.83955
sg21
F-16.614
sg22
S'T35vayeb3r3cwedazomzekioz7a'
p341
sg24
F0.158143
sg25
L6L
sg26
F0.338486369779
sg27
F3e-06
sa(dp342
g3
F0.243777
sg4
S'Matt Nathanson'
p343
sg6
S'http://lh5.ggpht.com/7L1bMzR7u3vBOVOBxn1J0iKT_CC4k0vQ5VfMiLosmQs1enWXVKiChiL-SzXOSDKKkcuTmqQM'
p344
sg8
F0.893739
sg9
S'Laid'
p345
sg11
F119.844
sg12
F0.028386
sg13
S'2987036f-fbf7-331a-9d61-ddef79fcef92'
p346
sg15
F0.004303
sg16
I1
sg17
F0.558825
sg18
F4.0
sg19
F2011.0
sg20
F182.82621
sg21
F-5.477
sg22
S'T5hdaqnmb76itghvqn2pz2evnr4'
p347
sg24
F0.71016
sg25
L6L
sg26
F0.499727972349
sg27
F4.6e-05
sa(dp348
g3
F0.098949
sg4
S'Brian Crain'
p349
sg6
S'http://lh4.ggpht.com/sqeLFogMoCJ9wVk-PTWaABFfkqjVZfiFGXpGbHQuTGZx_W1lE5z95Q8XiujwwOg3VzYpd07xj7I'
p350
sg8
F0.148782
sg9
S'Autumn - Dual Piano'
p351
sg11
F125.925
sg12
F0.038159
sg13
S'0e118798-e640-3d08-9bdc-f799480d7651'
p352
sg15
F0.978796
sg16
I1
sg17
F0.356202
sg18
F4.0
sg19
F2009.0
sg20
F265.46621
sg21
F-21.435
sg22
S'Ty2sfrtniriofkjs4lbojl64vsq'
p353
sg24
F0.151527
sg25
L6L
sg26
F0.553378844811
sg27
F0.892232
sa(dp354
g3
F0.119636
sg4
g349
sg6
S'http://lh4.ggpht.com/I8xEhgNBQF2bGScDcTlHAfE9Igo-fJc9V8Df1GUX_4k2S00I5DmyazVK1bvb26dFWjluE4vl6g'
p355
sg8
F0.0807
sg9
S'Pastel Garden'
p356
sg11
F114.707
sg12
F0.038507
sg13
S'14382c26-fb68-324a-9800-3036083e4d53'
p357
sg15
F0.988842
sg16
I1
sg17
F0.437436
sg18
F3.0
sg19
F2011.0
sg20
F173.41823
sg21
F-22.448
sg22
S'Tfwgnvthsoswjk4m34s75jbyghi'
p358
sg24
F0.307531
sg25
L6L
sg26
F0.553378844811
sg27
F0.948228
sa(dp359
g3
F0.024467
sg4
S'Blank & Jones'
p360
sg6
S'http://lh5.ggpht.com/1somRZh1Ms3xRLEWmW4xHydX-jQZqhtuN3luE74lTw_ppdmROWElFpNJedJaKW50PvIm0FQOAO0'
p361
sg8
F0.758711
sg9
S'Breakout'
p362
sg11
F129.941
sg12
F0.057676
sg13
S'41e23b1c-f736-3f13-a789-7bb8e5b8dba6'
p363
sg15
F0.001884
sg16
I1
sg17
F0.786752
sg18
F4.0
sg19
F2008.0
sg20
F384.49955
sg21
F-5.447
sg22
S'Tdga52o4rhaqxfp6qqj5rityjju'
p364
sg24
F0.780387
sg25
L6L
sg26
F0.451393701203
sg27
F0.850039
sa(dp365
g3
F0.084694
sg4
S'The Staves'
p366
sg6
S'http://lh5.ggpht.com/OWCT2xIeY41CXtYijVFje8GPlt-w3-VLBYuj5WsioTXpiYzq-k4MK-3XTf4AEjnvZpVPsVDE1A'
p367
sg8
F0.117221
sg9
S'Mexico'
p368
sg11
F131.847
sg12
F0.034454
sg13
S'bb90d234-a742-33ad-9326-6d4707c9663a'
p369
sg15
F0.964347
sg16
I1
sg17
F0.558383
sg18
F4.0
sg19
F2012.0
sg20
F246.41374
sg21
F-16.958
sg22
S'Tj35g2xsma5gqeach3h3h6vx3be'
p370
sg24
F0.171579
sg25
L6L
sg26
F0.49402576793
sg27
F0.000686
sa(dp371
g3
F0.084694
sg4
g366
sg6
S'http://lh6.ggpht.com/jNi1VOJQ652fI70r5uhsyOtxLaOCI0HxBS9lpgHDYjoLT_k7y0oBtswoUzl4FRoHmpaT6r9-Eg'
p372
sg8
F0.117221
sg9
g368
sg11
F131.847
sg12
F0.034454
sg13
S'3f73eece-5499-3608-81d0-adad439b2eea'
p373
sg15
F0.964347
sg16
I1
sg17
F0.558383
sg18
F4.0
sg19
F2011.0
sg20
F246.41374
sg21
F-16.958
sg22
S'Txzflomnxbdlhmmbnwjihwuhn3i'
p374
sg24
F0.171579
sg25
L6L
sg26
F0.49402576793
sg27
F0.000686
sa(dp375
g3
F0.13177
sg4
g76
sg6
S'http://lh3.ggpht.com/QoupF-KouAWPKldwsD0k9nWRjtP9yWG72FAX5m2874ZmhfACmSBxeyJYWMoFV8A7X_RjGkQC'
p376
sg8
F0.443365
sg9
S'Jajunk>'
p377
sg11
F131.638
sg12
F0.03644
sg13
S'ee5cae07-3f6a-3e38-9066-d97f0e6ed394'
p378
sg15
F0.162648
sg16
I1
sg17
F0.455793
sg18
F3.0
sg19
F2011.0
sg20
F788.15447
sg21
F-18.827
sg22
S'Tgcmz362ble3n4uh52lxcnrntcu'
p379
sg24
F0.350895
sg25
L6L
sg26
F0.415381464026
sg27
F0.792072
sa(dp380
g3
F0.13177
sg4
g76
sg6
g376
sg8
F0.443365
sg9
g377
sg11
F131.638
sg12
F0.03644
sg13
S'a029190c-dcbf-3689-9c79-7b959d53ccb7'
p381
sg15
F0.162648
sg16
I1
sg17
F0.455793
sg18
F3.0
sg19
F2011.0
sg20
F788.15447
sg21
F-18.827
sg22
S'Tmrlfhqrf26q5eewzmkdgiquin4'
p382
sg24
F0.350895
sg25
L6L
sg26
F0.415381464026
sg27
F0.792072
sa(dp383
g3
F0.176214
sg4
g76
sg6
g376
sg8
F0.619352
sg9
S'The Triple Wide >'
p384
sg11
F121.87
sg12
F0.036965
sg13
S'fa2288db-0d30-3e5a-a958-4f8444715ba6'
p385
sg15
F0.434324
sg16
I1
sg17
F0.482606
sg18
F4.0
sg19
F2011.0
sg20
F560.15773
sg21
F-15.034
sg22
S'Tzuxpw42yddukwgabcm6lq4kkly'
p386
sg24
F0.558575
sg25
L6L
sg26
F0.415381464026
sg27
F0.880747
sa(dp387
g3
F0.672494
sg4
g76
sg6
g376
sg8
F0.791328
sg9
S'Layla (Live)'
p388
sg11
F112.972
sg12
F0.037449
sg13
S'f2ce1b60-e5ad-30e9-a635-0bb013c2228d'
p389
sg15
F0.217912
sg16
I1
sg17
F0.390743
sg18
F4.0
sg19
F2011.0
sg20
F446.62667
sg21
F-6.175
sg22
S'Tp5gkhyvax3q5h77woatw73isa4'
p390
sg24
F0.362721
sg25
L6L
sg26
F0.415381464026
sg27
F0.764743
sa(dp391
g3
F0.097418
sg4
S'Nick Lowe'
p392
sg6
S'http://lh6.ggpht.com/OXUI3_ccrbc2Q0yUzxlBzjZkTP8byUOVRIE5xF4Yws6_7LF4H6NeAx-d4viAZMT2A5Cfjvf0brw'
p393
sg8
F0.556249
sg9
S'Sensitive Man'
p394
sg11
F134.147
sg12
F0.039176
sg13
S'c887e9be-7c21-30dd-8508-f75ec6377a53'
p395
sg15
F0.450265
sg16
I1
sg17
F0.749502
sg18
F4.0
sg19
F2011.0
sg20
F172.34621
sg21
F-8.872
sg22
S'T55pcf6qvbflbbwirn5bryp6hwa'
p396
sg24
F0.668804
sg25
L6L
sg26
F0.3952684428
sg27
F0.225798
sa(dp397
g3
F0.751581
sg4
g76
sg6
g77
sg8
F0.921286
sg9
S'Come As Your Kids (10/29/11 Atlanta  Georgia)'
p398
sg11
F127.017
sg12
F0.056658
sg13
S'ecdec6fc-265b-32ae-aa8d-f695e76b1fd3'
p399
sg15
F0.049181
sg16
I1
sg17
F0.277751
sg18
F4.0
sg19
F2011.0
sg20
F606.54395
sg21
F-5.38
sg22
S'Ty33cht5rkgocao4a2bfr5jif5i'
p400
sg24
F0.314592
sg25
L6L
sg26
F0.415381464026
sg27
F0.009953
sa(dp401
g3
F0.141208
sg4
g76
sg6
g77
sg8
F0.599522
sg9
S'Pay the Snucka'
p402
sg11
F113.541
sg12
F0.094706
sg13
S'ca4205a5-7ad8-3523-b0b2-c130d59d30d9'
p403
sg15
F0.599863
sg16
I1
sg17
F0.415488
sg18
F4.0
sg19
F2011.0
sg20
F511.21007
sg21
F-15.268
sg22
S'Tbp6sjdht5gj3n22nkbva6ivwoi'
p404
sg24
F0.135295
sg25
L6L
sg26
F0.415381464026
sg27
F0.724698
sa(dp405
g3
F0.141208
sg4
g76
sg6
g77
sg8
F0.599522
sg9
g402
sg11
F113.541
sg12
F0.094706
sg13
S'31cdf476-8169-35e5-97df-afd72bdf87d9'
p406
sg15
F0.599863
sg16
I1
sg17
F0.415488
sg18
F4.0
sg19
F2011.0
sg20
F511.21007
sg21
F-15.268
sg22
S'Tmwwaysn42qnajdznrce64iblhe'
p407
sg24
F0.135295
sg25
L6L
sg26
F0.415381464026
sg27
F0.724698
sa(dp408
g3
F0.115687
sg4
S'Khamelijon'
p409
sg6
S'http://lh3.ggpht.com/lY24viAjw-HAh5-zt8UJMxe2-NmYaNb-f9bcS3NcIYUg2d_p8dYr-z8punRYKoPTbkNPkzrDGw'
p410
sg8
F0.708675
sg9
S'Useless Music (Remix)'
p411
sg11
F121.96
sg12
F0.235667
sg13
S'b53485d9-9c05-360e-bb3d-79a6300b1a57'
p412
sg15
F0.371095
sg16
I1
sg17
F0.895519
sg18
F4.0
sg19
F2012.0
sg20
F206.28961
sg21
F-7.503
sg22
S'Tzieuo3oyozkx2oq6jncsc5femq'
p413
sg24
F0.833276
sg25
L6L
sg26
F0.232344793957
sg27
F1.2e-05
sa(dp414
g3
F0.173991
sg4
g76
sg6
S'http://lh3.ggpht.com/QG2C8i7ywY9rc8jqlYHL44p5g3AD5hGKOmTvY2PCvrd1waKI0sB_lRfx2ywXP-SxlO5u5IUgAQ'
p415
sg8
F0.203923
sg9
S'Intro...'
p416
sg11
F112.554
sg12
F0.037354
sg13
S'8c8cd4ce-3020-3038-99be-71d89d674460'
p417
sg15
F0.976239
sg16
I1
sg17
F0.337736
sg18
F4.0
sg19
F2010.0
sg20
F172.73279
sg21
F-19.451
sg22
S'Th3anhp26etkb65tycvozhdvj4e'
p418
sg24
F0.154083
sg25
L6L
sg26
F0.415381464026
sg27
F0.866681
sa(dp419
g3
F0.119457
sg4
S'Hey Rosetta!'
p420
sg6
S'http://lh3.ggpht.com/XVb2dGKDxexLUPRMJFVHgxTqgtulZPWKmmqrCMKtCVepCgogEm64s7Pf0fWSDsqtZ65UyAmfMg'
p421
sg8
F0.866346
sg9
S'Soft Offering (For the Oft Suffering)'
p422
sg11
F126.022
sg12
F0.069092
sg13
S'b53be5fb-2efa-3b19-a376-50090b47dcc0'
p423
sg15
F0.072264
sg16
I1
sg17
F0.543584
sg18
F4.0
sg19
F2014.0
sg20
F237.84
sg21
F-6.424
sg22
S'Tshblfrfi5pzny2naradgzvust4'
p424
sg24
F0.241175
sg25
L6L
sg26
F0.496795028709
sg27
F1e-06
sa(dp425
g3
F0.076116
sg4
S'Quadron'
p426
sg6
S'http://lh6.ggpht.com/a4NELcNmRZW0qZvREtmOWke6ygACW-L0__9YAfCYOG9oOpP1qNfC5WqYHOBtSV36lLfRYKtu81Y'
p427
sg8
F0.467486
sg9
S'Pressure'
p428
sg11
F118.031
sg12
F0.060141
sg13
S'22ce45cb-35d8-353f-86ce-902a2b4cc400'
p429
sg15
F0.646962
sg16
I1
sg17
F0.781883
sg18
F4.0
sg19
F2011.0
sg20
F205.42621
sg21
F-8.58
sg22
S'Ta7pdtpg2l5zzunf2zgosq753qy'
p430
sg24
F0.77116
sg25
L6L
sg26
F0.491559266938
sg27
F0.000186
sa(dp431
g3
F0.107826
sg4
S'Highly Explosive'
p432
sg6
Fnan
sg8
F0.478591
sg9
S'When It Comes Down'
p433
sg11
F120.019
sg12
F0.055752
sg13
S'11e86d69-de71-32d2-b36b-d3182f1cabe0'
p434
sg15
F0.032634
sg16
I1
sg17
F0.841219
sg18
F4.0
sg19
F2009.0
sg20
F236.63955
sg21
F-13.062
sg22
S'Tpdjausvdhpczhv74talydeszim'
p435
sg24
F0.646362
sg25
L6L
sg26
F0.259683304522
sg27
F0.000521
sa(dp436
g3
F0.324349
sg4
S'The 2 Bears'
p437
sg6
S'http://lh4.ggpht.com/s3KeCWE2yMDB1bdznnDXN3tgJwVhhg-Vso1qbGhvZidnry62rq6XpN_jnaSYjLaczfNc_hDZjg'
p438
sg8
F0.784877
sg9
S'Get Out'
p439
sg11
F122.914
sg12
F0.033861
sg13
S'591f7a68-492b-3d78-8547-1f4c3abf87ee'
p440
sg15
F0.065091
sg16
I1
sg17
F0.664173
sg18
F4.0
sg19
F2014.0
sg20
F352.77374
sg21
F-6.038
sg22
S'Ta7xb5zwqbmhys3alf76lkcy37e'
p441
sg24
F0.109534
sg25
L6L
sg26
F0.5358796057
sg27
F0.098508
sa(dp442
g3
F0.473382
sg4
g82
sg6
g83
sg8
F0.176454
sg9
S'Happiness (Live)'
p443
sg11
F117.772
sg12
F0.059696
sg13
S'117897ca-2c66-3652-afc0-cb71618fda1a'
p444
sg15
F0.928137
sg16
I1
sg17
F0.471396
sg18
F3.0
sg19
F2011.0
sg20
F172.419
sg21
F-18.626
sg22
S'Tueowsaq4xhbhlgigvnchi4vgo4'
p445
sg24
F0.241836
sg25
L6L
sg26
F0.261711676507
sg27
F2e-06
sa(dp446
g3
F0.265918
sg4
g82
sg6
g83
sg8
F0.297802
sg9
S"Can't Escape"
p447
sg11
F125.398
sg12
F0.037694
sg13
S'81028750-4226-3e6a-9331-61d9162d6dbf'
p448
sg15
F0.349985
sg16
I1
sg17
F0.631881
sg18
F4.0
sg19
F2011.0
sg20
F173.19129
sg21
F-13.413
sg22
S'T3lod3mmqw7yjcjtj3etwiffniq'
p449
sg24
F0.540984
sg25
L6L
sg26
F0.261711676507
sg27
F0.001623
sa(dp450
g3
F0.885216
sg4
g82
sg6
g83
sg8
F0.197797
sg9
S"Just Can't Wait (Live)"
p451
sg11
F128.151
sg12
F0.034645
sg13
S'edc7ce72-6b18-347b-8a56-bc289111f3aa'
p452
sg15
F0.907841
sg16
I1
sg17
F0.433848
sg18
F4.0
sg19
F2011.0
sg20
F244.09347
sg21
F-15.937
sg22
S'T4ku5g5aifm7xvyr33b5dqrgdoe'
p453
sg24
F0.205249
sg25
L6L
sg26
F0.261711676507
sg27
F3.5e-05
sa(dp454
g3
F0.386971
sg4
g88
sg6
g89
sg8
F0.752706
sg9
S"Joe Savio's New Age Blues Experience"
p455
sg11
F132.371
sg12
F0.045712
sg13
S'92987af5-3d8e-37e6-a893-f16522210e4f'
p456
sg15
F0.005333
sg16
I1
sg17
F0.478864
sg18
F4.0
sg19
F2011.0
sg20
F228.0361
sg21
F-7.048
sg22
S'Tlbwffnce653fgzrdamqq4katay'
p457
sg24
F0.642798
sg25
L6L
sg26
F0.269127343221
sg27
F0.843559
sa(dp458
g3
F0.308909
sg4
g88
sg6
g89
sg8
F0.653437
sg9
S'Damage Done'
p459
sg11
F114.854
sg12
F0.034173
sg13
S'da6e002d-3119-3eb4-b334-f8893ae2180c'
p460
sg15
F0.076559
sg16
I1
sg17
F0.445109
sg18
F4.0
sg19
F2011.0
sg20
F342.99959
sg21
F-7.401
sg22
S'Tada7nmyzgbxxzlsjoxmvsxlox4'
p461
sg24
F0.308249
sg25
L6L
sg26
F0.269127343221
sg27
F0.000227
sa(dp462
g3
F0.127935
sg4
g88
sg6
g89
sg8
F0.354437
sg9
S'Beyond'
p463
sg11
F122.237
sg12
F0.04341
sg13
S'07fd1b88-00cc-3f85-9e2f-7b4a64599ce5'
p464
sg15
F0.33303
sg16
I1
sg17
F0.345482
sg18
F4.0
sg19
F2011.0
sg20
F316.04354
sg21
F-13.567
sg22
S'T3q2xyadxmk73v4m6lmms32zi5u'
p465
sg24
F0.115813
sg25
L6L
sg26
F0.269127343221
sg27
F0.005009
sa(dp466
g3
F0.957786
sg4
g88
sg6
g89
sg8
F0.291129
sg9
S'Another Day'
p467
sg11
F118.106
sg12
F0.038191
sg13
S'11f4207b-8920-3429-b4e6-5d98a686f6b3'
p468
sg15
F0.783779
sg16
I1
sg17
F0.378899
sg18
F4.0
sg19
F2011.0
sg20
F202.32975
sg21
F-13.019
sg22
S'Txxj37tohhf4z3c6rcizfgik3dm'
p469
sg24
F0.182656
sg25
L6L
sg26
F0.269127343221
sg27
F0.000403
sa(dp470
g3
F0.107388
sg4
S'Peter Bradley Adams'
p471
sg6
S'http://lh4.ggpht.com/a8Fa9Q7i4rycLE1eM29s3bV7Gt3V2RzxukJomkC-iBLM5LWidzSXuKKtR_FlzwBgtPLuD_VZ'
p472
sg8
F0.252202
sg9
S'London Bridge Is Falling Down'
p473
sg11
F128.896
sg12
F0.033243
sg13
S'f1154113-3947-32dd-9f3d-a79c74cbe761'
p474
sg15
F0.865424
sg16
I1
sg17
F0.33118
sg18
F3.0
sg19
F2011.0
sg20
F257.61914
sg21
F-12.675
sg22
S'Tjjamuw5llvnmmfqkxjxjhbbjau'
p475
sg24
F0.282439
sg25
L6L
sg26
F0.5435561165
sg27
F0.050021
sa(dp476
g3
F0.222163
sg4
g94
sg6
S'http://lh3.ggpht.com/HVYxGmED2QlDV_hdb-QEnYwxwjlsgbN9E_wv8WP5DWWc_CyuiGUPD9mWf1tw_HkYS0VIXO9otz4'
p477
sg8
F0.982031
sg9
S'Mission of Destruction (Original Mix)'
p478
sg11
F127.98
sg12
F0.432763
sg13
S'8ee92632-4c13-3665-b5e5-3363b7dbf132'
p479
sg15
F4.5e-05
sg16
I1
sg17
F0.606073
sg18
F4.0
sg19
F2012.0
sg20
F324.23138
sg21
F-2.625
sg22
S'Teudykuszgkh4fzyfxtcs65rpvq'
p480
sg24
F0.112207
sg25
L6L
sg26
F0.536887447902
sg27
F0.143952
sa(dp481
g3
F0.051441
sg4
S'The Lighthouse and the Whaler'
p482
sg6
S'http://lh6.ggpht.com/6Y676aD9vvO24OmW1U9WyXCuLYicUFreOXORn4B66M7Pqk4JY8OuG_oktWilkX1-qY_1Js-5'
p483
sg8
F0.6701
sg9
S'Pioneers'
p484
sg11
F129.979
sg12
F0.029973
sg13
S'fd369b0c-bd74-358f-830f-368997c47af7'
p485
sg15
F0.155989
sg16
I1
sg17
F0.731601
sg18
F4.0
sg19
F2012.0
sg20
F198.13288
sg21
F-7.835
sg22
S'Tqkczeltfz2hniuholf2wxelzcu'
p486
sg24
F0.570496
sg25
L6L
sg26
F0.506836887611
sg27
F0.008245
sa(dp487
g3
F0.292205
sg4
S'Ess Vee'
p488
sg6
S'http://lh5.ggpht.com/GfxHOb3v5ZOEbIZ8W3RIr3WM5KELrsTeerxbCdifLCNttn8cpscm2XUCpn_YAI4U0oLCIU2q'
p489
sg8
F0.58701
sg9
S'The Edge'
p490
sg11
F115.1
sg12
F0.153894
sg13
S'ccb38163-6338-3a62-9e32-88dbace2886e'
p491
sg15
F0.007142
sg16
I1
sg17
F0.683801
sg18
F4.0
sg19
F2011.0
sg20
F322.9561
sg21
F-8.437
sg22
S'Talukhrhdnsio7xjerljjr5fapy'
p492
sg24
F0.212445
sg25
L6L
sg26
F0.341315943912
sg27
F1e-06
sa(dp493
g3
F0.11330899999999999
sg4
S'Black Lab'
p494
sg6
S'http://lh3.ggpht.com/2CNH3MYiFockd_rFXzjGuIZqvsHb5dU2XbzAB6d7qKczxI_6C-JCyQlZYTMXRwdwQAp25zlhig'
p495
sg8
F0.491723
sg9
S'Remember'
p496
sg11
F123.909
sg12
F0.035347
sg13
S'2b60b6b3-29b2-3a54-9c20-c4f16b4f2a2f'
p497
sg15
F0.634829
sg16
I1
sg17
F0.558161
sg18
F4.0
sg19
F2011.0
sg20
F257.85637
sg21
F-8.667
sg22
S'Tanhsobxv3auczjwnghpithp22u'
p498
sg24
F0.187115
sg25
L6L
sg26
F0.495380891229
sg27
F8e-05
sa(dp499
g3
F0.174446
sg4
g494
sg6
S'http://lh5.ggpht.com/y4OvhXvSYYQdD8K_Mc2lCoJYLsNJ8cxZ-VITRQPcHeSNHUTrjpcsSVn9_t53TYVz4wppS0Uc'
p500
sg8
F0.857535
sg9
S'New Prayer'
p501
sg11
F119.996
sg12
F0.049998
sg13
S'3bd3a63a-b3f9-3ac4-b8e7-bd54426ce327'
p502
sg15
F0.004016
sg16
I1
sg17
F0.579332
sg18
F4.0
sg19
F2007.0
sg20
F279.37288
sg21
F-7.865
sg22
S'Tgi7yyh2l4deatll5jhtdxgif3a'
p503
sg24
F0.463574
sg25
L6L
sg26
F0.495380891229
sg27
F0.009496
sa(dp504
g3
F0.360479
sg4
S'Sloss Minor'
p505
sg6
g115
sg8
F0.97957
sg9
S'Suburban Commando'
p506
sg11
F122.454
sg12
F0.061382
sg13
S'e840ff35-76ec-36e3-882e-aa1225b2e6cb'
p507
sg15
F0.068836
sg16
I1
sg17
F0.573885
sg18
F4.0
sg19
F2014.0
sg20
F135.04707
sg21
F-2.309
sg22
S'Txrys5qak52ruy5v6hsudqzrcci'
p508
sg24
F0.793716
sg25
L6L
sg26
F0.38653169619
sg27
F0.000178
sa(dp509
g3
F0.114549
sg4
S'Roger Harvey'
p510
sg6
g115
sg8
F0.429131
sg9
S'Lovers Can Be Monsters (7" Version)'
p511
sg11
F113.839
sg12
F0.034359
sg13
S'00d3feea-551e-3cd2-9aee-fe89aadf6a4d'
p512
sg15
F0.000712
sg16
I1
sg17
F0.416207
sg18
F4.0
sg19
F2014.0
sg20
F142.03306
sg21
F-13.524
sg22
S'Tgrjhwxo6uqre2zitjggv4rflpq'
p513
sg24
F0.234356
sg25
L6L
sg26
F0.344159876506
sg27
F0.017189
sa(dp514
g3
F0.085899
sg4
S'Kasper Bj\xc3\xb8rke'
p515
sg6
S'http://lh5.ggpht.com/BG6aeAMMzzcY_4NrGu4DZXp6flOlaWW5IbZkjxINXEv7ixSELVwISzEFWrilJ601FHdq_7aP3w'
p516
sg8
F0.533015
sg9
S'Lies (feat. Nomi Ruiz) - Original Mix'
p517
sg11
F116.993
sg12
F0.040104
sg13
S'820e4f7b-a096-30c7-8883-aeeb7f6d5a07'
p518
sg15
F0.099882
sg16
I1
sg17
F0.765196
sg18
F4.0
sg19
F2014.0
sg20
F209.3254
sg21
F-10.321
sg22
S'T6utnfz27z4dagquwreq7tkkfga'
p519
sg24
F0.202573
sg25
L6L
sg26
F0.579305340907
sg27
F0.542207
sa(dp520
g3
F0.110476
sg4
S'Christian McBride'
p521
sg6
S'http://lh5.ggpht.com/LCb00VtXcsUotfGBuGPy2MuJExGabSdYmUHB9xhBiQ45xC-1Oa9J9tzSHl9phYRtOQQDgxw3sA'
p522
sg8
F0.176575
sg9
S'Sister Rosa (feat. Russell Malone)'
p523
sg11
F120.679
sg12
F0.044248
sg13
S'2d6643b8-74e6-3ba7-8511-5a3feaa900cc'
p524
sg15
F0.967405
sg16
I1
sg17
F0.620702
sg18
F4.0
sg19
F2011.0
sg20
F399.11955
sg21
F-21.815
sg22
S'Tzwevb4u47vtyvtlnrl7g5cnnji'
p525
sg24
F0.452645
sg25
L6L
sg26
F0.441125679892
sg27
F0.954653
sa(dp526
g3
F0.09451
sg4
S'Jonathan Wilson'
p527
sg6
S'http://lh3.ggpht.com/B-gLmlXRRj24J4LI-zn8ZfwADFYEsYloJ_jGo-tRZJWtzCuFV9bZnIHnV065aWpwLPaBJa13BQ'
p528
sg8
F0.752514
sg9
S'Love To Love'
p529
sg11
F129.758
sg12
F0.037746
sg13
S'4b1db0e6-9a91-396a-90f7-7ccb9832566e'
p530
sg15
F0.040937
sg16
I1
sg17
F0.595515
sg18
F4.0
sg19
F2013.0
sg20
F249.63955
sg21
F-7.492
sg22
S'To74rsizhh5tkfdryvwzvgh24fa'
p531
sg24
F0.78162
sg25
L6L
sg26
F0.53413194612
sg27
F0.000251
sa(dp532
g3
F0.10927
sg4
S'Amy Stroup'
p533
sg6
S'http://lh4.ggpht.com/HKMDmo2oT06iPylYMZ16YVASPB_5Pg-QIo8KBh_Iv0P09IY10YdAjmBuz-wNj9G2yAYBBAV3Gw'
p534
sg8
F0.460745
sg9
S'Love You Strongly'
p535
sg11
F130.005
sg12
F0.028483
sg13
S'91053808-43f6-3c23-8f06-b6163c8c5754'
p536
sg15
F0.888491
sg16
I1
sg17
F0.643734
sg18
F4.0
sg19
F2010.0
sg20
F219.14077
sg21
F-9.749
sg22
S'Tg2mbwgjjrbuwj4r63a3vgmtzui'
p537
sg24
F0.401846
sg25
L6L
sg26
F0.52000875725
sg27
F0.001917
sa(dp538
g3
F0.100063
sg4
g136
sg6
g137
sg8
F0.519067
sg9
S"I Won't Cry"
p539
sg11
F129.727
sg12
F0.028551
sg13
S'5c31e1bb-46a8-34eb-b987-dee436d4c7a6'
p540
sg15
F0.025822
sg16
I1
sg17
F0.372538
sg18
F4.0
sg19
F1996.0
sg20
F201.679
sg21
F-14.575
sg22
S'Tvv74bpzm7uargfyiqejikhwkeu'
p541
sg24
F0.683052
sg25
L6L
sg26
F0.250719795666
sg27
F0.053685
sa(dp542
g3
F0.122296
sg4
g136
sg6
g137
sg8
F0.559925
sg9
S'This'
p543
sg11
F114.069
sg12
F0.029072
sg13
S'32517e7c-3df6-319a-b3ce-05b27fd60ee8'
p544
sg15
F0.033489
sg16
I1
sg17
F0.46601
sg18
F4.0
sg19
F1996.0
sg20
F256.4839
sg21
F-11.873
sg22
S'Tggg5vtie6scg6jiooobh4hhplu'
p545
sg24
F0.430864
sg25
L6L
sg26
F0.250719795666
sg27
F0.092466
sa(dp546
g3
F0.156913
sg4
S'Matt Alber'
p547
sg6
S'http://lh5.ggpht.com/5yK4QuMnP6bTE6OMtN2xVvZI0D0iexVq8TDD3RheYXftWkDKmFm6TaH727TkKauVnO7jkFdG'
p548
sg8
F0.068355
sg9
S'The Stars'
p549
sg11
F129.199
sg12
F0.048055
sg13
S'17ff5efc-0778-3776-aba6-7e7ee22f7c29'
p550
sg15
F0.994858
sg16
I1
sg17
F0.414006
sg18
F4.0
sg19
F2014.0
sg20
F217.34621
sg21
F-25.168
sg22
S'Tvz2ruthdfi5dj6ycijsvumfscq'
p551
sg24
F0.287966
sg25
L6L
sg26
F0.487129948669
sg27
F0.942032
sa(dp552
g3
F0.244384
sg4
S'Staff Benda Bilili'
p553
sg6
S'http://lh5.ggpht.com/rYtd4B_jGP_6fS3ng7D4mKd8-XFQde2aw_2DGyQpIDJTnLGxsURVEgykvrSTlAv0UQ1vDZwwf_I'
p554
sg8
F0.817834
sg9
S'Osali Mabe'
p555
sg11
F127.021
sg12
F0.072031
sg13
S'104d8816-f39d-35f0-bbf2-5a312982d405'
p556
sg15
F0.079183
sg16
I1
sg17
F0.698875
sg18
F4.0
sg19
F2012.0
sg20
F232.03374
sg21
F-6.079
sg22
S'Tsws7vo2yimpsfzwcruisq7nnbu'
p557
sg24
F0.88097
sg25
L6L
sg26
F0.518222718283
sg27
F0.0002
sa(dp558
g3
F0.324613
sg4
S'Air Dubai'
p559
sg6
S'http://lh3.ggpht.com/kLCQZFf35VCIqUfbVHanpFt3y_GYVEYgR2d6WSE6K9TWTBfEsJuR6m_ko5A7P9cMMfnTBenE'
p560
sg8
F0.864317
sg9
S'Lights Down'
p561
sg11
F114.992
sg12
F0.081592
sg13
S'2cf5024b-0ab9-3b70-a17a-27a798a9ed65'
p562
sg15
F0.004886
sg16
I1
sg17
F0.655095
sg18
F4.0
sg19
F2011.0
sg20
F208.01288
sg21
F-6.263
sg22
S'T53yquv2jvwsv62e6xyg4tqulai'
p563
sg24
F0.49414
sg25
L6L
sg26
F0.527641954497
sg27
F0.004003
sa(dp564
g3
F0.096695
sg4
S'Alex Diaz'
p565
sg6
S'http://lh6.ggpht.com/-hGS7tM6u1c6mTcnQj0u60ujQCiZ7FNiiAS_iCswodOl9abv_7cr1vvH6dfjS875cEM7jggpvg'
p566
sg8
F0.658461
sg9
S'Turn Up The Music - Single'
p567
sg11
F120.087
sg12
F0.05528
sg13
S'57752be5-d40d-34e0-91a1-8761084b0313'
p568
sg15
F0.009604
sg16
I1
sg17
F0.792277
sg18
F4.0
sg19
F2012.0
sg20
F135.99955
sg21
F-6.297
sg22
S'Txhykecwuf4xfpebzgymeogflci'
p569
sg24
F0.450104
sg25
L6L
sg26
F0.347514013097
sg27
F0.732416
sa(dp570
g3
F0.105275
sg4
g160
sg6
g161
sg8
F0.639965
sg9
S'Bad Blood'
p571
sg11
F120.434
sg12
F0.039215
sg13
S'05afef5e-1265-3ca6-88c6-6558fb3bfab3'
p572
sg15
F0.12482
sg16
I1
sg17
F0.556076
sg18
F4.0
sg19
F2011.0
sg20
F201.54091
sg21
F-8.65
sg22
S'Ti5236bgipph6lq7ikcw33ly5be'
p573
sg24
F0.603304
sg25
L6L
sg26
F0.459953872927
sg27
F0.000472
sa(dp574
g3
F0.172881
sg4
S'Gemini Club'
p575
sg6
S'http://lh6.ggpht.com/wNFerksgy9fOHjUYnZ2c7UH30SaNlkEkZtFlAbs6kY0YoEGbRXV6NQkknS8L0anVO-lKlc8-Hzo'
p576
sg8
F0.654304
sg9
S'By Surprise'
p577
sg11
F127.018
sg12
F0.033182
sg13
S'c623f16e-ebc1-373b-b837-073814001865'
p578
sg15
F0.001323
sg16
I1
sg17
F0.568756
sg18
F4.0
sg19
F2012.0
sg20
F240.8224
sg21
F-8.959
sg22
S'Txc3glzhbpbgsuxgkpepuq2xcry'
p579
sg24
F0.5646
sg25
L6L
sg26
F0.490329923552
sg27
F3e-06
sa(dp580
g3
F0.124972
sg4
g166
sg6
g167
sg8
F0.750684
sg9
S"Don't Lock the Door"
p581
sg11
F128.184
sg12
F0.036437
sg13
S'b0487d03-09f5-3517-991d-823f0fe475b8'
p582
sg15
F0.35144
sg16
I1
sg17
F0.657892
sg18
F4.0
sg19
F2012.0
sg20
F204.99955
sg21
F-5.357
sg22
S'Tf5qadhnbiegsgwppouqfhc7qkm'
p583
sg24
F0.872422
sg25
L6L
sg26
F0.542871697728
sg27
F9e-06
sa(dp584
g3
F0.106905
sg4
g166
sg6
g167
sg8
F0.762372
sg9
S'Sister Ray Charles'
p585
sg11
F121.148
sg12
F0.031982
sg13
S'20af3088-1ccf-3604-910c-906958ea01e5'
p586
sg15
F0.524495
sg16
I1
sg17
F0.65495
sg18
F4.0
sg19
F2012.0
sg20
F205.03955
sg21
F-5.215
sg22
S'Tbixccshtsxq3trnlupzfzuvkqe'
p587
sg24
F0.943307
sg25
L6L
sg26
F0.542871697728
sg27
F0.001833
sa(dp588
g3
F0.180382
sg4
S'Lanterns On the Lake'
p589
sg6
S'http://lh6.ggpht.com/oZIwHKyJOvPZUCHTT4W-Fmmr2v58zyaC4q-a_N5cT9Ck0jFuTlFXOs7gVncUqz92sdyeORF6'
p590
sg8
F0.517516
sg9
S'Until The Colours Run'
p591
sg11
F123.146
sg12
F0.081285
sg13
S'22c25a3b-2bd2-3eb1-ae53-2a6108320b65'
p592
sg15
F0.430214
sg16
I1
sg17
F0.20406
sg18
F4.0
sg19
F2013.0
sg20
F330.001
sg21
F-11.474
sg22
S'T5sdaapkwowt3qoht2fmpwq5wvu'
p593
sg24
F0.16192
sg25
L6L
sg26
F0.520956071682
sg27
F0.61899
sa(dp594
g3
F0.104199
sg4
S'Kellee Maize'
p595
sg6
S'http://lh6.ggpht.com/ZwSzvHe9ncs5lqJiuRxpskmCDfnbZZf9A22vFVxXDQVpcsKMBt_ydPyG0ZTjaxcSrEujHe5QOM8'
p596
sg8
F0.744624
sg9
S'Dancing with Lightning (feat. J. Glaze)'
p597
sg11
F132.011
sg12
F0.132774
sg13
S'b4094667-6d8a-3436-b855-a439fa006010'
p598
sg15
F0.006033
sg16
I1
sg17
F0.743242
sg18
F4.0
sg19
F2014.0
sg20
F222.9541
sg21
F-3.623
sg22
S'Twfk7uhvyabpxy4s6w75uhdjwca'
p599
sg24
F0.438774
sg25
L6L
sg26
F0.466890261436
sg27
F0.000418
sa(dp600
g3
F0.138971
sg4
g595
sg6
g596
sg8
F0.762594
sg9
S'Rise (feat. the Siren)'
p601
sg11
F122.367
sg12
F0.063766
sg13
S'0a4d5dc4-262d-3727-8b69-6466bb7a24bd'
p602
sg15
F0.128966
sg16
I1
sg17
F0.370071
sg18
F1.0
sg19
F2014.0
sg20
F330.66621
sg21
F-5.758
sg22
S'Tq2kslkz4igmp63mkcigk5xmcfy'
p603
sg24
F0.240276
sg25
L6L
sg26
F0.466890261436
sg27
F3e-06
sa(dp604
g3
F0.104806
sg4
g595
sg6
g596
sg8
F0.419578
sg9
S'Indo Amnesia (feat. Nice Nate)'
p605
sg11
F122.725
sg12
F0.228955
sg13
S'3869bfb3-e2bf-3133-b1ae-e71800bf8903'
p606
sg15
F0.247868
sg16
I1
sg17
F0.507019
sg18
F4.0
sg19
F2014.0
sg20
F187.31624
sg21
F-7.673
sg22
S'Tjq5v4g5rzrlkggu2k74bvvjkj4'
p607
sg24
F0.354271
sg25
L6L
sg26
F0.466890261436
sg27
F0.044476
sa(dp608
g3
F0.119063
sg4
S'All We Are'
p609
sg6
S'http://lh3.ggpht.com/Rt_cBYIy7Cpaue907APZ9KOk-qCFCfKZFxEyeLZbHN7xB8ZrZ_YohjdGj1AXPWLAs22xwLIZaTQ'
p610
sg8
F0.493471
sg9
S'Feel Safe'
p611
sg11
F112.704
sg12
F0.054681
sg13
S'027328de-bf87-3111-b356-08a9e212f395'
p612
sg15
F0.094397
sg16
I1
sg17
F0.702557
sg18
F4.0
sg19
F2015.0
sg20
F267.25333
sg21
F-8.959
sg22
S'T6swnhixzeq3p45mt2otve5cm4e'
p613
sg24
F0.518395
sg25
L6L
sg26
F0.562163416495
sg27
F0.409503
sa(dp614
g3
F0.084266
sg4
S'Feather & Belle'
p615
sg6
g173
sg8
F0.207823
sg9
S'Rings On Fingers'
p616
sg11
F114.831
sg12
F0.030752
sg13
S'66bf66d2-79ba-352b-bd37-298a8b730f94'
p617
sg15
F0.639278
sg16
I1
sg17
F0.546866
sg18
F4.0
sg19
F2012.0
sg20
F220.75955
sg21
F-13.227
sg22
S'Tzw73pto65qpepxrubkek5ro6la'
p618
sg24
F0.224056
sg25
L6L
sg26
F0.360503634538
sg27
F0.003445
sa(dp619
g3
F0.118089
sg4
g178
sg6
g179
sg8
F0.59243
sg9
S'Murder Room'
p620
sg11
F112.571
sg12
F0.027274
sg13
S'3e1f83ef-16e5-3e2b-b8e7-b33986135929'
p621
sg15
F0.099267
sg16
I1
sg17
F0.688133
sg18
F4.0
sg19
F2011.0
sg20
F210.03955
sg21
F-5.261
sg22
S'T3vnize5v7yxb42smlk6v5lrgwa'
p622
sg24
F0.70769
sg25
L6L
sg26
F0.529591888426
sg27
F0.048345
sa(dp623
g3
F0.120294
sg4
g178
sg6
g179
sg8
F0.414351
sg9
S'Older Brother'
p624
sg11
F120.901
sg12
F0.029093
sg13
S'b96b0342-2dd6-3969-9f79-694ce77180be'
p625
sg15
F0.450605
sg16
I1
sg17
F0.574715
sg18
F4.0
sg19
F2011.0
sg20
F197.65288
sg21
F-11.148
sg22
S'Traodz3ty3w4gk7s52yoauvcwly'
p626
sg24
F0.365549
sg25
L6L
sg26
F0.529591888426
sg27
F0.00036
sa(dp627
g3
F0.221057
sg4
g178
sg6
g179
sg8
F0.783922
sg9
S'None Shall Sleep'
p628
sg11
F132.002
sg12
F0.038396
sg13
S'5a61cd74-20ae-371f-8a19-14abaebd25bf'
p629
sg15
F0.171774
sg16
I1
sg17
F0.478827
sg18
F4.0
sg19
F2011.0
sg20
F321.5912
sg21
F-7.642
sg22
S'T3ztcnmp7sm5d3e3dnmd3ptuv64'
p630
sg24
F0.117242
sg25
L6L
sg26
F0.529591888426
sg27
F0.045011
sa(dp631
g3
F0.099743
sg4
S'The Last Vegas'
p632
sg6
S'http://lh3.ggpht.com/JzDb6yUXMEl037YI_luJVbshsF2XEpzYCXLWLeVOaT7NDRVXFe4uMizqeTD0gJ_yMrJfVgJtcw'
p633
sg8
F0.867185
sg9
S'Other Side'
p634
sg11
F131.923
sg12
F0.067159
sg13
S'd72e32bb-017b-3aae-9083-17fd3188e756'
p635
sg15
F0.001513
sg16
I1
sg17
F0.537049
sg18
F4.0
sg19
F2011.0
sg20
F187.25333
sg21
F-6.479
sg22
S'Td2kx5scm3f4xgaa3nymtsrhbxi'
p636
sg24
F0.677895
sg25
L6L
sg26
F0.493533822468
sg27
F0.000108
sa(dp637
g3
F0.015867
sg4
S'Joe K'
p638
sg6
S'http://lh5.ggpht.com/sStRtu6sxGvQdmvCZu2TXqmAR8tPLZXKcQKDOHHB_ILFjl-Q30T8Hj6QceoJULTVso_rGkbRxw'
p639
sg8
F0.950909
sg9
S'Back to Salvador (Back to the 2003 original mix)'
p640
sg11
F128.0
sg12
F0.064321
sg13
S'f1bb0b10-cbd8-39a5-b106-3be6f1cc34bd'
p641
sg15
F0.000128
sg16
I1
sg17
F0.701111
sg18
F4.0
sg19
F2010.0
sg20
F377.41669
sg21
F-8.966
sg22
S'Ts4jqvlh7nktsfzafnoytakoikq'
p642
sg24
F0.469967
sg25
L6L
sg26
F0.431659383237
sg27
F0.867934
sa(dp643
g3
F0.138491
sg4
S'Icebird'
p644
sg6
S'http://lh3.ggpht.com/29JsN9XVfLVNExr9ggDSMZ-uLu5wxBbEa9LcMnkGjRDdQa43k1bpqp7Hnt8rDaHt2bPo233IYA'
p645
sg8
F0.820941
sg9
S'Going and Going. and Going. (Feat. rjd2 & Aaron Livingston)'
p646
sg11
F125.882
sg12
F0.096385
sg13
S'c036b465-74c9-3c3e-b15c-be59b7caad8f'
p647
sg15
F0.028226
sg16
I1
sg17
F0.586116
sg18
F4.0
sg19
F2011.0
sg20
F258.87955
sg21
F-7.261
sg22
S'Tv4ln7on3mknzkproqmdpu2r7q4'
p648
sg24
F0.157252
sg25
L6L
sg26
F0.460081479025
sg27
F0.00132
sa(dp649
g3
F0.687127
sg4
S'NO'
p650
sg6
S'http://lh4.ggpht.com/4gJ7N0ymXT-wOMNL6wMcdHVspECyQeLNmA4cliJkBvWYY5I5FQZS_ps2MvxZfZsk86Z-Ls8i5Rg'
p651
sg8
F0.892588
sg9
S'Big Waves'
p652
sg11
F130.982
sg12
F0.035805
sg13
S'6def7a01-dcfa-3acb-8a9c-4ceaf8f79bf1'
p653
sg15
F0.001438
sg16
I1
sg17
F0.536296
sg18
F4.0
sg19
F2011.0
sg20
F203.65288
sg21
F-4.903
sg22
S'Tmln7udllx5vg6y2jg2ixmjacri'
p654
sg24
F0.321535
sg25
L6L
sg26
F0.450018983089
sg27
F0.018707
sa(dp655
g3
F0.068422
sg4
g190
sg6
g191
sg8
F0.841297
sg9
S'Dc On Tha Rise'
p656
sg11
F130.024
sg12
F0.162462
sg13
S'215d9561-02ec-383d-9413-7e4ebf3a34d9'
p657
sg15
F0.011345
sg16
I1
sg17
F0.822194
sg18
F4.0
sg19
F2013.0
sg20
F313.92762
sg21
F-4.731
sg22
S'Ta42tigndexl6pwdql6ccaztd6e'
p658
sg24
F0.705009
sg25
L6L
sg26
F0.334559809193
sg27
F6e-06
sa(dp659
g3
F0.062096
sg4
g190
sg6
g191
sg8
F0.895992
sg9
S'2095'
p660
sg11
F120.023
sg12
F0.083357
sg13
S'5de0da1b-6289-32f8-b7a9-0b267b868ba0'
p661
sg15
F0.026029
sg16
I1
sg17
F0.861372
sg18
F4.0
sg19
F2013.0
sg20
F202.38476
sg21
F-6.0
sg22
S'Tf6i2vfmoc6qgv7ola4msntxk5m'
p662
sg24
F0.844714
sg25
L6L
sg26
F0.334559809193
sg27
F2.3e-05
sa(dp663
g3
F0.109705
sg4
S'Borntrippy'
p664
sg6
S'http://lh6.ggpht.com/M5j79Pfi7HTUiFyVpbt72uAVs9Ol4X2lrRvF4BkmVHKLhqqsWVXL1sx7yUC4K4lg9d6kgkiT_A'
p665
sg8
F0.498794
sg9
S'Been Grey for a While (Short Static Mix)'
p666
sg11
F120.058
sg12
F0.084642
sg13
S'ce2b5356-75cb-317b-b7b4-ba93dca82bf6'
p667
sg15
F0.255043
sg16
I1
sg17
F0.525283
sg18
F4.0
sg19
F2007.0
sg20
F226.71628
sg21
F-14.77
sg22
S'T35zazqwszezdxxurt47tbd4bwu'
p668
sg24
F0.134436
sg25
L6L
sg26
F0.275994516708
sg27
F0.117128
sa(dp669
g3
F0.183982
sg4
g664
sg6
g665
sg8
F0.92687
sg9
S'Been Grey for a While (This Side of the White Mix)'
p670
sg11
F120.011
sg12
F0.069701
sg13
S'9e70bcfa-de74-31ea-af7a-f1f814a46464'
p671
sg15
F0.002914
sg16
I1
sg17
F0.560592
sg18
F4.0
sg19
F2007.0
sg20
F384.05955
sg21
F-10.24
sg22
S'T5fbazc3sn3l54zgsmqjj6hm3c4'
p672
sg24
F0.200814
sg25
L6L
sg26
F0.275994516708
sg27
F0.729275
sa(dp673
g3
F0.28922
sg4
g664
sg6
g665
sg8
F0.355618
sg9
S'Gift for the Aliens (Musicbox On Mars Mix)'
p674
sg11
F130.011
sg12
F0.049048
sg13
S'dde5d8fa-fa9d-3295-95f6-aa559b968df8'
p675
sg15
F0.501348
sg16
I1
sg17
F0.484562
sg18
F4.0
sg19
F2007.0
sg20
F373.02812
sg21
F-16.241
sg22
S'Tuukg76pstwbjxr2sydu4s4pgze'
p676
sg24
F0.047855
sg25
L6L
sg26
F0.275994516708
sg27
F0.355826
sa(dp677
g3
F0.083979
sg4
g664
sg6
g665
sg8
F0.42053
sg9
S'The View from My Cave'
p678
sg11
F119.412
sg12
F0.062771
sg13
S'21b50bb5-2ad3-3fd9-a85a-564041e80eb2'
p679
sg15
F0.515845
sg16
I1
sg17
F0.387715
sg18
F4.0
sg19
F2007.0
sg20
F308.79556
sg21
F-14.577
sg22
S'T32caeb6f7mh5utozsw67kqs6hu'
p680
sg24
F0.08391
sg25
L6L
sg26
F0.275994516708
sg27
F0.821236
sa(dp681
g3
F0.045368
sg4
S'No Sports'
p682
sg6
S'http://lh6.ggpht.com/D3b5GOPzF3g79PeTOw4JfGdMU38SdZzzKcnoIcTjbaOsVxPWP3768UXHnzLiFfrvIr1idGjblg'
p683
sg8
F0.803217
sg9
S'Five'
p684
sg11
F126.114
sg12
F0.05286
sg13
S'ae0d13c2-3967-3319-9888-129386df69a5'
p685
sg15
F0.239295
sg16
I1
sg17
F0.808899
sg18
F4.0
sg19
F2014.0
sg20
F224.09288
sg21
F-11.22
sg22
S'Twh6xjl2eu3csylwg6ienmzm5tq'
p686
sg24
F0.583269
sg25
L6L
sg26
F0.450211472637
sg27
F0.00018
sa(dp687
g3
F0.09374
sg4
S'Junior Astronomers'
p688
sg6
S'http://lh5.ggpht.com/thw_LycE-nJZT0ZN1hv_JihPmRV9Iio6iJvM1y4aHQgtxPJLJYx_uCMm905z9fG_ZMzZnpfXtw'
p689
sg8
F0.872174
sg9
S'Settle Down'
p690
sg11
F133.418
sg12
F0.099492
sg13
S'09179a3a-7b98-3090-8802-b6235b95a5fc'
p691
sg15
F0.004322
sg16
I1
sg17
F0.307852
sg18
F4.0
sg19
F2010.0
sg20
F277.81179
sg21
F-5.954
sg22
S'Tb3py4hmwfsbkaoqxtx3sywys3u'
p692
sg24
F0.486609
sg25
L6L
sg26
F0.447664281579
sg27
F0.782821
sa(dp693
g3
F0.071978
sg4
S'The Alpine Treeline'
p694
sg6
S'http://lh4.ggpht.com/ln60X0Gp3CSbt8b-AtVzMPiFNj5BG0Be9VMAjHL9DaRi0jDc-I64kkYY32VYuHUY-aegE3Y'
p695
sg8
F0.598046
sg9
S'Tomorrow Morning'
p696
sg11
F115.003
sg12
F0.028543
sg13
S'61c1ff39-f635-32da-ae6a-f45dd77f182c'
p697
sg15
F0.002608
sg16
I1
sg17
F0.618935
sg18
F4.0
sg19
F2013.0
sg20
F268.11315
sg21
F-5.863
sg22
S'Tvacsevwp4xdauwva2mndxbrbka'
p698
sg24
F0.2862
sg25
L6L
sg26
F0.247097634462
sg27
F1e-06
sa(dp699
g3
F0.119086
sg4
g694
sg6
g695
sg8
F0.824322
sg9
S'Character in Disguise'
p700
sg11
F113.346
sg12
F0.057375
sg13
S'3eb8372c-834b-3375-9b86-570625a16b70'
p701
sg15
F0.017828
sg16
I1
sg17
F0.358646
sg18
F4.0
sg19
F2013.0
sg20
F375.3171
sg21
F-6.094
sg22
S'Teq5z7eg3t4e752myhqjh5snsb4'
p702
sg24
F0.176947
sg25
L6L
sg26
F0.247097634462
sg27
F8e-06
sa(dp703
g3
F0.065683
sg4
g211
sg6
g212
sg8
F0.800793
sg9
S'Donut'
p704
sg11
F120.006
sg12
F0.048956
sg13
S'96dd33d8-3504-36d6-87bb-7b4ab645c0e9'
p705
sg15
F0.005965
sg16
I1
sg17
F0.65533
sg18
F4.0
sg19
F2014.0
sg20
F187.99955
sg21
F-8.332
sg22
S'Tpu7fyswygogmgb6fcaqpzdzwpm'
p706
sg24
F0.320552
sg25
L6L
sg26
F0.386389068806
sg27
F0.917378
sa(dp707
g3
F0.101975
sg4
g211
sg6
g212
sg8
F0.362561
sg9
S'Cupcake'
p708
sg11
F130.01
sg12
F0.054822
sg13
S'16b35adf-e507-3c00-817f-715436a8a545'
p709
sg15
F0.806342
sg16
I1
sg17
F0.796049
sg18
F4.0
sg19
F2014.0
sg20
F275.23029
sg21
F-11.97
sg22
S'Tnekbprtg2if7aiy7a3q45bpqzu'
p710
sg24
F0.115483
sg25
L6L
sg26
F0.386389068806
sg27
F0.92179
sa(dp711
g3
F0.186867
sg4
g211
sg6
g212
sg8
F0.587844
sg9
S'Jelly Bean'
p712
sg11
F120.346
sg12
F0.148485
sg13
S'baeb6c12-bcb5-37f6-a4f4-c44752877eb1'
p713
sg15
F0.000298
sg16
I1
sg17
F0.445084
sg18
F4.0
sg19
F2014.0
sg20
F240.07955
sg21
F-11.722
sg22
S'Tt7ca5rna7n7b2k2rnjalqqwdbe'
p714
sg24
F0.198204
sg25
L6L
sg26
F0.386389068806
sg27
F0.019839
sa(dp715
g3
F0.09088
sg4
g211
sg6
g212
sg8
F0.620872
sg9
S'Ice Cream Sandwich'
p716
sg11
F122.951
sg12
F0.057486
sg13
S'e20cb175-ae5a-3c11-9014-0ac5edeb825f'
p717
sg15
F0.044317
sg16
I1
sg17
F0.746732
sg18
F4.0
sg19
F2014.0
sg20
F206.87755
sg21
F-13.161
sg22
S'T6h66mxvcwosts6kbkwrmo2ow6a'
p718
sg24
F0.170725
sg25
L6L
sg26
F0.386389068806
sg27
F0.892912
sa(dp719
g3
F0.088407
sg4
g211
sg6
g212
sg8
F0.49325
sg9
S'Eclair'
p720
sg11
F119.997
sg12
F0.044385
sg13
S'7469c7cf-f266-39e9-813c-7a14b1c3cb6b'
p721
sg15
F0.006906
sg16
I1
sg17
F0.710409
sg18
F4.0
sg19
F2014.0
sg20
F197.99955
sg21
F-12.145
sg22
S'Ttvi7q6m3utv2r4ljnkhjy46bv4'
p722
sg24
F0.366366
sg25
L6L
sg26
F0.386389068806
sg27
F0.848465
sa(dp723
g3
F0.089746
sg4
g217
sg6
g218
sg8
F0.019779
sg9
S'"Opening" from Lightly Baked'
p724
sg11
F122.711
sg12
F0.042941
sg13
S'fa684f03-4777-385f-8326-9fb80331630c'
p725
sg15
F0.248628
sg16
I1
sg17
F0.201306
sg18
F4.0
sg19
F2008.0
sg20
F128.94621
sg21
F-30.64
sg22
S'Taxx3gt26fcfsoftfwgg2ysw6wa'
p726
sg24
F0.029683
sg25
L6L
sg26
F0.273430095496
sg27
F0.69325
sa(dp727
g3
F0.107243
sg4
g217
sg6
g218
sg8
F0.043597
sg9
S'"End Credits" from Inversion'
p728
sg11
F119.672
sg12
F0.058622
sg13
S'9ce0876a-e64b-3bd1-8152-062aada9bb44'
p729
sg15
F0.50348
sg16
I1
sg17
F0.210261
sg18
F4.0
sg19
F2008.0
sg20
F62.39955
sg21
F-25.695
sg22
S'Tp5hlfczrcvazqig6xasg7q6g6e'
p730
sg24
F0.035887
sg25
L6L
sg26
F0.273430095496
sg27
F0.925754
sa(dp731
g3
F0.198817
sg4
g217
sg6
g218
sg8
F0.407223
sg9
g327
sg11
F113.017
sg12
F0.072577
sg13
S'4247bfb9-8db5-3156-914b-077243f4777a'
p732
sg15
F0.00152
sg16
I1
sg17
F0.714951
sg18
F4.0
sg19
F2008.0
sg20
F74.77288
sg21
F-16.247
sg22
S'Tosnbfwgzwnotybf5ntzbmfqj4a'
p733
sg24
F0.276962
sg25
L6L
sg26
F0.273430095496
sg27
F0.908448
sa(dp734
g3
F0.313635
sg4
g231
sg6
g232
sg8
F0.646203
sg9
S'Act 0 - The Premonition (Main Menu)'
p735
sg11
F115.091
sg12
F0.047807
sg13
S'179911d9-3f87-30b4-a6e9-0722e9d91f09'
p736
sg15
F0.087419
sg16
I1
sg17
F0.240308
sg18
F3.0
sg19
F2014.0
sg20
F192.98063
sg21
F-9.894
sg22
S'Tqxsl6yux5myrkd5nycxkyjmlhm'
p737
sg24
F0.156782
sg25
L6L
sg26
F0.462929240542
sg27
F0.682931
sa(dp738
g3
F0.072521
sg4
g231
sg6
g232
sg8
F0.14848
sg9
S'Act 0 - Initialize'
p739
sg11
F116.487
sg12
F0.068299
sg13
S'24909fdc-1455-3a41-a2c9-fd2b1a01b082'
p740
sg15
F0.422881
sg16
I1
sg17
F0.325044
sg18
F3.0
sg19
F2014.0
sg20
F68.25469
sg21
F-22.289
sg22
S'Tixxqx7ycv63is7wwgan4c7aixm'
p741
sg24
F0.069321
sg25
L6L
sg26
F0.462929240542
sg27
F0.894758
sa(dp742
g3
F0.10044
sg4
g231
sg6
g232
sg8
F0.06401
sg9
S'Act 1 - A Pale Horse'
p743
sg11
F119.644
sg12
F0.050671
sg13
S'7fe428e5-d310-3588-bd19-d19bdfdd55ad'
p744
sg15
F0.821316
sg16
I1
sg17
F0.326761
sg18
F4.0
sg19
F2014.0
sg20
F128.99859
sg21
F-22.984
sg22
S'Tawulqowx264rzz22xnitkcwuve'
p745
sg24
F0.024199
sg25
L6L
sg26
F0.462929240542
sg27
F0.910164
sa(dp746
g3
F0.099077
sg4
g231
sg6
g232
sg8
F0.204548
sg9
S'Act 1 - Dilatation'
p747
sg11
F120.099
sg12
F0.057668
sg13
S'6b8cb65e-78e5-3f62-a663-4d055ed5c2c7'
p748
sg15
F0.567085
sg16
I1
sg17
F0.487259
sg18
F4.0
sg19
F2014.0
sg20
F96.76717
sg21
F-24.48
sg22
S'Tioirqofn4qfrjljllcnydw5km4'
p749
sg24
F0.06047
sg25
L6L
sg26
F0.462929240542
sg27
F0.957984
sa(dp750
g3
F0.11159
sg4
g231
sg6
g232
sg8
F0.413749
sg9
S'Act 1 - Blindspots'
p751
sg11
F113.927
sg12
F0.045526
sg13
S'aa055e01-9760-3b7a-a6ab-213e85e42e98'
p752
sg15
F0.627668
sg16
I1
sg17
F0.231185
sg18
F4.0
sg19
F2014.0
sg20
F254.68635
sg21
F-19.449
sg22
S'Tcouylb7m7sodikl3wkrpiealtu'
p753
sg24
F0.055696
sg25
L6L
sg26
F0.462929240542
sg27
F0.933112
sa(dp754
g3
F0.111478
sg4
g231
sg6
g232
sg8
F0.23169
sg9
S'Act 1 - Interference'
p755
sg11
F125.54
sg12
F0.049151
sg13
S'b89de755-1283-316c-80a9-c0ddd855504c'
p756
sg15
F0.013066
sg16
I1
sg17
F0.234742
sg18
F4.0
sg19
F2014.0
sg20
F192.63855
sg21
F-21.163
sg22
S'Tg67qyqstt367r2xjljgjmykw2q'
p757
sg24
F0.039386
sg25
L6L
sg26
F0.462929240542
sg27
F0.836778
sa(dp758
g3
F0.286727
sg4
g237
sg6
g238
sg8
F0.7389
sg9
S'Beat Hack'
p759
sg11
F130.08
sg12
F0.282979
sg13
S'19917937-8961-3eb0-b41d-025d18b48011'
p760
sg15
F0.188703
sg16
I1
sg17
F0.821577
sg18
F4.0
sg19
F2013.0
sg20
F265.78395
sg21
F-8.239
sg22
S'Ttjfulzjpnoacsrftih7zbrknci'
p761
sg24
F0.728783
sg25
L6L
sg26
F0.252932913188
sg27
F0.065271
saa(lp762
(dp763
g3
F0.102569
sg4
S'Rozina P\xc3\xa1tkai'
p764
sg6
g34
sg8
F0.202763
sg9
S'El Hombre Que Yo Ame (The Man I Love) - Jazz With Vocals Song'
p765
sg11
F85.308
sg12
F0.03079
sg13
S'b6b5782c-25ee-3c69-aa1d-ac6ddd99644e'
p766
sg15
F0.783143
sg16
I2
sg17
F0.301503
sg18
F3.0
sg19
F2014.0
sg20
F349.67465
sg21
F-12.222
sg22
S'T74s5lc6b4666zcrxfb2z4bpivq'
p767
sg24
F0.18832
sg25
L6L
sg26
F0.377197739029
sg27
F0.000201
sa(dp768
g3
F0.080997
sg4
S'Chris Kelsey & What I Say'
p769
sg6
g34
sg8
F0.534603
sg9
S'Sivad - Tribute Album'
p770
sg11
F81.207
sg12
F0.107646
sg13
S'6eeee237-ef73-3475-880a-392a9ad7b9fc'
p771
sg15
F0.099222
sg16
I2
sg17
F0.448401
sg18
F4.0
sg19
F2014.0
sg20
F1074.20689
sg21
F-10.038
sg22
S'Thjlpiqx2a5sj7cjw7o5iuobwfu'
p772
sg24
F0.75994
sg25
L6L
sg26
F0.243608528334
sg27
F0.120631
sa(dp773
g3
F0.079365
sg4
S'Rabbit Rabbit'
p774
sg6
g34
sg8
F0.140309
sg9
S'After the Storm - Eclectic Song'
p775
sg11
F83.415
sg12
F0.0323
sg13
S'737d6d7c-09de-31b8-a8e7-a00cbeee32bc'
p776
sg15
F0.913889
sg16
I2
sg17
F0.452551
sg18
F4.0
sg19
F2014.0
sg20
F167.47057
sg21
F-12.968
sg22
S'Tdejvs6seonvxhdilfrt5v2zpqy'
p777
sg24
F0.137714
sg25
L6L
sg26
F0.426769848505
sg27
F0.000725
sa(dp778
g3
F0.297054
sg4
S'Alejandro Escuer'
p779
sg6
g34
sg8
F0.290651
sg9
S'C\xc3\xb3digos Secretos - Contemporary Classical Album'
p780
sg11
F66.403
sg12
F0.101
sg13
S'7620e99b-128a-3e75-b2eb-b611c728ed1a'
p781
sg15
F0.907753
sg16
I2
sg17
F0.236022
sg18
F5.0
sg19
F2014.0
sg20
F465.60608
sg21
F-20.195
sg22
S'Tanyez6vrlc42lgofvzvy7laane'
p782
sg24
F0.065556
sg25
L6L
sg26
F0.252243707039
sg27
F0.068738
sa(dp783
g3
F0.092916
sg4
S'Kelley James'
p784
sg6
g34
sg8
F0.859017
sg9
S'Marinade - Pop Album'
p785
sg11
F86.098
sg12
F0.047947
sg13
S'1cf33da8-84cf-3639-b539-f1130cdbc6d0'
p786
sg15
F0.265941
sg16
I2
sg17
F0.660757
sg18
F4.0
sg19
F2014.0
sg20
F206.44526
sg21
F-6.908
sg22
S'Tooucsztlphoqtvxsdqycaezr6m'
p787
sg24
F0.79224
sg25
L6L
sg26
F0.436224416742
sg27
F1.2e-05
sa(dp788
g3
F0.065932
sg4
S'Rimes'
p789
sg6
S'http://lh4.ggpht.com/lf0N2Zku-ns5DiaVkKwSj7v36mQ5fWB2B4P5dAcfX4Ix0XY02sVkvP3Tovtj7chPIdTTa7-Xgw'
p790
sg8
F0.533767
sg9
S'Wasted Days And Wasted Nights'
p791
sg11
F82.418
sg12
F0.023963
sg13
S'131fdeef-c2f1-30c7-a816-79069193af9a'
p792
sg15
F0.20243
sg16
I2
sg17
F0.633677
sg18
F4.0
sg19
F2012.0
sg20
F246.93288
sg21
F-6.097
sg22
S'Thuht253jo2nkuoxjjauplfn5zi'
p793
sg24
F0.401249
sg25
L6L
sg26
F0.40997164097
sg27
F1.6e-05
sa(dp794
g3
F0.083872
sg4
g217
sg6
g326
sg8
F0.039854
sg9
S'"Last Dance" from Insignia'
p795
sg11
F62.519
sg12
F0.043539
sg13
S'd30909a0-db68-3d4a-a929-35ef9c41e09e'
p796
sg15
F0.912285
sg16
I2
sg17
F0.203489
sg18
F4.0
sg19
F2006.0
sg20
F42.10621
sg21
F-25.057
sg22
S'Ts74odiqhcshckaczkh72a7kasm'
p797
sg24
F0.098357
sg25
L6L
sg26
F0.273430095496
sg27
F0.175082
sa(dp798
g3
F0.14579
sg4
g217
sg6
g326
sg8
F0.028413
sg9
S'"Hands In Blood" from Insignia'
p799
sg11
F73.345
sg12
F0.040851
sg13
S'e42fc942-8835-3afb-b03d-75d5ac6644a3'
p800
sg15
F0.981716
sg16
I2
sg17
F0.084938
sg18
F3.0
sg19
F2006.0
sg20
F67.14621
sg21
F-28.263
sg22
S'Tgcfz7jyob2gu76icfoh6ynbcqi'
p801
sg24
F0.019146
sg25
L6L
sg26
F0.273430095496
sg27
F0.985107
sa(dp802
g3
F0.073908
sg4
S'Valentina Lisitsa'
p803
sg6
S'http://lh5.ggpht.com/BFO4tfaAvTI_lRpHONPZeng3gPXOO8-rqYcTQcoLgxAfpuj4vFo31HpXh58G82fz4kUhQdQuzQo'
p804
sg8
F0.017179
sg9
S'Ellens Gesang III (Ave Maria)  S558 no.12 (after Schubert\xe2\x80\x99s D839)'
p805
sg11
F81.851
sg12
F0.036504
sg13
S'b2f22c1c-b12f-3125-a86c-696f12950412'
p806
sg15
F0.992143
sg16
I2
sg17
F0.198088
sg18
F3.0
sg19
F2011.0
sg20
F331.81288
sg21
F-29.981
sg22
S'Tbvamxp53ufufmnhqlzduqggfz4'
p807
sg24
F0.038902
sg25
L6L
sg26
F0.559777263004
sg27
F0.926795
sa(dp808
g3
F0.150731
sg4
g343
sg6
g344
sg8
F0.858754
sg9
S'To The Beat Of Our Noisy Hearts'
p809
sg11
F76.02
sg12
F0.061065
sg13
S'7c55df05-3cf5-3269-a6c4-9d1004b4a2e5'
p810
sg15
F0.000719
sg16
I2
sg17
F0.588833
sg18
F4.0
sg19
F2011.0
sg20
F181.89288
sg21
F-4.465
sg22
S'T3ft2zqjexcsg4n6cpdpwqlj4aa'
p811
sg24
F0.659838
sg25
L6L
sg26
F0.499727972349
sg27
F7e-06
sa(dp812
g3
F0.075545
sg4
S'San Fermin'
p813
sg6
S'http://lh6.ggpht.com/RGT_JMEK5jFKzFsXPX0Ox5Hqk-3f8AEwnXBUZwOHHv8mLWMVwF0cUMiqcYv-_TiHfsZ5I76_'
p814
sg8
F0.616872
sg9
S'Sonsick'
p815
sg11
F74.029
sg12
F0.064726
sg13
S'd3bdcf44-ea5d-33b7-be84-de42ecd8e60d'
p816
sg15
F0.017306
sg16
I2
sg17
F0.462577
sg18
F4.0
sg19
F2013.0
sg20
F273.37601
sg21
F-8.593
sg22
S'Tklm4dcphrupovws5kyeseyzvka'
p817
sg24
F0.527527
sg25
L6L
sg26
F0.50060709663
sg27
F2.9e-05
sa(dp818
g3
F0.089518
sg4
g76
sg6
g376
sg8
F0.260017
sg9
S'Deeper'
p819
sg11
F88.036
sg12
F0.057939
sg13
S'f77b2a20-fddb-36b5-aa09-142cbf5390b1'
p820
sg15
F0.106969
sg16
I2
sg17
F0.773756
sg18
F4.0
sg19
F2011.0
sg20
F225.17506
sg21
F-18.455
sg22
S'Tnqlagmnu2behg4olm5hkjo7awu'
p821
sg24
F0.769306
sg25
L6L
sg26
F0.415381464026
sg27
F0.006053
sa(dp822
g3
F0.279192
sg4
g76
sg6
g415
sg8
F0.355198
sg9
S'Hangover'
p823
sg11
F88.255
sg12
F0.081615
sg13
S'6700324e-35c4-3d00-8356-7a59bc149af8'
p824
sg15
F0.747004
sg16
I2
sg17
F0.512707
sg18
F4.0
sg19
F2010.0
sg20
F528.50893
sg21
F-16.325
sg22
S'Teihafjesqcvrfiomn5gvp4mmsa'
p825
sg24
F0.379441
sg25
L6L
sg26
F0.415381464026
sg27
F0.031291
sa(dp826
g3
F0.183813
sg4
g76
sg6
g415
sg8
F0.272611
sg9
S'Turn & Dub'
p827
sg11
F90.98
sg12
F0.042545
sg13
S'0da43a36-f019-3fbc-bde9-50ac1fd54808'
p828
sg15
F0.451601
sg16
I2
sg17
F0.463462
sg18
F4.0
sg19
F2010.0
sg20
F641.56689
sg21
F-21.349
sg22
S'Tdljeivdexuvhf4dhkynpii7qzq'
p829
sg24
F0.35678
sg25
L6L
sg26
F0.415381464026
sg27
F0.440392
sa(dp830
g3
F0.830528
sg4
g76
sg6
g415
sg8
F0.419735
sg9
S"Can't You Hear Me Knocking"
p831
sg11
F76.738
sg12
F0.033052
sg13
S'895b8022-36dc-3731-b695-f01af7f175cf'
p832
sg15
F0.600867
sg16
I2
sg17
F0.502976
sg18
F4.0
sg19
F2010.0
sg20
F598.04689
sg21
F-18.35
sg22
S'Ttujmvyh3wr3oum7vfuuxpl7fiy'
p833
sg24
F0.764377
sg25
L6L
sg26
F0.415381464026
sg27
F0.413587
sa(dp834
g3
F0.045516
sg4
g426
sg6
g427
sg8
F0.285891
sg9
S'Jeans'
p835
sg11
F85.915
sg12
F0.146776
sg13
S'de13eb15-96b2-3685-ab57-4f8a3ca1d024'
p836
sg15
F0.58492
sg16
I2
sg17
F0.598226
sg18
F4.0
sg19
F2011.0
sg20
F205.05288
sg21
F-10.48
sg22
S'Tscwudgti7z65qnkwlanepni4hy'
p837
sg24
F0.836654
sg25
L6L
sg26
F0.491559266938
sg27
F5e-06
sa(dp838
g3
F0.107502
sg4
g432
sg6
Fnan
sg8
F0.412081
sg9
S'Not For Sale'
p839
sg11
F90.021
sg12
F0.033248
sg13
S'b637f25d-168d-345c-ae87-907a1fa31848'
p840
sg15
F0.000214
sg16
I2
sg17
F0.545928
sg18
F4.0
sg19
F2009.0
sg20
F271.99955
sg21
F-14.907
sg22
S'Txxkxkboomhpfmediss2vr66l74'
p841
sg24
F0.658094
sg25
L6L
sg26
F0.259683304522
sg27
F0.000504
sa(dp842
g3
F0.04213
sg4
g432
sg6
Fnan
sg8
F0.421439
sg9
S'Careless Love'
p843
sg11
F87.029
sg12
F0.026144
sg13
S'c2d5a4db-5e10-3baf-a355-946e96c8142d'
p844
sg15
F0.114678
sg16
I2
sg17
F0.571095
sg18
F4.0
sg19
F2009.0
sg20
F212.19955
sg21
F-12.277
sg22
S'T6k3r2qfum3rnim7b5twjtrbpvq'
p845
sg24
F0.381393
sg25
L6L
sg26
F0.259683304522
sg27
F0.424984
sa(dp846
g3
F0.369975
sg4
g82
sg6
g83
sg8
F0.143808
sg9
S'Giving Up (Live)'
p847
sg11
F90.091
sg12
F0.051942
sg13
S'536a310c-dac2-3a5b-8199-3faaa53356c1'
p848
sg15
F0.940496
sg16
I2
sg17
F0.438949
sg18
F4.0
sg19
F2011.0
sg20
F234.00259
sg21
F-17.902
sg22
S'Tpfodevgnq5x34cfeh7if7gxu7m'
p849
sg24
F0.211327
sg25
L6L
sg26
F0.261711676507
sg27
F3.3e-05
sa(dp850
g3
F0.239625
sg4
g88
sg6
g89
sg8
F0.096786
sg9
S"Jaco's Serenade"
p851
sg11
F81.016
sg12
F0.032607
sg13
S'6c1136c6-087e-34d9-b46e-e974cecc1e8f'
p852
sg15
F0.844797
sg16
I2
sg17
F0.239031
sg18
F4.0
sg19
F2011.0
sg20
F255.99955
sg21
F-21.513
sg22
S'Tqwu2ucdi326baifzel3n37dptm'
p853
sg24
F0.130409
sg25
L6L
sg26
F0.269127343221
sg27
F0.864139
sa(dp854
g3
F0.121055
sg4
S'Wake Owl'
p855
sg6
S'http://lh5.ggpht.com/EsL-UDWxMdD-c2P0UjqVCzWyfLzwhkhk5DHK0jQtG2zfIEgL2z1qKH7gyv4sqUaDgJCphw-0'
p856
sg8
F0.590055
sg9
S'Gold'
p857
sg11
F86.042
sg12
F0.029587
sg13
S'9dcc9b10-1f9a-3ec7-8881-747fea019678'
p858
sg15
F0.111321
sg16
I2
sg17
F0.484962
sg18
F4.0
sg19
F2013.0
sg20
F224.04027
sg21
F-9.021
sg22
S'Txjgdniq6kftbjc2ltl6jhezt7i'
p859
sg24
F0.439051
sg25
L6L
sg26
F0.52529093909
sg27
F0.000866
sa(dp860
g3
F0.061049
sg4
S'Blaxy Girls'
p861
sg6
S'http://lh5.ggpht.com/MbNGczpvDfqg4Ifgq65yA0M5o6SCgjb8ts4hqgGUDoZijP4lYYe1GaJK88ti3MLL855oZ_A6NA'
p862
sg8
F0.824839
sg9
S'Leaga-Ma la ochi'
p863
sg11
F83.059
sg12
F0.033386
sg13
S'b50d440a-62b5-3b23-abee-cf675ebe7469'
p864
sg15
F0.084896
sg16
I2
sg17
F0.654004
sg18
F4.0
sg19
F2014.0
sg20
F187.06671
sg21
F-5.631
sg22
S'T7ylkvri4ieigroidplqajhg7jq'
p865
sg24
F0.946057
sg25
L6L
sg26
F0.508299106973
sg27
F0.000315
sa(dp866
g3
F0.213055
sg4
S'Chris Stowe'
p867
sg6
g115
sg8
F0.208904
sg9
S'Blood Drinkers'
p868
sg11
F82.709
sg12
F0.037317
sg13
S'1cf4c851-b7e5-3687-a3f3-29e081e75395'
p869
sg15
F0.245326
sg16
I2
sg17
F0.502858
sg18
F4.0
sg19
F2014.0
sg20
F202.42726
sg21
F-13.449
sg22
S'Twikqrkkrurt7cj25qjmtu7ausu'
p870
sg24
F0.143724
sg25
L6L
sg26
F0.349826682618
sg27
F3e-05
sa(dp871
g3
F0.106684
sg4
S'Major Games'
p872
sg6
g115
sg8
F0.777194
sg9
S'Life'
p873
sg11
F77.593
sg12
F0.097669
sg13
S'8a3cd20d-9700-394b-9d3c-e599d88ad968'
p874
sg15
F0.001128
sg16
I2
sg17
F0.156996
sg18
F4.0
sg19
F2014.0
sg20
F245.77429
sg21
F-7.261
sg22
S'Tntrw23gxfkn3vvzzo4rlah6vbi'
p875
sg24
F0.041745
sg25
L6L
sg26
F0.292518234123
sg27
F0.859897
sa(dp876
g3
F0.359435
sg4
S'Tangled Hair'
p877
sg6
g115
sg8
F0.60076
sg9
S'Forty Winks'
p878
sg11
F89.224
sg12
F0.044496
sg13
S'8f074b34-c314-3281-93ee-9f7579e4b2fb'
p879
sg15
F0.598343
sg16
I2
sg17
F0.563303
sg18
F3.0
sg19
F2014.0
sg20
F226.2722
sg21
F-10.913
sg22
S'Ttqiyph6o5egepepvm7gp7ih5aa'
p880
sg24
F0.381859
sg25
L6L
sg26
F0.482105444399
sg27
F0.619658
sa(dp881
g3
F0.11181
sg4
g130
sg6
S'http://lh4.ggpht.com/XZ3fBvFsGKYUBbJn5JrdKfsDvBkuUW0Luz_o_JptnVwWO0igYCStA5BtUaJiIzQZJpSUZS5WRA'
p882
sg8
F0.023053
sg9
S'Mimema'
p883
sg11
F71.415
sg12
F0.045172
sg13
S'76597302-2139-3948-b988-e6a8b1b94f31'
p884
sg15
F0.600856
sg16
I2
sg17
F0.176726
sg18
F4.0
sg19
F2007.0
sg20
F248.30621
sg21
F-28.545
sg22
S'Txzrjc7rzpbmtbim2vrci7ocare'
p885
sg24
F0.034256
sg25
L6L
sg26
F0.50639870239
sg27
F0.960707
sa(dp886
g3
F0.122065
sg4
S'Field Report'
p887
sg6
S'http://lh5.ggpht.com/DDBu-BnvXtAHkla-hSSOYE__QPeHRLGBehShAeSWKa1F30B809-B1jzqEcH3AjSLsAErV_DwKDo'
p888
sg8
F0.26371
sg9
S'I Am Not Waiting Anymore'
p889
sg11
F81.113
sg12
F0.03504
sg13
S'9ea0da72-a943-306b-a835-6cb80ffb6658'
p890
sg15
F0.769379
sg16
I2
sg17
F0.446855
sg18
F3.0
sg19
F2012.0
sg20
F208.18621
sg21
F-9.256
sg22
S'Tjwfjhj7kv2m4lh3nvq54vvx72e'
p891
sg24
F0.157976
sg25
L6L
sg26
F0.509141139785
sg27
F0.000254
sa(dp892
g3
F0.265032
sg4
g595
sg6
g596
sg8
F0.72323
sg9
S'Frack Track (feat. Nice Nate)'
p893
sg11
F81.847
sg12
F0.13143
sg13
S'd1fe0ef6-fbec-33c8-9e8b-72e0787bcf01'
p894
sg15
F0.079133
sg16
I2
sg17
F0.354819
sg18
F4.0
sg19
F2014.0
sg20
F330.78844
sg21
F-4.394
sg22
S'Tvo34ygcldrjzrmtzjmue5qcjd4'
p895
sg24
F0.536707
sg25
L6L
sg26
F0.466890261436
sg27
F0.038351
sa(dp896
g3
F0.071992
sg4
g178
sg6
g179
sg8
F0.581168
sg9
S'Allison'
p897
sg11
F87.976
sg12
F0.025015
sg13
S'b56ea300-6d25-36c8-869b-4ffcc1383151'
p898
sg15
F0.112266
sg16
I2
sg17
F0.614593
sg18
F4.0
sg19
F2011.0
sg20
F264.15955
sg21
F-7.49
sg22
S'Tymyiz3dpnt2c65inlijjo5x6om'
p899
sg24
F0.33376
sg25
L6L
sg26
F0.529591888426
sg27
F0.358986
sa(dp900
g3
F0.127567
sg4
S'Tre Ace'
p901
sg6
S'http://lh6.ggpht.com/ynwmkuRhqOCM3aiBhClmscjAXZWup1BblHSIfE5fs26nvgLXhrBNLXjPlil4F31P7X9LyMIi'
p902
sg8
F0.431946
sg9
S'Heavenly Father'
p903
sg11
F87.821
sg12
F0.185972
sg13
S'06c2af34-72e0-34bc-9967-0b02019745dc'
p904
sg15
F0.572333
sg16
I2
sg17
F0.706462
sg18
F4.0
sg19
F2014.0
sg20
F190.77288
sg21
F-9.291
sg22
S'T5dc3gxc2vzpsktvk4hxnd5ixq4'
p905
sg24
F0.783823
sg25
L6L
sg26
F0.245935556317
sg27
F5e-06
sa(dp906
g3
F0.129138
sg4
g901
sg6
g902
sg8
F0.361399
sg9
S'I Will'
p907
sg11
F75.091
sg12
F0.148545
sg13
S'6826aab3-e154-3952-84cb-13f562573284'
p908
sg15
F0.540319
sg16
I2
sg17
F0.838701
sg18
F4.0
sg19
F2014.0
sg20
F248.00717
sg21
F-11.587
sg22
S'Tjglarhnxzr2nqer5z77bqghzmy'
p909
sg24
F0.247653
sg25
L6L
sg26
F0.245935556317
sg27
F2.1e-05
sa(dp910
g3
F0.108596
sg4
S'Marc Enfroy'
p911
sg6
S'http://lh4.ggpht.com/XNUteZBmRpFNQlyrNqvVUU-mFkYTwhvMkJKwbRpbVWfZow_-ofoTG-YQp7ZSNeZRg5at7Fbo'
p912
sg8
F0.27134
sg9
S'Uniqueness'
p913
sg11
F79.986
sg12
F0.028856
sg13
S'63e716a3-15ea-307f-9050-9c655039ea71'
p914
sg15
F0.931002
sg16
I2
sg17
F0.371784
sg18
F3.0
sg19
F2011.0
sg20
F284.89098
sg21
F-11.96
sg22
S'Tntuojxikhehszrhtfgrdjann2u'
p915
sg24
F0.084018
sg25
L6L
sg26
F0.457844430734
sg27
F0.563804
sa(dp916
g3
F0.057162
sg4
g664
sg6
g665
sg8
F0.385495
sg9
S'Sun Through Cloud Through Rain'
p917
sg11
F74.914
sg12
F0.034653
sg13
S'323a0677-d54f-34c4-b6e4-a68f30dfff7e'
p918
sg15
F0.364223
sg16
I2
sg17
F0.315789
sg18
F5.0
sg19
F2007.0
sg20
F313.53156
sg21
F-13.866
sg22
S'Thw3kdrivcs6iaxkchaghig76sq'
p919
sg24
F0.126843
sg25
L6L
sg26
F0.275994516708
sg27
F9.1e-05
sa(dp920
g3
F0.200363
sg4
S'Cataldo'
p921
sg6
S'http://lh6.ggpht.com/r1n3pCVmwvGW0LAwlIc6i-p9GjCzTCGD1bKLGIU15hHtW-c0v9jIlQtwJfFjEtLPKnlm837s'
p922
sg8
F0.606589
sg9
S'Slow the Time'
p923
sg11
F87.199
sg12
F0.045643
sg13
S'bdc606e6-2d8e-325e-b0ba-b4b06d83e848'
p924
sg15
F0.001195
sg16
I2
sg17
F0.458679
sg18
F4.0
sg19
F2014.0
sg20
F269.03909
sg21
F-6.949
sg22
S'Trhilvzpjnakalglwsfp4jq5ayu'
p925
sg24
F0.428253
sg25
L6L
sg26
F0.498289900117
sg27
F0.000981
sa(dp926
g3
F0.162376
sg4
S'The Rocketboys'
p927
sg6
S'http://lh6.ggpht.com/cQCXD1e-GQWC3syjKGom5TCREFUoPb4aDSdzw4MZyfEU2x5M0sQl-54GH6863TQe8JIPTT7WCg'
p928
sg8
F0.911985
sg9
S'The Best'
p929
sg11
F77.555
sg12
F0.071185
sg13
S'b8b8dab6-4a31-33ff-bd19-d6129e5bae7b'
p930
sg15
F0.000183
sg16
I2
sg17
F0.269094
sg18
F4.0
sg19
F2012.0
sg20
F233.45297
sg21
F-5.364
sg22
S'Tcrtjmtmzl6i6qtxxhkem4ktdcy'
p931
sg24
F0.047969
sg25
L6L
sg26
F0.518732266431
sg27
F0.048615
sa(dp932
g3
F0.113055
sg4
g694
sg6
g695
sg8
F0.2653
sg9
S'Song I Will Always Sing'
p933
sg11
F77.987
sg12
F0.031234
sg13
S'e0064cff-1873-3ab7-b27b-197b6ccc72ff'
p934
sg15
F0.914477
sg16
I2
sg17
F0.554319
sg18
F4.0
sg19
F2013.0
sg20
F248.21751
sg21
F-11.218
sg22
S'T6uhc6cxemws6wu3wmj4rk4h7cq'
p935
sg24
F0.183729
sg25
L6L
sg26
F0.247097634462
sg27
F0.000665
sa(dp936
g3
F0.14579
sg4
g217
sg6
g218
sg8
F0.028413
sg9
g799
sg11
F73.345
sg12
F0.040851
sg13
S'd6098e75-519c-3d84-8d3c-d080297175d4'
p937
sg15
F0.981716
sg16
I2
sg17
F0.084938
sg18
F3.0
sg19
F2008.0
sg20
F67.14621
sg21
F-28.263
sg22
S'Txoxjnjhp6fdkoid3e66jsgulh4'
p938
sg24
F0.019146
sg25
L6L
sg26
F0.273430095496
sg27
F0.985107
sa(dp939
g3
F0.114922
sg4
g217
sg6
g218
sg8
F0.100066
sg9
S'Utopia End Credits'
p940
sg11
F83.679
sg12
F0.030529
sg13
S'1bb35d5d-b126-3e09-9cc5-cb033381140b'
p941
sg15
F0.563338
sg16
I2
sg17
F0.195832
sg18
F4.0
sg19
F2008.0
sg20
F121.41288
sg21
F-23.41
sg22
S'Taocijsfz52asqhvuwycpvsccjy'
p942
sg24
F0.074222
sg25
L6L
sg26
F0.273430095496
sg27
F0.07704
sa(dp943
g3
F0.083872
sg4
g217
sg6
g218
sg8
F0.039854
sg9
g795
sg11
F62.519
sg12
F0.043539
sg13
S'c7a24ea1-4238-33a7-828e-6828a2a322f2'
p944
sg15
F0.912285
sg16
I2
sg17
F0.203489
sg18
F4.0
sg19
F2008.0
sg20
F42.10621
sg21
F-25.057
sg22
S'Ttkm25oeyzryymskhpixuytbp2m'
p945
sg24
F0.098357
sg25
L6L
sg26
F0.273430095496
sg27
F0.175082
sa(dp946
g3
F0.11723
sg4
g217
sg6
g218
sg8
F0.10048
sg9
S'"Celebrity Mass" from Luxury Item'
p947
sg11
F59.638
sg12
F0.038896
sg13
S'4f3319ad-15a9-34eb-ae99-44331daea367'
p948
sg15
F0.595684
sg16
I2
sg17
F0.372236
sg18
F4.0
sg19
F2008.0
sg20
F107.17288
sg21
F-18.343
sg22
S'Tru77kdcbzdamv6swz66f2g47we'
p949
sg24
F0.036643
sg25
L6L
sg26
F0.273430095496
sg27
F0.918607
sa(dp950
g3
F0.158559
sg4
g217
sg6
g218
sg8
F0.155116
sg9
S'"Bush Theme" from Utopia'
p951
sg11
F85.765
sg12
F0.036016
sg13
S'71b39b08-397a-3eed-b804-059ee07a763c'
p952
sg15
F0.305868
sg16
I2
sg17
F0.190487
sg18
F4.0
sg19
F2008.0
sg20
F113.67955
sg21
F-18.905
sg22
S'T4o2bisuatnnaajbvdxijqwz5ce'
p953
sg24
F0.038559
sg25
L6L
sg26
F0.273430095496
sg27
F0.521995
sa(dp954
g3
F0.134635
sg4
g231
sg6
g232
sg8
F0.697972
sg9
S'Act 1 - Narcotic'
p955
sg11
F81.992
sg12
F0.035628
sg13
S'1dd990ce-a4c1-37e3-a414-6ac874186cf7'
p956
sg15
F0.787047
sg16
I2
sg17
F0.643535
sg18
F4.0
sg19
F2014.0
sg20
F358.19057
sg21
F-13.322
sg22
S'T5ermklnfhyiv6pubtvqd42lxya'
p957
sg24
F0.361979
sg25
L6L
sg26
F0.462929240542
sg27
F0.962276
sa(dp958
g3
F0.108178
sg4
g231
sg6
g232
sg8
F0.015477
sg9
S'Act 1 - Recursive Fault'
p959
sg11
F67.116
sg12
F0.038672
sg13
S'b63bca20-3eba-3f35-abb9-33e3a739597f'
p960
sg15
F0.796694
sg16
I2
sg17
F0.260961
sg18
F5.0
sg19
F2014.0
sg20
F66.49955
sg21
F-31.273
sg22
S'Tjlmtmgr3zdwjt6gvb4epjfye7u'
p961
sg24
F0.142286
sg25
L6L
sg26
F0.462929240542
sg27
F0.783909
saa(lp962
(dp963
g3
F0.219712
sg4
S'I See Stars'
p964
sg6
g34
sg8
F0.330485
sg9
S'Ten Thousand Feet - Metal / Hardcore Album'
p965
sg11
F139.855
sg12
F0.056755
sg13
S'c399f57d-032b-3d86-9c7b-5c8dec771928'
p966
sg15
F0.000569
sg16
I3
sg17
F0.391643
sg18
F4.0
sg19
F2014.0
sg20
F343.97995
sg21
F-29.055
sg22
S'Tq2c72maawqbbuksampq4feohsq'
p967
sg24
F0.258227
sg25
L6L
sg26
F0.50262695251
sg27
F0.005218
sa(dp968
g3
F0.111209
sg4
S'Metric'
p969
sg6
S'http://lh5.ggpht.com/MWze-VfT6JHYtGv9bCxa5xCmts_tnyAwgzaXV03p4Yj8-rtcF4e3p0zqT8X2k8lpZSkLib317RU'
p970
sg8
F0.87687
sg9
S'Gimme Sympathy'
p971
sg11
F139.028
sg12
F0.083271
sg13
S'be1d0f78-a960-3868-8a32-627f276e2272'
p972
sg15
F0.007975
sg16
I3
sg17
F0.449014
sg18
F4.0
sg19
F2009.0
sg20
F234.21288
sg21
F-6.496
sg22
S'Tgbto5kph4feg7znfwdknu3o3ne'
p973
sg24
F0.120814
sg25
L6L
sg26
F0.432251555576
sg27
F0.00125
sa(dp974
g3
F0.045247
sg4
S'Cannibal Corpse'
p975
sg6
S'http://lh4.ggpht.com/DZUHmoys3wIRdR_RBm6EQXM0r3IeppZPzNDOG7w0DanMaG9ysGns4m-zSckoMnQ22-tBExdM9g'
p976
sg8
F0.996089
sg9
S'Demented Aggression'
p977
sg11
F149.949
sg12
F0.182938
sg13
S'7754a68c-4fad-359b-b717-0cea76af8e18'
p978
sg15
F0.000749
sg16
I3
sg17
F0.410649
sg18
F4.0
sg19
F2012.0
sg20
F193.59955
sg21
F-5.313
sg22
S'Tzws44bgrs66mka26nm34q6tnhm'
p979
sg24
F0.217743
sg25
L6L
sg26
F0.366528583775
sg27
F0.468132
sa(dp980
g3
F0.233171
sg4
S'Chamber of Noize'
p981
sg6
S'http://lh6.ggpht.com/bZuyBCojBZvUjJzGIf1KRGq-nFysxa2KbEZ1MZxlzTQBZGPmKQ2rPJPnblChy8knKz2_YSpxoI8'
p982
sg8
F0.705751
sg9
S'Dead Pinky'
p983
sg11
F140.03
sg12
F0.082625
sg13
S'04b33997-2081-39a6-8738-6ec26f33f2db'
p984
sg15
F0.071466
sg16
I3
sg17
F0.438953
sg18
F4.0
sg19
F2011.0
sg20
F125.99955
sg21
F-9.631
sg22
S'Termcpw4rngjjdgp5v36ck6od3m'
p985
sg24
F0.198898
sg25
L6L
sg26
F0.254321855023
sg27
F0.902654
sa(dp986
g3
F0.093374
sg4
S'Trampled by Turtles'
p987
sg6
S'http://lh3.ggpht.com/uuozqrfkyjv_zbD9syuHA4EEeCUK7QJN1Wtqg7Nn8xFm-bfsrfLCSQd7GO1JNUektY216jfO'
p988
sg8
F0.421042
sg9
S'Alone'
p989
sg11
F141.076
sg12
F0.030858
sg13
S'41095070-d713-3b0d-9445-edd7d3591b60'
p990
sg15
F0.775325
sg16
I3
sg17
F0.551884
sg18
F4.0
sg19
F2012.0
sg20
F266.79955
sg21
F-10.505
sg22
S'Tkrm2upw3cd5ticlomgqojqe5ma'
p991
sg24
F0.34217
sg25
L6L
sg26
F0.462073569169
sg27
F0.504282
sa(dp992
g3
F0.09704
sg4
g343
sg6
g344
sg8
F0.410028
sg9
S'Kept'
p993
sg11
F153.888
sg12
F0.02767
sg13
S'd5c3746e-008b-3008-8399-d82f1084f966'
p994
sg15
F0.506025
sg16
I3
sg17
F0.489147
sg18
F4.0
sg19
F2011.0
sg20
F201.21288
sg21
F-9.398
sg22
S'Ti3qwd6uvkxv5lnpfdfx5arajry'
p995
sg24
F0.432331
sg25
L6L
sg26
F0.499727972349
sg27
F4.6e-05
sa(dp996
g3
F0.17607
sg4
S'Mia Martini'
p997
sg6
S'http://lh4.ggpht.com/l-Mic_YbVwrNVI-0i1B5oQPLunBVbaR0vkBoLuUNfQdzZPTWpKj0SARq8rgWpbGaZqLZWyI76A'
p998
sg8
F0.617277
sg9
S'Donna'
p999
sg11
F136.144
sg12
F0.028122
sg13
S'd59ead91-44ac-3fc6-9d25-f099529a0a0b'
p1000
sg15
F0.618205
sg16
I3
sg17
F0.523574
sg18
F4.0
sg19
F1989.0
sg20
F242.85995
sg21
F-7.697
sg22
S'Tijw5yxxqg4iuygtqc7e2hhco5a'
p1001
sg24
F0.276643
sg25
L6L
sg26
F0.472619405113
sg27
F6.3e-05
sa(dp1002
g3
F0.302008
sg4
S'Katie Sky'
p1003
sg6
S'http://lh3.ggpht.com/uFV67xkYczYSsM814M6oiNdFLveWy4wkTEIvzwfIeDrREcLpn8plyAuI1q5V8NjoPUHBLjzqm48'
p1004
sg8
F0.82051
sg9
S'Right Words'
p1005
sg11
F135.0
sg12
F0.074995
sg13
S'4de0065f-8690-33ea-b8e8-6d8d6effe370'
p1006
sg15
F0.0568
sg16
I3
sg17
F0.723309
sg18
F4.0
sg19
F2011.0
sg20
F206.72218
sg21
F-4.958
sg22
S'Tssksrds3zr7nbtjkrx52vpgjua'
p1007
sg24
F0.559721
sg25
L6L
sg26
F0.489884858802
sg27
F1e-06
sa(dp1008
g3
F0.889599
sg4
S'Dr. Dog'
p1009
sg6
S'http://lh3.ggpht.com/1h1bCAf0m-xshobe-sYh_1oOzoB7ccNotIyLZkwUZRlT9sBC0Bs-ZbpkrfoC3n1RMTAztVdLSg'
p1010
sg8
F0.844234
sg9
S'Lonesome'
p1011
sg11
F140.127
sg12
F0.136575
sg13
S'0b1d22a2-59fd-3a6f-b1c1-b68ec2fc8e49'
p1012
sg15
F0.01839
sg16
I3
sg17
F0.423804
sg18
F4.0
sg19
F2012.0
sg20
F264.13188
sg21
F-7.082
sg22
S'Tn4uzj5akxqh3ubhm4nom3bkefu'
p1013
sg24
F0.330515
sg25
L6L
sg26
F0.44277217852
sg27
F2.9e-05
sa(dp1014
g3
F0.735992
sg4
g1009
sg6
g1010
sg8
F0.920479
sg9
S'Vampire'
p1015
sg11
F145.645
sg12
F0.052382
sg13
S'57fa4aa3-0d8a-37e7-8b9e-19870f0f8caa'
p1016
sg15
F0.172498
sg16
I3
sg17
F0.411746
sg18
F4.0
sg19
F2012.0
sg20
F266.69823
sg21
F-3.641
sg22
S'Thxtkgpyqu5fncfgp6lltucrxli'
p1017
sg24
F0.557554
sg25
L6L
sg26
F0.44277217852
sg27
F0.000166
sa(dp1018
g3
F0.716392
sg4
g76
sg6
g376
sg8
F0.723258
sg9
S'The Fussy Dutchman'
p1019
sg11
F149.397
sg12
F0.040254
sg13
S'e4ccdfde-ea7d-318e-8f90-1e10b5c7f275'
p1020
sg15
F0.249457
sg16
I3
sg17
F0.27866
sg18
F4.0
sg19
F2011.0
sg20
F455.92336
sg21
F-11.628
sg22
S'Ts4wqjnnwus2axozyfv4ekkovba'
p1021
sg24
F0.448044
sg25
L6L
sg26
F0.415381464026
sg27
F0.747088
sa(dp1022
g3
F0.89807
sg4
g76
sg6
g376
sg8
F0.573315
sg9
S'All In Time LIVE'
p1023
sg11
F143.616
sg12
F0.067211
sg13
S'103e768a-f78d-336b-ae49-dac53dc431ac'
p1024
sg15
F0.020146
sg16
I3
sg17
F0.356015
sg18
F4.0
sg19
F2011.0
sg20
F1061.48526
sg21
F-17.274
sg22
S'Tley2hr2t6pfw56uxy7d7elmqle'
p1025
sg24
F0.471832
sg25
L6L
sg26
F0.415381464026
sg27
F0.693941
sa(dp1026
g3
F0.89807
sg4
g76
sg6
g376
sg8
F0.573315
sg9
g1023
sg11
F143.616
sg12
F0.067211
sg13
S'014095ed-48c9-3347-a472-2a3e5938b1ee'
p1027
sg15
F0.020146
sg16
I3
sg17
F0.356015
sg18
F4.0
sg19
F2011.0
sg20
F1061.48526
sg21
F-17.274
sg22
S'Tgvdb3uyeqcfkwyi3rcgrizbcdq'
p1028
sg24
F0.471832
sg25
L6L
sg26
F0.415381464026
sg27
F0.693941
sa(dp1029
g3
F0.312415
sg4
S'Satellite Stories'
p1030
sg6
S'http://lh3.ggpht.com/Dvud53Xt33HeWo814zqMhLhiLP9a2u3Uyx_umYdcgJkXvjXM2xB3xvcIVBMUb-6cpW0jg6hO'
p1031
sg8
F0.622066
sg9
S'Campfire'
p1032
sg11
F155.88
sg12
F0.07533
sg13
S'b5e6270a-6560-3b8f-9add-6cc6bae256bf'
p1033
sg15
F0.002271
sg16
I3
sg17
F0.44273
sg18
F4.0
sg19
F2014.0
sg20
F207.80032
sg21
F-7.072
sg22
S'Tutfylibfzg5ahgvalq53ez34za'
p1034
sg24
F0.31396
sg25
L6L
sg26
F0.532878507099
sg27
F0.00147
sa(dp1035
g3
F0.361451
sg4
g392
sg6
g393
sg8
F0.203148
sg9
S'Stoplight Roses'
p1036
sg11
F152.363
sg12
F0.033896
sg13
S'e182e068-a1c6-3975-b751-726da149963e'
p1037
sg15
F0.878124
sg16
I3
sg17
F0.426048
sg18
F3.0
sg19
F2011.0
sg20
F208.14621
sg21
F-13.604
sg22
S'Tipmjhn7ledecwbblvazwx25fiu'
p1038
sg24
F0.20272
sg25
L6L
sg26
F0.3952684428
sg27
F0.000148
sa(dp1039
g3
F0.176144
sg4
g76
sg6
g77
sg8
F0.548299
sg9
S'Hurt Bird Bath'
p1040
sg11
F137.597
sg12
F0.041686
sg13
S'13459492-7de0-3d5f-965a-8f122f26cf27'
p1041
sg15
F0.483828
sg16
I3
sg17
F0.426143
sg18
F4.0
sg19
F2011.0
sg20
F1034.40209
sg21
F-17.829
sg22
S'T5f5m5lqxq7l3m77ouvkiheqsri'
p1042
sg24
F0.602635
sg25
L6L
sg26
F0.415381464026
sg27
F0.804425
sa(dp1043
g3
F0.89807
sg4
g76
sg6
g77
sg8
F0.573315
sg9
g1023
sg11
F143.616
sg12
F0.067211
sg13
S'bfdb686b-b677-38fc-abc7-745fecfd55f2'
p1044
sg15
F0.020146
sg16
I3
sg17
F0.356015
sg18
F4.0
sg19
F2011.0
sg20
F1061.48526
sg21
F-17.274
sg22
S'Tvotbk2m27ndxticwwxakcdz5nu'
p1045
sg24
F0.471832
sg25
L6L
sg26
F0.415381464026
sg27
F0.693941
sa(dp1046
g3
F0.89807
sg4
g76
sg6
g77
sg8
F0.573315
sg9
g1023
sg11
F143.616
sg12
F0.067211
sg13
S'06be1140-39ba-321a-8fca-5a8a504ff5d9'
p1047
sg15
F0.020146
sg16
I3
sg17
F0.356015
sg18
F4.0
sg19
F2011.0
sg20
F1061.48526
sg21
F-17.274
sg22
S'Trfin643yfv4vfntbl2fbfog4d4'
p1048
sg24
F0.471832
sg25
L6L
sg26
F0.415381464026
sg27
F0.693941
sa(dp1049
g3
F0.38418
sg4
g76
sg6
g415
sg8
F0.600401
sg9
S"Phil's Farm>"
p1050
sg11
F140.263
sg12
F0.039546
sg13
S'9643ae14-ae6a-3f6f-b901-e8bb946adac1'
p1051
sg15
F0.03341
sg16
I3
sg17
F0.412459
sg18
F4.0
sg19
F2010.0
sg20
F768.06921
sg21
F-20.44
sg22
S'T44nmjmm4pexhyf6sfonx3nzjdq'
p1052
sg24
F0.424761
sg25
L6L
sg26
F0.415381464026
sg27
F0.773308
sa(dp1053
g3
F0.305397
sg4
g76
sg6
g415
sg8
F0.838886
sg9
S"Mulche's Odyssey"
p1054
sg11
F142.801
sg12
F0.04373
sg13
S'8cfaa0a0-b10c-325d-bf3a-8e667e76ea49'
p1055
sg15
F0.094172
sg16
I3
sg17
F0.435973
sg18
F4.0
sg19
F2010.0
sg20
F298.49288
sg21
F-7.342
sg22
S'Tox2getzjcpixegxbzjhs64cxeu'
p1056
sg24
F0.574904
sg25
L6L
sg26
F0.415381464026
sg27
F0.025991
sa(dp1057
g3
F0.07632
sg4
g76
sg6
g415
sg8
F0.94506
sg9
S'The Floor'
p1058
sg11
F143.236
sg12
F0.062742
sg13
S'7e270619-88c4-314e-8fc1-22f3a3ded1bc'
p1059
sg15
F0.00375
sg16
I3
sg17
F0.413496
sg18
F4.0
sg19
F2010.0
sg20
F330.10621
sg21
F-7.179
sg22
S'Txsye3fbydhws7ki2wipcpevivm'
p1060
sg24
F0.437949
sg25
L6L
sg26
F0.415381464026
sg27
F0.284784
sa(dp1061
g3
F0.121778
sg4
g426
sg6
g427
sg8
F0.329753
sg9
S'Day'
p1062
sg11
F159.968
sg12
F0.03839
sg13
S'fc037a8f-8128-3bb2-95d1-055b8197e860'
p1063
sg15
F0.833324
sg16
I3
sg17
F0.254012
sg18
F4.0
sg19
F2011.0
sg20
F207.62621
sg21
F-14.255
sg22
S'Tnxszrzkdyxdesl76j57knbgl64'
p1064
sg24
F0.103951
sg25
L6L
sg26
F0.491559266938
sg27
F0.191495
sa(dp1065
g3
F0.354246
sg4
g82
sg6
g83
sg8
F0.243803
sg9
S'Searching'
p1066
sg11
F138.3
sg12
F0.028643
sg13
S'66608cce-57f5-30ec-8b4d-4b57867da814'
p1067
sg15
F0.250819
sg16
I3
sg17
F0.498685
sg18
F4.0
sg19
F2011.0
sg20
F229.54685
sg21
F-14.678
sg22
S'Tb5mi4qy62sugepaq3od7geml4y'
p1068
sg24
F0.245883
sg25
L6L
sg26
F0.261711676507
sg27
F0.000669
sa(dp1069
g3
F0.110364
sg4
g88
sg6
g89
sg8
F0.794541
sg9
S'Against the Grain'
p1070
sg11
F147.912
sg12
F0.139935
sg13
S'de6e3d1b-1b39-3f0c-92ee-e9d8ccd50a9e'
p1071
sg15
F0.306238
sg16
I3
sg17
F0.386481
sg18
F4.0
sg19
F2011.0
sg20
F272.221
sg21
F-7.856
sg22
S'Tyi5yrrnpa52i7fyakpd2y5pxhq'
p1072
sg24
F0.576159
sg25
L6L
sg26
F0.269127343221
sg27
F1e-06
sa(dp1073
g3
F0.092598
sg4
g94
sg6
S'http://lh4.ggpht.com/_GtPyX94bhTri6oPEcxK3lRPhEpTkT3nUK1-DOB8ar4MHwnx-xlzAPqcRPZmo6iqYMxxmk2C5w'
p1074
sg8
F0.966646
sg9
S'The Brink (Original Mix)'
p1075
sg11
F139.952
sg12
F0.100236
sg13
S'4987cf57-3803-3871-9bbb-bfb5c5df88c6'
p1076
sg15
F4.6e-05
sg16
I3
sg17
F0.581791
sg18
F4.0
sg19
F2012.0
sg20
F240.06485
sg21
F-4.19
sg22
S'Twnjfkru54zriosobjxknydy7fe'
p1077
sg24
F0.103379
sg25
L6L
sg26
F0.536887447902
sg27
F0.269971
sa(dp1078
g3
F0.159069
sg4
g100
sg6
g101
sg8
F0.926121
sg9
S'Is This Love?'
p1079
sg11
F148.56
sg12
F0.107787
sg13
S'1d71fed4-f55a-306f-9cac-5496d3996ef6'
p1080
sg15
F0.018449
sg16
I3
sg17
F0.326008
sg18
F4.0
sg19
F2011.0
sg20
F191.78621
sg21
F-4.542
sg22
S'Tqacm2gya3appfrxuaguuyumh5a'
p1081
sg24
F0.118749
sg25
L6L
sg26
F0.418719856012
sg27
F0.088925
sa(dp1082
g3
F0.094226
sg4
g100
sg6
g101
sg8
F0.879636
sg9
S"The Witness' Dull Surprise"
p1083
sg11
F139.591
sg12
F0.056309
sg13
S'b2fc63c2-51f3-331a-b5b9-e1dad2440c55'
p1084
sg15
F0.000521
sg16
I3
sg17
F0.290932
sg18
F4.0
sg19
F2011.0
sg20
F248.95955
sg21
F-4.73
sg22
S'Ticqgj3ygcc7kuhjwurvprvzprq'
p1085
sg24
F0.25132
sg25
L6L
sg26
F0.418719856012
sg27
F0.012586
sa(dp1086
g3
F0.133498
sg4
g100
sg6
g101
sg8
F0.524114
sg9
S'Satan Said Dance'
p1087
sg11
F148.372
sg12
F0.066664
sg13
S'9f2fa962-d2fc-395e-9560-13b6405ebb14'
p1088
sg15
F0.000125
sg16
I3
sg17
F0.43567
sg18
F4.0
sg19
F2011.0
sg20
F194.84689
sg21
F-18.172
sg22
S'Tneqjwadxn7rcvpzs2ff6d5le2e'
p1089
sg24
F0.197295
sg25
L6L
sg26
F0.418719856012
sg27
F0.000933
sa(dp1090
g3
F0.131383
sg4
g100
sg6
g101
sg8
F0.666081
sg9
S'Over And Over Again (Lost And Found)'
p1091
sg11
F139.684
sg12
F0.02737
sg13
S'553b3b7e-115f-3cad-9517-270bb5fb3ab1'
p1092
sg15
F0.000185
sg16
I3
sg17
F0.576859
sg18
F4.0
sg19
F2011.0
sg20
F189.31955
sg21
F-8.25
sg22
S'Tmcmn4z4cg6sjqqegklrnzfr33e'
p1093
sg24
F0.87206
sg25
L6L
sg26
F0.418719856012
sg27
F0.015535
sa(dp1094
g3
F0.228427
sg4
g100
sg6
g101
sg8
F0.972875
sg9
S'Same Mistake'
p1095
sg11
F150.064
sg12
F0.101954
sg13
S'fd2e403d-7698-3ebc-af5d-87814be996d4'
p1096
sg15
F3.2e-05
sg16
I3
sg17
F0.318986
sg18
F4.0
sg19
F2011.0
sg20
F184.85651
sg21
F-4.598
sg22
S'Tmcldmwpinherq4czcwyitg5csq'
p1097
sg24
F0.116245
sg25
L6L
sg26
F0.418719856012
sg27
F0.015608
sa(dp1098
g3
F0.233034
sg4
g488
sg6
g489
sg8
F0.680768
sg9
S"Backyard Sippin'"
p1099
sg11
F138.307
sg12
F0.094309
sg13
S'072279af-25fc-3c1c-81f4-fa7698b55710'
p1100
sg15
F0.032455
sg16
I3
sg17
F0.430962
sg18
F4.0
sg19
F2011.0
sg20
F194.30354
sg21
F-9.493
sg22
S'Tmnwq22tyckf3qvch7e3dkngfjm'
p1101
sg24
F0.695029
sg25
L6L
sg26
F0.341315943912
sg27
F6.7e-05
sa(dp1102
g3
F0.117501
sg4
S'Austin Lucas'
p1103
sg6
g115
sg8
F0.783913
sg9
S'Alone In Memphis'
p1104
sg11
F139.738
sg12
F0.041241
sg13
S'0cf28ca4-8624-3e88-821f-c745d2822eca'
p1105
sg15
F0.170387
sg16
I3
sg17
F0.474743
sg18
F4.0
sg19
F2014.0
sg20
F219.34621
sg21
F-5.591
sg22
S'Tbox3qf6l5je7lxj37qz6tfdhoq'
p1106
sg24
F0.31956
sg25
L6L
sg26
F0.474687038208
sg27
F1e-06
sa(dp1107
g3
F0.114539
sg4
S'American Football'
p1108
sg6
g115
sg8
F0.796616
sg9
S'Never Meant'
p1109
sg11
F144.452
sg12
F0.03763
sg13
S'9a480466-6cc6-3d11-a168-f341f56e8305'
p1110
sg15
F0.020761
sg16
I3
sg17
F0.432618
sg18
F4.0
sg19
F2014.0
sg20
F268.37578
sg21
F-6.708
sg22
S'Ti5bqdzidtjwjoccyomjzvgum7e'
p1111
sg24
F0.395821
sg25
L6L
sg26
F0.416711371683
sg27
F0.016724
sa(dp1112
g3
F0.309105
sg4
S"'68"
p1113
sg6
g115
sg8
F0.891755
sg9
S'Three Is a Crowd (QCA Session)'
p1114
sg11
F135.204
sg12
F0.098863
sg13
S'73446205-c456-35e9-b1d5-fb85ab34ac7c'
p1115
sg15
F0.000133
sg16
I3
sg17
F0.476061
sg18
F3.0
sg19
F2014.0
sg20
F238.00213
sg21
F-6.683
sg22
S'Tn2py5vsdxl76q4lzeg6lc72k74'
p1116
sg24
F0.30177
sg25
L6L
sg26
F0.476866094486
sg27
F0.00458
sa(dp1117
g3
F0.274171
sg4
S'En Garde'
p1118
sg6
g115
sg8
F0.884623
sg9
S'Framed / Slanted'
p1119
sg11
F159.853
sg12
F0.046416
sg13
S'030f3f89-bc31-3fbd-b413-943d2505b95b'
p1120
sg15
F0.001743
sg16
I3
sg17
F0.41182
sg18
F4.0
sg19
F2014.0
sg20
F218.34907
sg21
F-7.393
sg22
S'T76isl4zorywq5acp7cimaxr3zi'
p1121
sg24
F0.534719
sg25
L6L
sg26
F0.371014985536
sg27
F1e-06
sa(dp1122
g3
F0.050622
sg4
S'Toe'
p1123
sg6
g115
sg8
F0.499801
sg9
S'Goodbye'
p1124
sg11
F135.019
sg12
F0.03327
sg13
S'86456a9c-1732-30d5-b6e9-16a133bf9d1a'
p1125
sg15
F0.657528
sg16
I3
sg17
F0.545799
sg18
F4.0
sg19
F2014.0
sg20
F454.1122
sg21
F-13.315
sg22
S'Tbp4ey2c5wnun45kej344zqsmhq'
p1126
sg24
F0.105964
sg25
L6L
sg26
F0.424985907871
sg27
F0.590903
sa(dp1127
g3
F0.061566
sg4
S'Weatherbox'
p1128
sg6
g115
sg8
F0.592468
sg9
S'Radio Hive'
p1129
sg11
F147.044
sg12
F0.040715
sg13
S'a7fd2838-b467-338b-b454-dfeed8fd77e0'
p1130
sg15
F0.320823
sg16
I3
sg17
F0.539743
sg18
F4.0
sg19
F2014.0
sg20
F225.96154
sg21
F-6.503
sg22
S'T7ce3jwyk7ugtetyqdxv4sgobkm'
p1131
sg24
F0.757234
sg25
L6L
sg26
F0.449362667055
sg27
F1e-06
sa(dp1132
g3
F0.363995
sg4
S'Pray for Sound'
p1133
sg6
g115
sg8
F0.856859
sg9
S'Decayer'
p1134
sg11
F146.074
sg12
F0.075694
sg13
S'640624f8-80c3-3173-89b7-ab8da06e8937'
p1135
sg15
F0.001408
sg16
I3
sg17
F0.384487
sg18
F4.0
sg19
F2014.0
sg20
F286.07955
sg21
F-4.347
sg22
S'T7ln4jlmhcqzqdgyylby6qqcjhe'
p1136
sg24
F0.370987
sg25
L6L
sg26
F0.487989541894
sg27
F0.914685
sa(dp1137
g3
F0.603928
sg4
S'Sundiver'
p1138
sg6
g115
sg8
F0.894892
sg9
S'Photography'
p1139
sg11
F145.03
sg12
F0.045063
sg13
S'b3afc110-af0e-384f-acc4-2b6c6f6a5fcb'
p1140
sg15
F6.7e-05
sg16
I3
sg17
F0.298504
sg18
F5.0
sg19
F2014.0
sg20
F300.98621
sg21
F-6.635
sg22
S'Tiddof6ivsihujyzq24vekeutp4'
p1141
sg24
F0.429734
sg25
L6L
sg26
F0.280862992364
sg27
F0.371916
sa(dp1142
g3
F0.088842
sg4
S'Miracles of Modern Science'
p1143
sg6
S'http://lh6.ggpht.com/CZK8_SILky4zuM_VvCHHMUKFQyQWlp-x4ki2zWealJEqHF63OSJDVruTHsTMjJfegfxe0mi_'
p1144
sg8
F0.672105
sg9
S'Eating Me Alive'
p1145
sg11
F155.088
sg12
F0.048109
sg13
S'9dc44f93-17c1-3110-8a89-4cdb4ac84456'
p1146
sg15
F0.073844
sg16
I3
sg17
F0.504186
sg18
F4.0
sg19
F2011.0
sg20
F205.53098
sg21
F-8.108
sg22
S'Tjq22b7sxzdj2zmrafmvrbwi5va'
p1147
sg24
F0.502669
sg25
L6L
sg26
F0.475421033375
sg27
F0.000169
sa(dp1148
g3
F0.250869
sg4
S'No Age'
p1149
sg6
S'http://lh6.ggpht.com/TwI9cOjuaOzmvPaAUiUcny2mF0-CgU0cZuE5O8sZnqGeosRWi78iTNwW3pLFKeqNJNTrGhkKPFk'
p1150
sg8
F0.747775
sg9
S'Glitter'
p1151
sg11
F160.921
sg12
F0.059762
sg13
S'c07ee430-0c2e-3498-8801-5bbd2a282cd9'
p1152
sg15
F0.000624
sg16
I3
sg17
F0.233352
sg18
F3.0
sg19
F2010.0
sg20
F228.87955
sg21
F-6.373
sg22
S'Tua4b5flrcdd6fdcr4cdg72662y'
p1153
sg24
F0.481657
sg25
L6L
sg26
F0.410896755641
sg27
F0.844402
sa(dp1154
g3
F0.09517
sg4
g136
sg6
g137
sg8
F0.620842
sg9
S'Collateral Damage'
p1155
sg11
F144.577
sg12
F0.028845
sg13
S'44e49cbd-4d79-3ecd-a6cd-5872a25dc6f1'
p1156
sg15
F0.118241
sg16
I3
sg17
F0.415613
sg18
F4.0
sg19
F1996.0
sg20
F253.34921
sg21
F-10.927
sg22
S'Thjlntfxrcffzidxteii623ck5a'
p1157
sg24
F0.665074
sg25
L6L
sg26
F0.250719795666
sg27
F0.404525
sa(dp1158
g3
F0.074573
sg4
g136
sg6
g137
sg8
F0.761979
sg9
S'I Wish'
p1159
sg11
F149.141
sg12
F0.033723
sg13
S'3a6da5e6-4294-373e-950d-ba20f87d34bb'
p1160
sg15
F0.00298
sg16
I3
sg17
F0.432004
sg18
F4.0
sg19
F1996.0
sg20
F194.26023
sg21
F-11.048
sg22
S'Tjfkahog343kbdcasgggytciyi4'
p1161
sg24
F0.664265
sg25
L6L
sg26
F0.250719795666
sg27
F0.008937
sa(dp1162
g3
F0.135786
sg4
g136
sg6
g137
sg8
F0.750004
sg9
S'In My World'
p1163
sg11
F144.473
sg12
F0.029054
sg13
S'dd2aa1ee-5497-3184-be0c-c468dc6c21e5'
p1164
sg15
F0.059512
sg16
I3
sg17
F0.379865
sg18
F4.0
sg19
F1996.0
sg20
F196.74186
sg21
F-11.823
sg22
S'Tsgu4jl2qnkp5px6awpb65wjshu'
p1165
sg24
F0.931841
sg25
L6L
sg26
F0.250719795666
sg27
F0.158753
sa(dp1166
g3
F0.250869
sg4
g1149
sg6
S'http://lh5.ggpht.com/Mn_PscixiALoMGjrlnNG6loDtMur98FJ3Y4j-UoCFIgXBcH5Fvk6e4xKuD4HotvEKQseA9e8Cw'
p1167
sg8
F0.747775
sg9
g1151
sg11
F160.921
sg12
F0.059762
sg13
S'7b51d58a-19fd-3243-8d46-972d2ba29375'
p1168
sg15
F0.000624
sg16
I3
sg17
F0.233352
sg18
F3.0
sg19
F2010.0
sg20
F228.87955
sg21
F-6.373
sg22
S'Tjkvar7s2zqarpaq7hjybx3dhuq'
p1169
sg24
F0.481657
sg25
L6L
sg26
F0.410896755641
sg27
F0.844402
sa(dp1170
g3
F0.113728
sg4
S'Shawn Chrystopher'
p1171
sg6
S'http://lh3.ggpht.com/mabVRT8CSeIJch2z5BOxXtHvTGfXFJ7xHsfwDAEfI60__prXLFORB-cLNeobCr4cu3lc5BOe'
p1172
sg8
F0.692792
sg9
S'One of My Homies'
p1173
sg11
F147.912
sg12
F0.216578
sg13
S'802334d9-5f11-3caa-ad71-85fb74062c7b'
p1174
sg15
F0.088229
sg16
I3
sg17
F0.639507
sg18
F4.0
sg19
F2012.0
sg20
F253.00417
sg21
F-7.402
sg22
S'Tkowsm5qjovl2h2n22255ugixm4'
p1175
sg24
F0.769965
sg25
L6L
sg26
F0.450085095424
sg27
F8e-06
sa(dp1176
g3
F0.163357
sg4
S'Tim Halperin'
p1177
sg6
S'http://lh4.ggpht.com/s0LhXUzUrnm6VKbZd3A9MI0lJ-4Xd5eoJXcgS3CdmCg163qJ1_SkZ8O9AOhvekkR28QbYmV6lQ'
p1178
sg8
F0.707916
sg9
S'I Wanna Fall in Love'
p1179
sg11
F136.009
sg12
F0.028838
sg13
S'ef43f660-d0a8-367a-a198-9a729adaea5d'
p1180
sg15
F0.264176
sg16
I3
sg17
F0.530158
sg18
F4.0
sg19
F2011.0
sg20
F215.59859
sg21
F-5.367
sg22
S'T6t6vbonngq3lhysjgcaednkhry'
p1181
sg24
F0.589864
sg25
L6L
sg26
F0.473572689386
sg27
F1e-06
sa(dp1182
g3
F0.03708
sg4
S'Dumpstaphunk'
p1183
sg6
S'http://lh6.ggpht.com/qt9kJcuXs0Lxv2E4grTzXrfd8IgnPqWo1tQxYNjWo579QhcZy5IfjRBQMLQGXc01WDgeGz7LFQ'
p1184
sg8
F0.746454
sg9
S'Meanwhile...'
p1185
sg11
F160.596
sg12
F0.173353
sg13
S'513cf269-d70f-39db-96d0-eeb33a66521a'
p1186
sg15
F0.093081
sg16
I3
sg17
F0.588053
sg18
F4.0
sg19
F2011.0
sg20
F240.25288
sg21
F-9.284
sg22
S'Tphnpydesxxggd6wxmaf6nwr3em'
p1187
sg24
F0.79914
sg25
L6L
sg26
F0.486548390104
sg27
F3e-06
sa(dp1188
g3
F0.243577
sg4
g595
sg6
g596
sg8
F0.679476
sg9
S'Belong (feat. Headphone Activist)'
p1189
sg11
F140.024
sg12
F0.044644
sg13
S'a4d9339a-a86b-3273-bcad-98ef1e66bf6f'
p1190
sg15
F0.182759
sg16
I3
sg17
F0.52916
sg18
F4.0
sg19
F2014.0
sg20
F306.03079
sg21
F-6.793
sg22
S'T5brtwljmyu4xzjixyhs62ky57i'
p1191
sg24
F0.115253
sg25
L6L
sg26
F0.466890261436
sg27
F3.8e-05
sa(dp1192
g3
F0.208071
sg4
S'The Whigs'
p1193
sg6
g173
sg8
F0.865466
sg9
S'Black Lotus'
p1194
sg11
F140.894
sg12
F0.034981
sg13
S'50b5f1ef-7fa9-39f1-a9b5-f3709eae40ac'
p1195
sg15
F5.4e-05
sg16
I3
sg17
F0.41383
sg18
F4.0
sg19
F2012.0
sg20
F216.74621
sg21
F-5.168
sg22
S'Tnwppfahqdem5pwcmk7gj6wwwv4'
p1196
sg24
F0.364126
sg25
L6L
sg26
F0.418299168636
sg27
F1e-06
sa(dp1197
g3
F0.09447
sg4
g615
sg6
g173
sg8
F0.462789
sg9
S'All Along'
p1198
sg11
F149.936
sg12
F0.071855
sg13
S'236d7414-c909-32ba-9728-7819ecae6a09'
p1199
sg15
F0.325937
sg16
I3
sg17
F0.562277
sg18
F4.0
sg19
F2012.0
sg20
F164.34621
sg21
F-10.067
sg22
S'Tugoopok6znqy6yskcgxnwnuv3i'
p1200
sg24
F0.542521
sg25
L6L
sg26
F0.360503634538
sg27
F0.000933
sa(dp1201
g3
F0.208833
sg4
g901
sg6
g902
sg8
F0.72856
sg9
S'So Into You'
p1202
sg11
F139.932
sg12
F0.068888
sg13
S'3880f4d7-5765-3582-8ba4-3295f4869c4b'
p1203
sg15
F0.01052
sg16
I3
sg17
F0.524872
sg18
F4.0
sg19
F2014.0
sg20
F111.46512
sg21
F-9.617
sg22
S'Tqa44l6daottc2q6pbnwollwwku'
p1204
sg24
F0.406386
sg25
L6L
sg26
F0.245935556317
sg27
F0.000352
sa(dp1205
g3
F0.379013
sg4
S'Sirion'
p1206
sg6
S'http://lh4.ggpht.com/gREGNOMAWC_l2opZxVtnbMDZ5hZzWCOsR9UbDaNwP_mDLxY0HeiywbnCyxtCgxIT6xKHRRUN1g'
p1207
sg8
F0.801005
sg9
S'Intro'
p1208
sg11
F144.049
sg12
F0.069896
sg13
S'268a8c1d-6c03-37d8-9d3c-c332bb06a19d'
p1209
sg15
F0.018552
sg16
I3
sg17
F0.472562
sg18
F4.0
sg19
F2010.0
sg20
F171.22621
sg21
F-12.649
sg22
S'Tqzogvffak5muwxwyjyofvv5m54'
p1210
sg24
F0.128958
sg25
L6L
sg26
F0.466138835288
sg27
F0.917457
sa(dp1211
g3
F0.096424
sg4
S'A*S*Y*S'
p1212
sg6
S'http://lh5.ggpht.com/R2AmPKqs3jV_NOVDaZKDGO2qgZLc9nogUNaC9hN9nzEbIJ6gVSvkS3xfse3BaqmWIzIUAHylrg'
p1213
sg8
F0.592717
sg9
S'Bassturbation - Oyaebu Break Cut'
p1214
sg11
F140.012
sg12
F0.262772
sg13
S'180e63d2-9091-33bc-b948-6613a187a8b9'
p1215
sg15
F0.000393
sg16
I3
sg17
F0.722479
sg18
F4.0
sg19
F2012.0
sg20
F373.71383
sg21
F-7.398
sg22
S'Tntfzpsfkhpxt4hqhvjhs6n6lza'
p1216
sg24
F0.282421
sg25
L6L
sg26
F0.488779257272
sg27
F0.778127
sa(dp1217
g3
F0.11303
sg4
S'Jesse Harris'
p1218
sg6
S'http://lh3.ggpht.com/rAxF4ennzxQkGOlJuOfa62kTCjdfJcjdu0CDORxkd_3cyKU_VyTwbb0QoMm7sFImPB3jV4jAbLo'
p1219
sg8
F0.49506
sg9
S"I Won't Wait (feat. Conor Oberst)"
p1220
sg11
F138.979
sg12
F0.029786
sg13
S'1a526d92-7d4e-3595-ad6c-8a20fc791be4'
p1221
sg15
F0.486549
sg16
I3
sg17
F0.605496
sg18
F4.0
sg19
F2012.0
sg20
F164.67982
sg21
F-9.455
sg22
S'Typfrbfpcplfa3oso33ztcstw5e'
p1222
sg24
F0.618432
sg25
L6L
sg26
F0.439061034445
sg27
F0.054106
sa(dp1223
g3
F0.283787
sg4
S'Torn Hawk'
p1224
sg6
S'http://lh5.ggpht.com/_XUiU9Pu06ihw0fwsMruvt5UjZ0KB0TBfcAD-tHgqJQvpLE7rq7RAs6qMUwKEd3BwAK0brdXZUw'
p1225
sg8
F0.797162
sg9
S"I'm Flexible"
p1226
sg11
F159.925
sg12
F0.088578
sg13
S'329ea40b-ceee-3bd0-b56d-a0f1a5d94995'
p1227
sg15
F0.000289
sg16
I3
sg17
F0.506863
sg18
F4.0
sg19
F2014.0
sg20
F349.69819
sg21
F-7.856
sg22
S'Tczawysdd5zxgbjsvmowzd65tiy'
p1228
sg24
F0.506188
sg25
L6L
sg26
F0.505085747993
sg27
F0.856313
sa(dp1229
g3
F0.249077
sg4
S'Kelley Stoltz'
p1230
sg6
S'http://lh3.ggpht.com/h3N48N_f_4Ehg4AqGwcTolRzMHnzlok_dnv2ZM79xs6n3QfHE-_mDrE-Kllbr4dFxIcxdm0TWw'
p1231
sg8
F0.804271
sg9
S'Double Exposure'
p1232
sg11
F136.477
sg12
F0.037397
sg13
S'6f01aabb-7219-39a3-bed6-47982681e6f0'
p1233
sg15
F0.001577
sg16
I3
sg17
F0.509203
sg18
F4.0
sg19
F2013.0
sg20
F163.97288
sg21
F-6.304
sg22
S'T4bbxwlqoohj4e36stnbl5uzbcm'
p1234
sg24
F0.897084
sg25
L6L
sg26
F0.47170933954
sg27
F0.126835
sa(dp1235
g3
F0.111614
sg4
g650
sg6
g651
sg8
F0.630527
sg9
S'Coming Down'
p1236
sg11
F156.032
sg12
F0.0389
sg13
S'ea36de16-25f4-3528-b3b8-2a67088c8589'
p1237
sg15
F0.050127
sg16
I3
sg17
F0.549475
sg18
F3.0
sg19
F2011.0
sg20
F176.26621
sg21
F-7.523
sg22
S'Tgyt2ghnntq7voevuutgkpx2xue'
p1238
sg24
F0.30577
sg25
L6L
sg26
F0.450018983089
sg27
F0.059244
sa(dp1239
g3
F0.068335
sg4
g650
sg6
g651
sg8
F0.723023
sg9
S'The Long Haul'
p1240
sg11
F161.124
sg12
F0.036045
sg13
S'fd9b10bc-de79-3a7f-a80c-f5f04c6ff934'
p1241
sg15
F0.008894
sg16
I3
sg17
F0.449545
sg18
F4.0
sg19
F2011.0
sg20
F256.82667
sg21
F-8.084
sg22
S'Tpgyi6bbjl44w7av6e6um2drjg4'
p1242
sg24
F0.548256
sg25
L6L
sg26
F0.450018983089
sg27
F0.01775
sa(dp1243
g3
F0.069058
sg4
g190
sg6
g191
sg8
F0.691697
sg9
S"It's Just Us"
p1244
sg11
F139.963
sg12
F0.279152
sg13
S'1f04a27e-faf4-326b-9954-ded26579c678'
p1245
sg15
F0.001001
sg16
I3
sg17
F0.80204
sg18
F4.0
sg19
F2013.0
sg20
F195.3317
sg21
F-6.416
sg22
S'Twmpab7uikmdnw6nzk5qfdsvuia'
p1246
sg24
F0.746087
sg25
L6L
sg26
F0.334559809193
sg27
F2e-06
sa(dp1247
g3
F0.245495
sg4
g664
sg6
g665
sg8
F0.809897
sg9
S"I'll Go to My Helix"
p1248
sg11
F140.027
sg12
F0.034914
sg13
S'f196516c-0c50-3b13-b58d-f74398663efb'
p1249
sg15
F0.885055
sg16
I3
sg17
F0.635373
sg18
F4.0
sg19
F2007.0
sg20
F203.13156
sg21
F-10.394
sg22
S'Tnjwbym5imlshjnksaf7i4hn2vy'
p1250
sg24
F0.500484
sg25
L6L
sg26
F0.275994516708
sg27
F0.896825
sa(dp1251
g3
F0.201845
sg4
g664
sg6
g665
sg8
F0.393992
sg9
S'Warm Mushy Minds'
p1252
sg11
F159.988
sg12
F0.044187
sg13
S'd81d60d0-def6-3cc6-bf44-1ea80a34043b'
p1253
sg15
F0.019942
sg16
I3
sg17
F0.491327
sg18
F4.0
sg19
F2007.0
sg20
F198.07556
sg21
F-19.668
sg22
S'Tsvcv7z65oibv56jrgoeyfqjcby'
p1254
sg24
F0.178276
sg25
L6L
sg26
F0.275994516708
sg27
F0.591065
sa(dp1255
g3
F0.155824
sg4
g664
sg6
g665
sg8
F0.337295
sg9
S'As I Open the Door'
p1256
sg11
F139.954
sg12
F0.153615
sg13
S'ef9b3488-9b51-34c3-a481-48614ce3ad7c'
p1257
sg15
F0.042726
sg16
I3
sg17
F0.40641
sg18
F4.0
sg19
F2007.0
sg20
F360.76354
sg21
F-15.458
sg22
S'Ti47omzfdog7qdxp44h73d7frym'
p1258
sg24
F0.054957
sg25
L6L
sg26
F0.275994516708
sg27
F0.624006
sa(dp1259
g3
F0.118549
sg4
g172
sg6
g206
sg8
F0.56178
sg9
S'High Definition'
p1260
sg11
F155.406
sg12
F0.035035
sg13
S'7dc02f41-22d2-3ae2-b13c-1c9c214cfa1c'
p1261
sg15
F0.002833
sg16
I3
sg17
F0.207419
sg18
F4.0
sg19
F2011.0
sg20
F238.26621
sg21
F-7.553
sg22
S'Tpfy4wnzgwfxi5gumttdvrr6mgq'
p1262
sg24
F0.125722
sg25
L6L
sg26
F0.487558872394
sg27
F0.121572
sa(dp1263
g3
F0.114862
sg4
g211
sg6
g212
sg8
F0.646472
sg9
S'Gingerbread'
p1264
sg11
F160.005
sg12
F0.040572
sg13
S'c815f37f-f541-34de-a6d1-74cdfbe60ad4'
p1265
sg15
F0.012922
sg16
I3
sg17
F0.521786
sg18
F4.0
sg19
F2014.0
sg20
F268.99955
sg21
F-8.862
sg22
S'Tlau5ri6xh5777uvmwimi6ro3ca'
p1266
sg24
F0.114064
sg25
L6L
sg26
F0.386389068806
sg27
F0.865671
sa(dp1267
g3
F0.052999
sg4
g211
sg6
g212
sg8
F0.444343
sg9
S'Queue'
p1268
sg11
F139.99
sg12
F0.05773
sg13
S'29358bc9-db43-380e-a606-a95f2ffb68d1'
p1269
sg15
F0.007049
sg16
I3
sg17
F0.720337
sg18
F4.0
sg19
F2014.0
sg20
F253.99955
sg21
F-15.334
sg22
S'Teroetdciqnlicpxktgkrzeflky'
p1270
sg24
F0.380232
sg25
L6L
sg26
F0.386389068806
sg27
F0.776641
sa(dp1271
g3
F0.370365
sg4
g211
sg6
g212
sg8
F0.500344
sg9
S'Stack'
p1272
sg11
F140.03
sg12
F0.131029
sg13
S'4175a2d6-0c7a-307d-b295-63aca3dbc39a'
p1273
sg15
F0.072819
sg16
I3
sg17
F0.762336
sg18
F4.0
sg19
F2014.0
sg20
F163.14231
sg21
F-10.734
sg22
S'Tj76y6sw2djcnroavftny6lncxi'
p1274
sg24
F0.332579
sg25
L6L
sg26
F0.386389068806
sg27
F0.86675
sa(dp1275
g3
F0.057878
sg4
g211
sg6
g212
sg8
F0.562391
sg9
S'Vector'
p1276
sg11
F144.971
sg12
F0.078672
sg13
S'2f420b84-35b0-3139-ae9c-197d55c0689a'
p1277
sg15
F0.028009
sg16
I3
sg17
F0.747926
sg18
F4.0
sg19
F2014.0
sg20
F228.7581
sg21
F-14.278
sg22
S'Tougteh4oyhm7rx7qx45lktvqr4'
p1278
sg24
F0.571001
sg25
L6L
sg26
F0.386389068806
sg27
F0.757287
sa(dp1279
g3
F0.117991
sg4
g211
sg6
g212
sg8
F0.47591
sg9
S'Tree'
p1280
sg11
F135.0
sg12
F0.049734
sg13
S'b453fe99-1a99-338d-9797-0d29b35c7011'
p1281
sg15
F0.820178
sg16
I3
sg17
F0.682168
sg18
F4.0
sg19
F2014.0
sg20
F190.44399
sg21
F-14.316
sg22
S'T5vdry6faweqgsvwstrfq5ltq2q'
p1282
sg24
F0.075558
sg25
L6L
sg26
F0.386389068806
sg27
F0.917369
sa(dp1283
g3
F0.136806
sg4
g211
sg6
g212
sg8
F0.85678
sg9
S'Key Lime Pie'
p1284
sg11
F159.996
sg12
F0.045823
sg13
S'aefbb9b9-de5c-30a4-bf38-7614faeb6335'
p1285
sg15
F2.2e-05
sg16
I3
sg17
F0.642662
sg18
F4.0
sg19
F2014.0
sg20
F222.4995
sg21
F-9.807
sg22
S'Tlr6x4yl57y7darbd3chtngtwau'
p1286
sg24
F0.928311
sg25
L6L
sg26
F0.386389068806
sg27
F0.934967
sa(dp1287
g3
F0.127881
sg4
g217
sg6
g218
sg8
F0.1099
sg9
S'"Tuesday" from Holding On'
p1288
sg11
F137.323
sg12
F0.034681
sg13
S'b1658821-852d-360e-be2b-24b56ae827e1'
p1289
sg15
F0.76527
sg16
I3
sg17
F0.291528
sg18
F5.0
sg19
F2008.0
sg20
F71.27955
sg21
F-19.455
sg22
S'Tyjbmltfj4j4e4aarnqldynspua'
p1290
sg24
F0.038062
sg25
L6L
sg26
F0.273430095496
sg27
F0.746841
sa(dp1291
g3
F0.096371
sg4
g217
sg6
g218
sg8
F0.11307
sg9
S'Unused End Credits'
p1292
sg11
F141.414
sg12
F0.042711
sg13
S'a57b5dcf-6559-39ae-a8fc-f6c7d0d76144'
p1293
sg15
F0.906275
sg16
I3
sg17
F0.189625
sg18
F3.0
sg19
F2008.0
sg20
F102.33288
sg21
F-21.281
sg22
S'Tsudbrpclw6jtoktowe7gnvdbey'
p1294
sg24
F0.108585
sg25
L6L
sg26
F0.273430095496
sg27
F0.988275
sa(dp1295
g3
F0.131369
sg4
g237
sg6
g238
sg8
F0.72793
sg9
S'Party Crash'
p1296
sg11
F139.96
sg12
F0.095229
sg13
S'34397001-6af4-3aee-a65a-24810ed135e0'
p1297
sg15
F0.005534
sg16
I3
sg17
F0.761185
sg18
F4.0
sg19
F2013.0
sg20
F275.37088
sg21
F-9.593
sg22
S'Tk73zf3juzhgyp63zqp4k6pkvgu'
p1298
sg24
F0.736806
sg25
L6L
sg26
F0.252932913188
sg27
F0.099891
sa(dp1299
g3
F0.076952
sg4
g237
sg6
g238
sg8
F0.874226
sg9
S'Dark Thoughts'
p1300
sg11
F139.232
sg12
F0.116169
sg13
S'3aca7094-0e90-3cc0-9f3f-c8c98af78613'
p1301
sg15
F0.051981
sg16
I3
sg17
F0.499547
sg18
F4.0
sg19
F2013.0
sg20
F255.46558
sg21
F-6.747
sg22
S'Tkcibsuonwrpn2lgkypld7wx4cm'
p1302
sg24
F0.664316
sg25
L6L
sg26
F0.252932913188
sg27
F0.002758
sa(dp1303
g3
F0.165514
sg4
g237
sg6
g238
sg8
F0.733137
sg9
S'Gangsta Snaps'
p1304
sg11
F140.0
sg12
F0.177883
sg13
S'e97b7585-5ace-33cf-a80a-1b158c55c9d0'
p1305
sg15
F0.074045
sg16
I3
sg17
F0.834044
sg18
F4.0
sg19
F2013.0
sg20
F281.0917
sg21
F-8.872
sg22
S'Tos6cxmxp4zgpaujwbr4sf3b66y'
p1306
sg24
F0.819311
sg25
L6L
sg26
F0.252932913188
sg27
F0.001471
sa(dp1307
g3
F0.10082
sg4
g237
sg6
g238
sg8
F0.590338
sg9
S'CrossBreed'
p1308
sg11
F139.914
sg12
F0.053822
sg13
S'2d656c70-67d8-3abf-a4aa-d6bd663a5ac1'
p1309
sg15
F0.000147
sg16
I3
sg17
F0.64293
sg18
F4.0
sg19
F2013.0
sg20
F301.75456
sg21
F-9.164
sg22
S'Tjjvcgfzlgyycclc2frlzl4225u'
p1310
sg24
F0.499096
sg25
L6L
sg26
F0.252932913188
sg27
F0.004984
saa(lp1311
(dp1312
g3
F0.090593
sg4
S'Paramore'
p1313
sg6
S'http://lh6.ggpht.com/n79ma1GC5eGh6eMr9wWnAoElTcSD6gZYGGi6ZbUzI2FEXVx6fOzTVmzQS3f1jEIuBd6x0wcHizE'
p1314
sg8
F0.894473
sg9
S"Ain't it fun"
p1315
sg11
F104.07
sg12
F0.107239
sg13
S'0d6d61c1-8c3b-39bc-a884-763db5063468'
p1316
sg15
F0.168065
sg16
I4
sg17
F0.635435
sg18
F4.0
sg19
F2013.0
sg20
F220.85873
sg21
F-3.457
sg22
S'Tzf7d2wsb3eqgosyy34ob2nhzha'
p1317
sg24
F0.689844
sg25
L4L
sg26
F0.402165130573
sg27
F0.000264
sa(dp1318
g3
F0.741292
sg4
g5
sg6
g7
sg8
F0.988793
sg9
S'Celebrated Summer'
p1319
sg11
F110.951
sg12
F0.13355
sg13
S'029303d6-8209-37a4-b0ca-1feff5b0950e'
p1320
sg15
F0.024074
sg16
I4
sg17
F0.227757
sg18
F4.0
sg19
F2012.0
sg20
F220.65288
sg21
F-4.376
sg22
S'Teee4e3ii54r3ha2wchbt3ombue'
p1321
sg24
F0.099879
sg25
L6L
sg26
F0.477314504435
sg27
F0.101425
sa(dp1322
g3
F0.112827
sg4
g258
sg6
g259
sg8
F0.513172
sg9
S'Typical Situation'
p1323
sg11
F110.144
sg12
F0.056832
sg13
S'e18e1be5-f93a-3ffd-85ae-978e479081a6'
p1324
sg15
F0.223218
sg16
I4
sg17
F0.35606
sg18
F4.0
sg19
F2011.0
sg20
F357.66667
sg21
F-9.478
sg22
S'Tkxq7pvvgdn64fqnrjwj6ji36im'
p1325
sg24
F0.245124
sg25
L6L
sg26
F0.381223175296
sg27
F3e-06
sa(dp1326
g3
F0.49226
sg4
g258
sg6
g259
sg8
F0.59431
sg9
S'Jimi Thing'
p1327
sg11
F96.232
sg12
F0.054819
sg13
S'df082f2e-8cb4-3a75-a1b3-ce473b2473d3'
p1328
sg15
F0.053667
sg16
I4
sg17
F0.480039
sg18
F4.0
sg19
F2011.0
sg20
F851.90485
sg21
F-15.76
sg22
S'Tfz7cofkhrhgnb7ivxq2vnwjjry'
p1329
sg24
F0.467242
sg25
L6L
sg26
F0.381223175296
sg27
F0.00036
sa(dp1330
g3
F0.995975
sg4
g258
sg6
g259
sg8
F0.680163
sg9
S'Dancing Nancies'
p1331
sg11
F108.746
sg12
F0.050117
sg13
S'8d5809d3-a581-3783-8563-74cf0665a4f5'
p1332
sg15
F0.631317
sg16
I4
sg17
F0.401177
sg18
F4.0
sg19
F2011.0
sg20
F491.89288
sg21
F-10.662
sg22
S'T5pcng3hj25fbdtqa6askfgnjgu'
p1333
sg24
F0.588296
sg25
L6L
sg26
F0.381223175296
sg27
F0.000412
sa(dp1334
g3
F0.946814
sg4
g258
sg6
g259
sg8
F0.518542
sg9
S'Ants Marching'
p1335
sg11
F109.029
sg12
F0.048423
sg13
S'99abe840-38f9-30d7-8f3a-a13f9027b1df'
p1336
sg15
F0.404146
sg16
I4
sg17
F0.600029
sg18
F4.0
sg19
F2011.0
sg20
F361.89333
sg21
F-13.682
sg22
S'Taa35hesnw4ed2q5nhcflz2ajfi'
p1337
sg24
F0.762312
sg25
L6L
sg26
F0.381223175296
sg27
F7e-06
sa(dp1338
g3
F0.679387
sg4
g258
sg6
g259
sg8
F0.478698
sg9
S'Say Goodbye'
p1339
sg11
F102.438
sg12
F0.047663
sg13
S'fc22a7c0-4744-30d3-8024-d0da4821b6e3'
p1340
sg15
F0.252648
sg16
I4
sg17
F0.409587
sg18
F4.0
sg19
F2011.0
sg20
F521.27302
sg21
F-17.905
sg22
S'Tmruhh36m4qz3cs6wqzh3ehz2w4'
p1341
sg24
F0.215042
sg25
L6L
sg26
F0.381223175296
sg27
F0.001227
sa(dp1342
g3
F0.984992
sg4
g258
sg6
g259
sg8
F0.86857
sg9
S'One Sweet World (2.25.10)'
p1343
sg11
F103.692
sg12
F0.10245
sg13
S'babd71d5-02e8-3c06-9333-ea0c52480f8b'
p1344
sg15
F0.064524
sg16
I4
sg17
F0.393021
sg18
F4.0
sg19
F2011.0
sg20
F434.77451
sg21
F-6.662
sg22
S'Tvzitfz7i5kch7oujlokryejsby'
p1345
sg24
F0.42208
sg25
L6L
sg26
F0.381223175296
sg27
F0.011752
sa(dp1346
g3
F0.14228
sg4
g258
sg6
g259
sg8
F0.898703
sg9
S'Halloween'
p1347
sg11
F111.157
sg12
F0.057786
sg13
S'f4e2ae35-1b45-3274-81cb-bf80ff983c9f'
p1348
sg15
F0.097279
sg16
I4
sg17
F0.585067
sg18
F4.0
sg19
F2011.0
sg20
F307.93333
sg21
F-5.071
sg22
S'Tqhnwtaefqq7ett2264yqp4h5je'
p1349
sg24
F0.449565
sg25
L6L
sg26
F0.381223175296
sg27
F0.000101
sa(dp1350
g3
F0.493363
sg4
S'The Ramones'
p1351
sg6
S'http://lh3.ggpht.com/iSOHMYMrHbjGXcpdcjed1LP-5FBKmtY2jekLNVs_SD0TN-oOIKbW5smG1vdagpAswwHFCd2N'
p1352
sg8
F0.757064
sg9
S'Rockaway Beach'
p1353
sg11
F98.296
sg12
F0.050496
sg13
S'9dc5a186-5145-3615-b4c4-94daee5ce188'
p1354
sg15
F0.001155
sg16
I4
sg17
F0.342374
sg18
F4.0
sg19
F2009.0
sg20
F147.53333
sg21
F-11.727
sg22
S'Tfyaw5qvqp22ij4pwqtn4hegzga'
p1355
sg24
F0.737457
sg25
L6L
sg26
F0.29736985343
sg27
F0.000661
sa(dp1356
g3
F0.121774
sg4
S'Ararur'
p1357
sg6
g34
sg8
F0.297548
sg9
S'Archa\xc3\xafko - Jazz With Vocals Album'
p1358
sg11
F91.006
sg12
F0.049438
sg13
S'535fc3b5-577e-35f7-bb18-14b923750d8a'
p1359
sg15
F0.891406
sg16
I4
sg17
F0.504315
sg18
F1.0
sg19
F2014.0
sg20
F451.52608
sg21
F-13.144
sg22
S'Tinallpqlrcd5cn5nk6s4ugkvwe'
p1360
sg24
F0.393609
sg25
L6L
sg26
F0.308059832776
sg27
F0.009416
sa(dp1361
g3
F0.257887
sg4
S'Fold'
p1362
sg6
g34
sg8
F0.952564
sg9
S'Salvation - Spoken Word (with Music Accompaniment) Song (feat. Mr Gee)'
p1363
sg11
F101.034
sg12
F0.074036
sg13
S'cf88f568-1478-3a13-824e-d40f3400a15a'
p1364
sg15
F0.014799
sg16
I4
sg17
F0.539875
sg18
F4.0
sg19
F2014.0
sg20
F186.09587
sg21
F-5.297
sg22
S'Tzxelel6f5e3duzuosjrrbpdlvi'
p1365
sg24
F0.69679
sg25
L6L
sg26
F0.425636904781
sg27
F0.211756
sa(dp1366
g3
F0.110004
sg4
S"Robert Walter's 20th Congress"
p1367
sg6
g34
sg8
F0.907972
sg9
S'Hunk - Funk / Fusion / Jam Album'
p1368
sg11
F95.788
sg12
F0.067495
sg13
S'9646c33f-985e-3a81-9deb-4690319dffed'
p1369
sg15
F0.017254
sg16
I4
sg17
F0.756042
sg18
F4.0
sg19
F2014.0
sg20
F241.26649
sg21
F-6.064
sg22
S'Tix6vghj2bbay7qwj3k6ah2rhdy'
p1370
sg24
F0.906728
sg25
L6L
sg26
F0.428165490956
sg27
F0.371074
sa(dp1371
g3
F0.087666
sg4
S'Scarecrow'
p1372
sg6
g34
sg8
F0.29466
sg9
S'Evil and Crossroads - Blues Album'
p1373
sg11
F97.061
sg12
F0.211026
sg13
S'f03cb5dc-ca32-3315-82d8-7805a897b7bb'
p1374
sg15
F0.119558
sg16
I4
sg17
F0.840959
sg18
F4.0
sg19
F2014.0
sg20
F249.59955
sg21
F-14.366
sg22
S'Tjfoz3jzszl46yvliggzr3dedni'
p1375
sg24
F0.180929
sg25
L6L
sg26
F0.467981504505
sg27
F0.000196
sa(dp1376
g3
F0.075758
sg4
S'Hilary Weeks'
p1377
sg6
g34
sg8
F0.457669
sg9
S'Say Love - Contemporary Christian / Gospel Album'
p1378
sg11
F106.981
sg12
F0.029265
sg13
S'33e9f510-daf4-348b-9205-6d2e0e2e97ea'
p1379
sg15
F0.162804
sg16
I4
sg17
F0.613915
sg18
F4.0
sg19
F2014.0
sg20
F236.14649
sg21
F-7.896
sg22
S'Trmg4gaxr4g3agv4todj6mejm3q'
p1380
sg24
F0.299011
sg25
L6L
sg26
F0.458357506423
sg27
F3e-06
sa(dp1381
g3
F0.124294
sg4
S'Maddy Rodriguez'
p1382
sg6
g34
sg8
F0.666091
sg9
S'Some Nights (Cecilia) - (Orig. by Fun. / Simon & Garfunkel) - Cover Song'
p1383
sg11
F108.023
sg12
F0.034691
sg13
S'f26f054e-f2f8-34d1-a0c3-0a238b1a0a9a'
p1384
sg15
F0.23728
sg16
I4
sg17
F0.619342
sg18
F4.0
sg19
F2014.0
sg20
F275.98322
sg21
F-5.355
sg22
S'T2whfkss5ymqjnzanxfx25szjyi'
p1385
sg24
F0.635094
sg25
L6L
sg26
F0.314817881956
sg27
F2.1e-05
sa(dp1386
g3
F0.352625
sg4
S'Jean Rohe'
p1387
sg6
g34
sg8
F0.713607
sg9
S'Umbrella - Story Song'
p1388
sg11
F97.285
sg12
F0.113137
sg13
S'7be573e5-8567-3a67-9ce8-abcdc3bf0bc6'
p1389
sg15
F0.279494
sg16
I4
sg17
F0.549263
sg18
F4.0
sg19
F2014.0
sg20
F351.92118
sg21
F-7.243
sg22
S'Tqzddsj6vpmqb5vtex4lw3fwiye'
p1390
sg24
F0.729726
sg25
L6L
sg26
F0.296439051324
sg27
F0.000173
sa(dp1391
g3
F0.108543
sg4
g292
sg6
g293
sg8
F0.789953
sg9
S'Turn Out'
p1392
sg11
F90.049
sg12
F0.035427
sg13
S'bf15b6c7-9de8-3302-86ef-ac746b6ad2d7'
p1393
sg15
F0.052505
sg16
I4
sg17
F0.660419
sg18
F4.0
sg19
F2012.0
sg20
F230.47791
sg21
F-5.929
sg22
S'Tgzi73nozpi2phjju6zqgei72ea'
p1394
sg24
F0.503032
sg25
L6L
sg26
F0.309031421999
sg27
F3.1e-05
sa(dp1395
g3
F0.073711
sg4
g60
sg6
S'http://lh3.ggpht.com/Sm3LfPh2pVCBAtFRfBkZOY4g_hxqknre1GmURs9DqdQl3HsLcYU84hPmkoqYutN3wlBDfjLNeUw'
p1396
sg8
F0.692904
sg9
S'De-Stress'
p1397
sg11
F96.967
sg12
F0.067373
sg13
S'973f8525-ef97-38ab-a493-e872d7ae4e96'
p1398
sg15
F0.042693
sg16
I4
sg17
F0.848715
sg18
F4.0
sg19
F2014.0
sg20
F223.02621
sg21
F-6.374
sg22
S'Tif5gwo2mf7z5a4hhw6ivbimypy'
p1399
sg24
F0.812565
sg25
L6L
sg26
F0.451966312978
sg27
F1e-06
sa(dp1400
g3
F0.314415
sg4
g304
sg6
g305
sg8
F0.586208
sg9
S'Face the Music'
p1401
sg11
F102.26
sg12
F0.091712
sg13
S'f8ccf270-0bae-3a23-ab2f-7d6ad5168bca'
p1402
sg15
F0.01875
sg16
I4
sg17
F0.832224
sg18
F4.0
sg19
F2013.0
sg20
F221.30041
sg21
F-8.12
sg22
S'T66jef6x57bzpjva27vmebqrzuq'
p1403
sg24
F0.283424
sg25
L6L
sg26
F0.439177508455
sg27
F2.4e-05
sa(dp1404
g3
F0.138389
sg4
g316
sg6
g317
sg8
F0.526636
sg9
S'How They Want Me To Be'
p1405
sg11
F106.317
sg12
F0.025082
sg13
S'e6afae31-b9f0-3046-b927-79f57266f01a'
p1406
sg15
F0.534604
sg16
I4
sg17
F0.52702
sg18
F4.0
sg19
F2012.0
sg20
F232.47302
sg21
F-8.38
sg22
S'Tdicxlu7nrep4ufvcfgbnm3ipuy'
p1407
sg24
F0.325479
sg25
L6L
sg26
F0.468873175959
sg27
F0.002193
sa(dp1408
g3
F0.10218
sg4
g316
sg6
g317
sg8
F0.515314
sg9
S'Last Year'
p1409
sg11
F94.659
sg12
F0.025284
sg13
S'b16ff455-be8f-3e75-a41e-15395ebf85e1'
p1410
sg15
F0.004788
sg16
I4
sg17
F0.501094
sg18
F3.0
sg19
F2012.0
sg20
F213.22621
sg21
F-7.374
sg22
S'Tvtfqmw4fetizmqnjvjhjscjgyq'
p1411
sg24
F0.616961
sg25
L6L
sg26
F0.468873175959
sg27
F1e-06
sa(dp1412
g3
F0.193944
sg4
g316
sg6
g317
sg8
F0.80422
sg9
S'The Only Place'
p1413
sg11
F105.455
sg12
F0.029271
sg13
S'e25de644-5643-31e7-b874-bf6d9b8a2ce3'
p1414
sg15
F0.001398
sg16
I4
sg17
F0.551381
sg18
F4.0
sg19
F2012.0
sg20
F162.66621
sg21
F-6.549
sg22
S'Tnjah34hehfcexhsott2zvstetq'
p1415
sg24
F0.708936
sg25
L6L
sg26
F0.468873175959
sg27
F0.000183
sa(dp1416
g3
F0.070995
sg4
g217
sg6
g326
sg8
F0.073962
sg9
S'"The Retrospective / End Credits" from Insignia'
p1417
sg11
F110.999
sg12
F0.058726
sg13
S'846e4a01-3752-371d-a840-1b63dc42f99f'
p1418
sg15
F0.984689
sg16
I4
sg17
F0.468001
sg18
F3.0
sg19
F2006.0
sg20
F91.31955
sg21
F-23.537
sg22
S'Tix3utwxfeopz2m2xh466tafcbe'
p1419
sg24
F0.243531
sg25
L6L
sg26
F0.273430095496
sg27
F0.973361
sa(dp1420
g3
F0.097516
sg4
S'LIV'
p1421
sg6
S'http://lh3.ggpht.com/iAhtsjioBovPE0Yz0OSCXHxfMwVSZ8mdmtan3czsD0FHEw6mUeIHMHojXJlX3s6iExwwoujWli8'
p1422
sg8
F0.177545
sg9
S'Good Christian Friends  Rejoice'
p1423
sg11
F110.319
sg12
F0.055385
sg13
S'f573b191-ca21-31a1-9594-47e22958707e'
p1424
sg15
F0.984475
sg16
I4
sg17
F0.55923
sg18
F4.0
sg19
F2012.0
sg20
F121.70621
sg21
F-15.477
sg22
S'Tizkveedriqkvjbdchebsdiulba'
p1425
sg24
F0.462483
sg25
L6L
sg26
F0.354734404735
sg27
F0.003066
sa(dp1426
g3
F0.333886
sg4
g343
sg6
g344
sg8
F0.850832
sg9
S'Faster'
p1427
sg11
F107.018
sg12
F0.038588
sg13
S'b272c043-9dbe-3b3b-b8ad-cefa95842f8b'
p1428
sg15
F0.009181
sg16
I4
sg17
F0.742982
sg18
F4.0
sg19
F2011.0
sg20
F208.27955
sg21
F-4.17
sg22
S'Tx7bi32l6sw7ftuwtcv6guvs354'
p1429
sg24
F0.953739
sg25
L6L
sg26
F0.499727972349
sg27
F8e-06
sa(dp1430
g3
F0.336811
sg4
S'The Black Dahlia Murder'
p1431
sg6
S'http://lh6.ggpht.com/3WyXXSw30T9ZhePnUr93-mqE9_hIqSArCM23V9jmXoV0LgtJzzm3X_PEFM6AVV-DsZG1jZES'
p1432
sg8
F0.973737
sg9
S'Moonlight Equilibrium'
p1433
sg11
F108.955
sg12
F0.079588
sg13
S'db47b36f-3cb0-3dd4-8550-9777d7f0f0a4'
p1434
sg15
F3e-05
sg16
I4
sg17
F0.477216
sg18
F4.0
sg19
F2011.0
sg20
F208.4683
sg21
F-6.292
sg22
S'Tiqjo63otmb4x6oh5iogkrtbmo4'
p1435
sg24
F0.328289
sg25
L6L
sg26
F0.380335878318
sg27
F0.878772
sa(dp1436
g3
F0.111155
sg4
g349
sg6
S'http://lh4.ggpht.com/YWovItsp40uXrf9wFan0i-x5eiAneLkz7g74O1XlNu_VekGekgo-8bnOIBc97oIH2UCbSqLajA'
p1437
sg8
F0.248191
sg9
S'White Dove'
p1438
sg11
F100.067
sg12
F0.031263
sg13
S'babaa23b-b9a0-3232-a992-b8a09532937a'
p1439
sg15
F0.789648
sg16
I4
sg17
F0.24073
sg18
F4.0
sg19
F2006.0
sg20
F186.41288
sg21
F-12.185
sg22
S'Tpvcyinqxziqhmykz37x3w5gqeu'
p1440
sg24
F0.232742
sg25
L6L
sg26
F0.553378844811
sg27
F0.667771
sa(dp1441
g3
F0.060042
sg4
g1009
sg6
g1010
sg8
F0.816924
sg9
S'Do The Trick'
p1442
sg11
F97.71
sg12
F0.029784
sg13
S'f784e2af-0ff3-3d91-9727-0d70e46d32b6'
p1443
sg15
F0.182439
sg16
I4
sg17
F0.549465
sg18
F4.0
sg19
F2012.0
sg20
F272.44517
sg21
F-4.861
sg22
S'Trs44g52i72igzsxxdzr4m7hnba'
p1444
sg24
F0.848776
sg25
L6L
sg26
F0.44277217852
sg27
F3e-06
sa(dp1445
g3
F0.680955
sg4
g1009
sg6
g1010
sg8
F0.901423
sg9
S'That Old Black Hole'
p1446
sg11
F97.366
sg12
F0.065156
sg13
S'76b729e9-4092-3bb4-8241-5f4c58a8d455'
p1447
sg15
F0.001734
sg16
I4
sg17
F0.45891
sg18
F4.0
sg19
F2012.0
sg20
F228.32952
sg21
F-7.135
sg22
S'Tkxnmff3wwf564n257mghxzyfzy'
p1448
sg24
F0.59184
sg25
L6L
sg26
F0.44277217852
sg27
F0.014862
sa(dp1449
g3
F0.090198
sg4
g76
sg6
g376
sg8
F0.715897
sg9
S'Turn and Dub'
p1450
sg11
F90.023
sg12
F0.040442
sg13
S'99b009eb-3da9-3272-88d6-12cd7e93704d'
p1451
sg15
F0.025117
sg16
I4
sg17
F0.712105
sg18
F4.0
sg19
F2011.0
sg20
F455.61333
sg21
F-6.125
sg22
S'Tgszg7yvv77hghldmo7mcezfcou'
p1452
sg24
F0.533935
sg25
L6L
sg26
F0.415381464026
sg27
F0.045025
sa(dp1453
g3
F0.673882
sg4
g76
sg6
g376
sg8
F0.501421
sg9
S'Glory'
p1454
sg11
F102.361
sg12
F0.031955
sg13
S'6b6c07fc-b85a-348a-ac33-5b413df063c4'
p1455
sg15
F0.35736
sg16
I4
sg17
F0.291331
sg18
F4.0
sg19
F2011.0
sg20
F296.33261
sg21
F-13.653
sg22
S'Tp43l5gihqgq3fqcj753k26pmxa'
p1456
sg24
F0.176022
sg25
L6L
sg26
F0.415381464026
sg27
F0.828454
sa(dp1457
g3
F0.245253
sg4
g76
sg6
g376
sg8
F0.537843
sg9
S'2x2'
p1458
sg11
F101.989
sg12
F0.034254
sg13
S'f9785e64-90d4-33ac-919f-c95d3b7d6876'
p1459
sg15
F0.01439
sg16
I4
sg17
F0.402734
sg18
F4.0
sg19
F2011.0
sg20
F695.78549
sg21
F-12.948
sg22
S'Tah2nnuunlnsobep3pj6oioot7i'
p1460
sg24
F0.187079
sg25
L6L
sg26
F0.415381464026
sg27
F0.054119
sa(dp1461
g3
F0.736986
sg4
g76
sg6
g376
sg8
F0.415023
sg9
S'Hajimemashite'
p1462
sg11
F103.378
sg12
F0.036912
sg13
S'9e13b90b-715e-37d6-a826-de5d0e13c045'
p1463
sg15
F0.8367
sg16
I4
sg17
F0.302663
sg18
F4.0
sg19
F2011.0
sg20
F518.60853
sg21
F-21.119
sg22
S'Teuh3wh2cvg2h7sofcqstw4nw2a'
p1464
sg24
F0.357704
sg25
L6L
sg26
F0.415381464026
sg27
F0.643514
sa(dp1465
g3
F0.245253
sg4
g76
sg6
g376
sg8
F0.537843
sg9
g1458
sg11
F101.989
sg12
F0.034254
sg13
S'5003d10c-e367-37a8-a5d4-e120b450ed39'
p1466
sg15
F0.01439
sg16
I4
sg17
F0.402734
sg18
F4.0
sg19
F2011.0
sg20
F695.78549
sg21
F-12.948
sg22
S'Temjqwb6oqmf7b7yqpm3qjokzve'
p1467
sg24
F0.187079
sg25
L6L
sg26
F0.415381464026
sg27
F0.054119
sa(dp1468
g3
F0.122302
sg4
g76
sg6
g376
sg8
F0.621438
sg9
S'End Of The Road'
p1469
sg11
F99.269
sg12
F0.0318
sg13
S'572b60f2-f470-32b9-b1eb-7c7cd58ec202'
p1470
sg15
F0.88532
sg16
I4
sg17
F0.257019
sg18
F4.0
sg19
F2011.0
sg20
F186.57288
sg21
F-10.007
sg22
S'Teujkcw7uzw3daz7m6tuhwcelpa'
p1471
sg24
F0.334279
sg25
L6L
sg26
F0.415381464026
sg27
F0.944632
sa(dp1472
g3
F0.465085
sg4
g76
sg6
g376
sg8
F0.585189
sg9
S'August'
p1473
sg11
F103.688
sg12
F0.031755
sg13
S'6ff8d930-cb6a-3c1e-8105-b2cf1bb9c35c'
p1474
sg15
F0.594032
sg16
I4
sg17
F0.467086
sg18
F4.0
sg19
F2011.0
sg20
F467.32435
sg21
F-15.271
sg22
S'Txxmsirkrbfyqsrduztcufnu3ai'
p1475
sg24
F0.468435
sg25
L6L
sg26
F0.415381464026
sg27
F0.675192
sa(dp1476
g3
F0.847409
sg4
g76
sg6
g376
sg8
F0.509892
sg9
S"Partyin' Peeps"
p1477
sg11
F98.65
sg12
F0.040628
sg13
S'ada5a566-f7f3-3425-b292-314c564311ce'
p1478
sg15
F0.372976
sg16
I4
sg17
F0.569149
sg18
F4.0
sg19
F2011.0
sg20
F473.36154
sg21
F-16.238
sg22
S'Tfcyv6jbnorjy5sr5uqsvalw2bq'
p1479
sg24
F0.531608
sg25
L6L
sg26
F0.415381464026
sg27
F0.578872
sa(dp1480
g3
F0.900277
sg4
g76
sg6
g77
sg8
F0.478125
sg9
S'Ringo'
p1481
sg11
F98.589
sg12
F0.054291
sg13
S'bbce6e31-2af6-390f-b40b-adb82ffc4523'
p1482
sg15
F0.622379
sg16
I4
sg17
F0.504299
sg18
F4.0
sg19
F2011.0
sg20
F311.4488
sg21
F-19.534
sg22
S'T2cur7mm3vmxqfjtuaplllded3q'
p1483
sg24
F0.601321
sg25
L6L
sg26
F0.415381464026
sg27
F0.398542
sa(dp1484
g3
F0.951079
sg4
g76
sg6
g77
sg8
F0.622982
sg9
S'Bridgeless'
p1485
sg11
F105.99
sg12
F0.052487
sg13
S'c227bff2-a817-3135-a896-aa2abc97bf07'
p1486
sg15
F0.113679
sg16
I4
sg17
F0.554666
sg18
F4.0
sg19
F2011.0
sg20
F564.13995
sg21
F-16.22
sg22
S'Trm2lbqjlcdlkwqsst3gxwwu2vi'
p1487
sg24
F0.351475
sg25
L6L
sg26
F0.415381464026
sg27
F0.001667
sa(dp1488
g3
F0.308845
sg4
g76
sg6
g77
sg8
F0.50215
sg9
S'The Haunt'
p1489
sg11
F102.256
sg12
F0.032281
sg13
S'e8839246-3599-3363-b435-e0231bb207af'
p1490
sg15
F0.181945
sg16
I4
sg17
F0.430221
sg18
F4.0
sg19
F2011.0
sg20
F645.39819
sg21
F-13.403
sg22
S'T26h2itwwzyxwqaiuwladbmwrhm'
p1491
sg24
F0.118054
sg25
L6L
sg26
F0.415381464026
sg27
F0.753941
sa(dp1492
g3
F0.673882
sg4
g76
sg6
g77
sg8
F0.501421
sg9
g1454
sg11
F102.361
sg12
F0.031955
sg13
S'93184f6c-cfeb-3fa8-a040-c81fcf2e2125'
p1493
sg15
F0.35736
sg16
I4
sg17
F0.291331
sg18
F4.0
sg19
F2011.0
sg20
F296.33261
sg21
F-13.653
sg22
S'Tmq3izaxk2oh535wz74x22pufri'
p1494
sg24
F0.176022
sg25
L6L
sg26
F0.415381464026
sg27
F0.828454
sa(dp1495
g3
F0.119825
sg4
g76
sg6
g77
sg8
F0.311775
sg9
S'Mantis'
p1496
sg11
F100.362
sg12
F0.032594
sg13
S'1dd9d6ca-54ee-3ad1-a175-433da00327e7'
p1497
sg15
F0.336935
sg16
I4
sg17
F0.332457
sg18
F4.0
sg19
F2011.0
sg20
F740.77995
sg21
F-20.42
sg22
S'Tpusym3prh3zvqshdryi6ofn3yq'
p1498
sg24
F0.274851
sg25
L6L
sg26
F0.415381464026
sg27
F0.661014
sa(dp1499
g3
F0.119825
sg4
g76
sg6
g77
sg8
F0.311775
sg9
g1496
sg11
F100.362
sg12
F0.032594
sg13
S'c2197aab-467f-35fa-ab74-53a928dbed26'
p1500
sg15
F0.336935
sg16
I4
sg17
F0.332457
sg18
F4.0
sg19
F2011.0
sg20
F740.77995
sg21
F-20.42
sg22
S'Tdgnicopxkrbcipuwlnqyfwy3lq'
p1501
sg24
F0.274851
sg25
L6L
sg26
F0.415381464026
sg27
F0.661014
sa(dp1502
g3
F0.938948
sg4
g76
sg6
g376
sg8
F0.757323
sg9
S'Immigrant Song'
p1503
sg11
F111.465
sg12
F0.058713
sg13
S'e064d832-7836-37b2-951a-d392477205b9'
p1504
sg15
F0.612588
sg16
I4
sg17
F0.478219
sg18
F4.0
sg19
F2011.0
sg20
F244.80753
sg21
F-13.251
sg22
S'Tkkx3plyhc4mm2y3tncu2pq2a74'
p1505
sg24
F0.260446
sg25
L6L
sg26
F0.415381464026
sg27
F0.016244
sa(dp1506
g3
F0.980844
sg4
g76
sg6
g415
sg8
F0.501346
sg9
S'The Bottom Half'
p1507
sg11
F96.632
sg12
F0.041055
sg13
S'8a2b6052-c7f5-3e3a-8938-44c73c54cb70'
p1508
sg15
F0.434847
sg16
I4
sg17
F0.50809
sg18
F4.0
sg19
F2010.0
sg20
F481.23311
sg21
F-13.135
sg22
S'Tpargiezibsp6mqvm4mh7hwl5aa'
p1509
sg24
F0.222856
sg25
L6L
sg26
F0.415381464026
sg27
F0.635267
sa(dp1510
g3
F0.101423
sg4
g76
sg6
g415
sg8
F0.693003
sg9
S'Intentions Clear'
p1511
sg11
F106.071
sg12
F0.054087
sg13
S'327cfea0-9af3-3e3b-be71-a5d1d202db39'
p1512
sg15
F0.080508
sg16
I4
sg17
F0.664405
sg18
F4.0
sg19
F2010.0
sg20
F350.83955
sg21
F-8.996
sg22
S'Tirsmmr55ij5hxtsgztp6x4uecm'
p1513
sg24
F0.324325
sg25
L6L
sg26
F0.415381464026
sg27
F0.020218
sa(dp1514
g3
F0.788278
sg4
g76
sg6
g415
sg8
F0.58344
sg9
S'Much Obliged'
p1515
sg11
F101.51
sg12
F0.034249
sg13
S'1af4f184-74f2-392e-9a04-87a9fbc5b63c'
p1516
sg15
F0.75886
sg16
I4
sg17
F0.524255
sg18
F4.0
sg19
F2010.0
sg20
F582.30957
sg21
F-16.362
sg22
S'T73xcbls4pgnggrogt5jxkd4qam'
p1517
sg24
F0.518425
sg25
L6L
sg26
F0.415381464026
sg27
F0.771327
sa(dp1518
g3
F0.314058
sg4
g76
sg6
g415
sg8
F0.428849
sg9
S'Resolution >'
p1519
sg11
F102.095
sg12
F0.035106
sg13
S'10144241-7785-3715-bbdd-e5849031b135'
p1520
sg15
F0.007328
sg16
I4
sg17
F0.569002
sg18
F4.0
sg19
F2010.0
sg20
F622.94449
sg21
F-14.594
sg22
S'Trpbyujctgc5nidfe5y5n5evuzy'
p1521
sg24
F0.173302
sg25
L6L
sg26
F0.415381464026
sg27
F0.449843
sa(dp1522
g3
F0.286774
sg4
g76
sg6
g415
sg8
F0.550725
sg9
S"White Man's Moccasins"
p1523
sg11
F101.418
sg12
F0.030733
sg13
S'5bf8dfd2-101b-3a30-836b-e26ad1fc9f80'
p1524
sg15
F0.604852
sg16
I4
sg17
F0.30642
sg18
F4.0
sg19
F2010.0
sg20
F713.89995
sg21
F-17.898
sg22
S'Tk7uttu3fv7dg7ckowvpqi6my54'
p1525
sg24
F0.36211
sg25
L6L
sg26
F0.415381464026
sg27
F0.873684
sa(dp1526
g3
F0.135682
sg4
g76
sg6
g415
sg8
F0.504275
sg9
S"Alex's House"
p1527
sg11
F96.214
sg12
F0.032426
sg13
S'2e1cd307-afdf-347d-9061-91709d4b7776'
p1528
sg15
F0.451504
sg16
I4
sg17
F0.595478
sg18
F4.0
sg19
F2010.0
sg20
F316.11601
sg21
F-15.653
sg22
S'T4akcxqxgtx5vaz7nvnnk5s2ig4'
p1529
sg24
F0.328381
sg25
L6L
sg26
F0.415381464026
sg27
F0.204085
sa(dp1530
g3
F0.132585
sg4
g76
sg6
g415
sg8
F0.49399
sg9
S'Words'
p1531
sg11
F109.634
sg12
F0.029246
sg13
S'6769719d-4bf2-3cbb-981e-5fa49b4a9392'
p1532
sg15
F0.605677
sg16
I4
sg17
F0.350039
sg18
F4.0
sg19
F2010.0
sg20
F520.18621
sg21
F-10.841
sg22
S'T324cxjjqn2jbhipopbuylmxyvy'
p1533
sg24
F0.177524
sg25
L6L
sg26
F0.415381464026
sg27
F0.006573
sa(dp1534
g3
F0.063295
sg4
g426
sg6
g427
sg8
F0.373179
sg9
S'Buster Keaton'
p1535
sg11
F105.046
sg12
F0.065761
sg13
S'a543994d-2f8a-34fe-9653-c1711f799f36'
p1536
sg15
F0.498667
sg16
I4
sg17
F0.861227
sg18
F4.0
sg19
F2011.0
sg20
F235.42621
sg21
F-8.991
sg22
S'Trsgyc7dc5zbxrsrycna5l2p47e'
p1537
sg24
F0.411938
sg25
L6L
sg26
F0.491559266938
sg27
F1e-06
sa(dp1538
g3
F0.146218
sg4
g432
sg6
Fnan
sg8
F0.488703
sg9
S'Crash Landing'
p1539
sg11
F105.022
sg12
F0.025547
sg13
S'4c7493b2-462b-36db-92cc-d4d8cf906217'
p1540
sg15
F0.472817
sg16
I4
sg17
F0.62036
sg18
F4.0
sg19
F2009.0
sg20
F251.99955
sg21
F-11.744
sg22
S'T7h355yva5qgwuopwkifqmnzoui'
p1541
sg24
F0.547062
sg25
L6L
sg26
F0.259683304522
sg27
F0.000344
sa(dp1542
g3
F0.350251
sg4
g432
sg6
Fnan
sg8
F0.601133
sg9
S'All Stars'
p1543
sg11
F89.864
sg12
F0.044683
sg13
S'f402fc85-ec38-3dde-83af-45b771bb31bb'
p1544
sg15
F0.01265
sg16
I4
sg17
F0.300565
sg18
F4.0
sg19
F2009.0
sg20
F320.79955
sg21
F-12.188
sg22
S'Tdditgrcoicjhzloebx7kxt2jsq'
p1545
sg24
F0.379127
sg25
L6L
sg26
F0.259683304522
sg27
F6e-06
sa(dp1546
g3
F0.190513
sg4
g432
sg6
Fnan
sg8
F0.317244
sg9
S'Protected'
p1547
sg11
F100.019
sg12
F0.026608
sg13
S'ca776b59-2573-3941-b493-48cee4419da4'
p1548
sg15
F0.621716
sg16
I4
sg17
F0.596651
sg18
F4.0
sg19
F2009.0
sg20
F251.55955
sg21
F-12.895
sg22
S'Teqbxvnk45yd6dtri7gzmv2z2f4'
p1549
sg24
F0.236286
sg25
L6L
sg26
F0.259683304522
sg27
F1e-06
sa(dp1550
g3
F0.128515
sg4
g432
sg6
Fnan
sg8
F0.221765
sg9
S'Set You Free'
p1551
sg11
F110.074
sg12
F0.035691
sg13
S'3dc98dc9-c922-3fac-8b24-62b0b58e5891'
p1552
sg15
F0.007989
sg16
I4
sg17
F0.687869
sg18
F4.0
sg19
F2009.0
sg20
F231.09955
sg21
F-15.097
sg22
S'Tmsekosbeugunxwdvml5cp7oizq'
p1553
sg24
F0.221434
sg25
L6L
sg26
F0.259683304522
sg27
F0.002256
sa(dp1554
g3
F0.060514
sg4
g432
sg6
Fnan
sg8
F0.514742
sg9
S'Heartbroken'
p1555
sg11
F94.958
sg12
F0.028062
sg13
S'8913bf49-5575-3d30-8488-1ee3359990d1'
p1556
sg15
F0.075533
sg16
I4
sg17
F0.635735
sg18
F4.0
sg19
F2009.0
sg20
F207.09955
sg21
F-11.216
sg22
S'Ts4iwmlpmd5ptd3s3wjujcww77u'
p1557
sg24
F0.384219
sg25
L6L
sg26
F0.259683304522
sg27
F0.000121
sa(dp1558
g3
F0.169822
sg4
g432
sg6
Fnan
sg8
F0.14042
sg9
S'Ocean Breeze'
p1559
sg11
F99.999
sg12
F0.034411
sg13
S'cedcc03a-2649-33fd-8a35-cf21d07271db'
p1560
sg15
F0.734029
sg16
I4
sg17
F0.67301
sg18
F4.0
sg19
F2009.0
sg20
F205.47206
sg21
F-17.268
sg22
S'Tlmhxplbrn45iw2udtyu2sfnrwq'
p1561
sg24
F0.205282
sg25
L6L
sg26
F0.259683304522
sg27
F0.000208
sa(dp1562
g3
F0.032165
sg4
g432
sg6
Fnan
sg8
F0.562737
sg9
S'Faces'
p1563
sg11
F100.01
sg12
F0.027154
sg13
S'f8e3dce2-2ae7-35de-900d-ab14dcb721ab'
p1564
sg15
F0.012457
sg16
I4
sg17
F0.629081
sg18
F4.0
sg19
F2009.0
sg20
F211.09955
sg21
F-13.423
sg22
S'Tikg5abyhr7c76uzobug62nibou'
p1565
sg24
F0.655771
sg25
L6L
sg26
F0.259683304522
sg27
F0.008461
sa(dp1566
g3
F0.090649
sg4
g432
sg6
Fnan
sg8
F0.35908
sg9
S'In My Head'
p1567
sg11
F97.984
sg12
F0.025305
sg13
S'c18553d5-5105-3a6a-8dc1-66e83c49de79'
p1568
sg15
F0.392418
sg16
I4
sg17
F0.632506
sg18
F4.0
sg19
F2009.0
sg20
F254.79955
sg21
F-15.216
sg22
S'Twzs2su7nribxpf5z52ntb4qgxe'
p1569
sg24
F0.484545
sg25
L6L
sg26
F0.259683304522
sg27
F0.000237
sa(dp1570
g3
F0.369566
sg4
g82
sg6
g83
sg8
F0.474616
sg9
g90
sg11
F95.913
sg12
F0.031629
sg13
S'817323eb-50ac-303e-93d9-52420a9b2e65'
p1571
sg15
F0.05193
sg16
I4
sg17
F0.385358
sg18
F4.0
sg19
F2011.0
sg20
F133.51955
sg21
F-14.725
sg22
S'Tnyibsrms5i4bjqzxescsdh3lja'
p1572
sg24
F0.305637
sg25
L6L
sg26
F0.261711676507
sg27
F0.00036
sa(dp1573
g3
F0.077021
sg4
g82
sg6
g83
sg8
F0.314594
sg9
g459
sg11
F94.005
sg12
F0.027323
sg13
S'95d1fda8-4b5d-3bbd-8870-078723961e87'
p1574
sg15
F0.127873
sg16
I4
sg17
F0.703228
sg18
F4.0
sg19
F2011.0
sg20
F289.18966
sg21
F-15.145
sg22
S'Tvps3lrbymqyvogsxbrwzaqnxia'
p1575
sg24
F0.380776
sg25
L6L
sg26
F0.261711676507
sg27
F0.000896
sa(dp1576
g3
F0.131333
sg4
g88
sg6
g89
sg8
F0.251917
sg9
S'Only Love Is Real'
p1577
sg11
F111.677
sg12
F0.034041
sg13
S'cad9f7cb-8975-3e9b-b826-fd396c8afbfe'
p1578
sg15
F0.807484
sg16
I4
sg17
F0.279058
sg18
F4.0
sg19
F2011.0
sg20
F228.03701
sg21
F-15.525
sg22
S'Thsy3qx6vanzoxpjusnbhewjpde'
p1579
sg24
F0.075639
sg25
L6L
sg26
F0.269127343221
sg27
F0.002039
sa(dp1580
g3
F0.107551
sg4
g88
sg6
g89
sg8
F0.288196
sg9
S'Happiness'
p1581
sg11
F109.003
sg12
F0.036446
sg13
S'1deb239d-8bf1-36f5-b8e0-b6587b4ac532'
p1582
sg15
F0.382436
sg16
I4
sg17
F0.513654
sg18
F4.0
sg19
F2011.0
sg20
F264.73905
sg21
F-12.526
sg22
S'Tuhfdp4ammkl5vrrrufi532i3ha'
p1583
sg24
F0.226113
sg25
L6L
sg26
F0.269127343221
sg27
F2.6e-05
sa(dp1584
g3
F0.375161
sg4
S'The Afghan Whigs'
p1585
sg6
S'http://lh4.ggpht.com/Am3g_JcZjPzF_3pLsmd7SfVByYLLvTvHI7ToEEeXZyJfZf1sErXRaTaJ9gWEi0CE7fyQFx6bdVQ'
p1586
sg8
F0.455485
sg9
S'Lovecrimes'
p1587
sg11
F94.97
sg12
F0.028943
sg13
S'9128dd75-9e49-3285-a5a3-7a1d6d368b43'
p1588
sg15
F0.502712
sg16
I4
sg17
F0.448466
sg18
F4.0
sg19
F2012.0
sg20
F263.26159
sg21
F-11.306
sg22
S'Tbtg3fxvwsneuazhnifw7wa726u'
p1589
sg24
F0.068237
sg25
L6L
sg26
F0.395206280428
sg27
F0.393884
sa(dp1590
g3
F0.102456
sg4
S'The Shaolin Afronauts'
p1591
sg6
S'http://lh6.ggpht.com/MBhy37qcrvf68oymrPFHRtXpeDudJKXBpvRvA9bfTKkIc8mMMLRvvQM4vQE8h4aka8keFOzF'
p1592
sg8
F0.900815
sg9
S'Brooklyn'
p1593
sg11
F95.101
sg12
F0.037579
sg13
S'3c110fbe-7612-3d33-806d-6a2287206e78'
p1594
sg15
F0.010963
sg16
I4
sg17
F0.422643
sg18
F4.0
sg19
F2012.0
sg20
F213.89288
sg21
F-5.835
sg22
S'Tyysjv2t73gpm636badzy7ki3x4'
p1595
sg24
F0.701908
sg25
L6L
sg26
F0.477268557358
sg27
F0.897221
sa(dp1596
g3
F0.126171
sg4
g100
sg6
g101
sg8
F0.674445
sg9
S'Gimme Some Salt'
p1597
sg11
F101.731
sg12
F0.026787
sg13
S'cba9662e-8031-3600-aa4c-4e5f5242231a'
p1598
sg15
F0.08333
sg16
I4
sg17
F0.715943
sg18
F4.0
sg19
F2011.0
sg20
F183.34621
sg21
F-6.477
sg22
S'T6simpqmnkwmqueowjfv2abr76a'
p1599
sg24
F0.573512
sg25
L6L
sg26
F0.418719856012
sg27
F0.739654
sa(dp1600
g3
F0.2945
sg4
S'Growing Up a Ghost'
p1601
sg6
g115
sg8
F0.945177
sg9
S'Burnt Out'
p1602
sg11
F104.974
sg12
F0.053667
sg13
S'6c2cad38-7cb7-3eb1-b251-96ac71b44fec'
p1603
sg15
F0.004688
sg16
I4
sg17
F0.396295
sg18
F3.0
sg19
F2014.0
sg20
F230.83392
sg21
F-3.509
sg22
S'Tnjwndhxrggad7jmlvf67sq6ney'
p1604
sg24
F0.559605
sg25
L6L
sg26
F0.305265676181
sg27
F0.000546
sa(dp1605
g3
F0.073934
sg4
S'People in Cars'
p1606
sg6
g115
sg8
F0.74562
sg9
S'On Forgetting to Let Go'
p1607
sg11
F108.09
sg12
F0.038829
sg13
S'c3d17098-18e2-3229-9561-32af4b24a65d'
p1608
sg15
F0.004296
sg16
I4
sg17
F0.462258
sg18
F4.0
sg19
F2014.0
sg20
F376.92907
sg21
F-8.802
sg22
S'T3bitd3ju5hox5dpmyjrqynbpc4'
p1609
sg24
F0.263903
sg25
L6L
sg26
F0.286610205859
sg27
F0.070693
sa(dp1610
g3
F0.795919
sg4
S'Greys'
p1611
sg6
g115
sg8
F0.98661
sg9
S'Guy Picciotto'
p1612
sg11
F103.686
sg12
F0.066787
sg13
S'f1176604-d026-351f-a312-8bb29dea2d51'
p1613
sg15
F5e-06
sg16
I4
sg17
F0.328959
sg18
F4.0
sg19
F2014.0
sg20
F90.08
sg21
F-3.915
sg22
S'Tcdyt2vtkdxrk3bnmgstuv5btxu'
p1614
sg24
F0.090271
sg25
L6L
sg26
F0.440537657724
sg27
F0.00013
sa(dp1615
g3
F0.258864
sg4
S'Paula Reilly'
p1616
sg6
S'http://lh5.ggpht.com/ETzyRPxzl8yvclY2viLGTca9UTPnKPPNbKrc6kM63cA0kPw9ox39v4ulX_GI3pAryNCXMyBJ'
p1617
sg8
F0.193937
sg9
S'MOON SUBLIME BACKING VOCALS'
p1618
sg11
F101.49
sg12
F0.040782
sg13
S'6ac5d80a-fff1-33fa-88da-dcf05edb492f'
p1619
sg15
F0.993556
sg16
I4
sg17
F0.281332
sg18
F3.0
sg19
F2013.0
sg20
F505.94023
sg21
F-17.258
sg22
S'Typujlboaq577ca7o3ai7luyblq'
p1620
sg24
F0.051078
sg25
L6L
sg26
F0.334107039043
sg27
F0.850348
sa(dp1621
g3
F0.081129
sg4
g136
sg6
g137
sg8
F0.809652
sg9
S"She's Crying At My Funeral"
p1622
sg11
F93.456
sg12
F0.027618
sg13
S'fe648568-ed70-35b5-855a-53a425372a1d'
p1623
sg15
F0.009917
sg16
I4
sg17
F0.494333
sg18
F4.0
sg19
F1996.0
sg20
F171.11574
sg21
F-10.699
sg22
S'Tvgw3yv7yl76athj32y3jumdneq'
p1624
sg24
F0.798197
sg25
L6L
sg26
F0.250719795666
sg27
F0.278331
sa(dp1625
g3
F0.081129
sg4
g136
sg6
g137
sg8
F0.809652
sg9
g1622
sg11
F93.456
sg12
F0.027618
sg13
S'7ac33e0c-7cea-3aa0-8084-66980cff9753'
p1626
sg15
F0.009917
sg16
I4
sg17
F0.494333
sg18
F4.0
sg19
F1996.0
sg20
F171.11574
sg21
F-10.699
sg22
S'Tz5eh34b4zabnlyss5fusgq7shu'
p1627
sg24
F0.798197
sg25
L6L
sg26
F0.250719795666
sg27
F0.278331
sa(dp1628
g3
F0.754414
sg4
S'Darksun'
p1629
sg6
S'http://lh3.ggpht.com/B1rCctEp9H0MHiOIgdYf9s8GoyWrEKdgNbC5XX9u-NV0C3aM1w4HE-IFR_dlUynC0aZVRSMoWQc'
p1630
sg8
F0.931457
sg9
S'Parasiempre'
p1631
sg11
F105.121
sg12
F0.130029
sg13
S'e3f52581-baac-3166-a5e0-1d4c7181093a'
p1632
sg15
F4.8e-05
sg16
I4
sg17
F0.296275
sg18
F4.0
sg19
F2008.0
sg20
F294.93288
sg21
F-3.713
sg22
S'Tilkse6b6ouhm4kljrattuaprnq'
p1633
sg24
F0.422664
sg25
L6L
sg26
F0.453297584614
sg27
F0.000788
sa(dp1634
g3
F0.092365
sg4
g887
sg6
g888
sg8
F0.373573
sg9
S'Fergus Falls'
p1635
sg11
F94.976
sg12
F0.029749
sg13
S'daf603c6-13f0-3f45-b962-ca6baa0ddfc3'
p1636
sg15
F0.517596
sg16
I4
sg17
F0.424503
sg18
F4.0
sg19
F2012.0
sg20
F303.41288
sg21
F-11.259
sg22
S'Tckgza3wfyib4nlda56d65n3iyi'
p1637
sg24
F0.092823
sg25
L6L
sg26
F0.509141139785
sg27
F0.012532
sa(dp1638
g3
F0.136193
sg4
g148
sg6
g149
sg8
F0.46621
sg9
S"03 - The Bumpin' Contraption (The Recalibration)"
p1639
sg11
F95.414
sg12
F0.064641
sg13
S'ab43f24f-a343-3628-8378-1c80cc44acdc'
p1640
sg15
F0.152998
sg16
I4
sg17
F0.828145
sg18
F4.0
sg19
F2011.0
sg20
F276.37506
sg21
F-9.161
sg22
S'Tblujam2zz36ebtg7gcowhwkj5y'
p1641
sg24
F0.401077
sg25
L6L
sg26
F0.423050041937
sg27
F0.761018
sa(dp1642
g3
F0.148016
sg4
S'Assembly Of Dust'
p1643
sg6
S'http://lh3.ggpht.com/Gpf_oZzFFfAS4gje6BZG5qLHQSPDZlE-7dXPMUlvJx0BYgCMjg6od4aoNmCHewU0p9H2WJm3Jg'
p1644
sg8
F0.155774
sg9
S'Of Mortals'
p1645
sg11
F111.403
sg12
F0.480727
sg13
S'ba620ede-5108-33b6-99e6-367d2a76988f'
p1646
sg15
F0.995796
sg16
I4
sg17
F0.484019
sg18
F1.0
sg19
F2003.0
sg20
F6.39955
sg21
F-21.043
sg22
S'Tbx2yjpp7ieaq4m6bneobldhagy'
p1647
sg24
F0.477002
sg25
L6L
sg26
F0.442279716647
sg27
F0.923094
sa(dp1648
g3
F0.12377
sg4
S'Willie P. Richardson'
p1649
sg6
S'http://lh5.ggpht.com/m9UWNhRLlCHvrnjZGgakpNwFtY9K67CEQapuOqH2ZSxyVm-UYqfi_lqTuqU2EYlHUUrKYVaGdQ'
p1650
sg8
F0.384485
sg9
S"Mailin' Goats"
p1651
sg11
F100.16
sg12
F0.542745
sg13
S'b664f3ac-7ce2-3110-9f48-cd66dac8f156'
p1652
sg15
F0.9909
sg16
I4
sg17
F0.686607
sg18
F4.0
sg19
F1996.0
sg20
F182.46667
sg21
F-16.045
sg22
S'Ttrjdlgm444npmtzfvwuk23l7py'
p1653
sg24
F0.557647
sg25
L6L
sg26
F0.382541001143
sg27
F0.001835
sa(dp1654
g3
F0.480007
sg4
g1183
sg6
g1184
sg8
F0.860233
sg9
S'Everybody Want Sum'
p1655
sg11
F106.242
sg12
F0.073582
sg13
S'ca02854a-8db9-3249-ac6c-a219f780efc6'
p1656
sg15
F0.096361
sg16
I4
sg17
F0.687352
sg18
F4.0
sg19
F2011.0
sg20
F336.90621
sg21
F-4.9
sg22
S'Tzqsscesgqzik6wpstrh2vimzcm'
p1657
sg24
F0.823704
sg25
L6L
sg26
F0.486548390104
sg27
F6.5e-05
sa(dp1658
g3
F0.031702
sg4
g1183
sg6
g1184
sg8
F0.436575
sg9
S'Do Ya'
p1659
sg11
F96.259
sg12
F0.125087
sg13
S'2d75df45-40cb-350d-a890-22d3a0db6384'
p1660
sg15
F0.180897
sg16
I4
sg17
F0.862764
sg18
F3.0
sg19
F2011.0
sg20
F264.97288
sg21
F-6.216
sg22
S'Tc4upzmd6r6rn4rw7nivrzzed2u'
p1661
sg24
F0.890534
sg25
L6L
sg26
F0.486548390104
sg27
F0.000713
sa(dp1662
g3
F0.564404
sg4
g1183
sg6
g1184
sg8
F0.445069
sg9
S'Liar'
p1663
sg11
F101.423
sg12
F0.034441
sg13
S'e27f39e7-36c6-3ec9-8dbf-42ba23419839'
p1664
sg15
F0.31146
sg16
I4
sg17
F0.601952
sg18
F4.0
sg19
F2011.0
sg20
F329.66485
sg21
F-18.268
sg22
S'Ths6i7pvggibe74d6wc5g2f4lhm'
p1665
sg24
F0.870399
sg25
L6L
sg26
F0.224822874628
sg27
F0.116926
sa(dp1666
g3
F0.151912
sg4
g595
sg6
g596
sg8
F0.899889
sg9
S'Today (feat. Headphone Activist)'
p1667
sg11
F89.684
sg12
F0.062503
sg13
S'fc7371ff-43ca-3598-8c4f-67d8acd05923'
p1668
sg15
F0.000332
sg16
I4
sg17
F0.40005
sg18
F4.0
sg19
F2014.0
sg20
F205.33288
sg21
F-2.111
sg22
S'Til4j767maj4n63gymqntrtbalq'
p1669
sg24
F0.302611
sg25
L6L
sg26
F0.466890261436
sg27
F2e-06
sa(dp1670
g3
F0.114648
sg4
g178
sg6
g179
sg8
F0.826882
sg9
S'Family Planning'
p1671
sg11
F94.97
sg12
F0.047333
sg13
S'de1e8d13-3cbf-39b9-92f4-56f58711d780'
p1672
sg15
F0.124715
sg16
I4
sg17
F0.405738
sg18
F3.0
sg19
F2011.0
sg20
F233.61288
sg21
F-5.493
sg22
S'Ta6dwlgd7ujxcwks2cnislw25ce'
p1673
sg24
F0.337131
sg25
L6L
sg26
F0.529591888426
sg27
F0.056424
sa(dp1674
g3
F0.083881
sg4
g178
sg6
g179
sg8
F0.697764
sg9
S'The Annexation Of Puerto Rico'
p1675
sg11
F90.037
sg12
F0.025721
sg13
S'cb3d4bce-ca0c-3234-87ef-15b0e2fea329'
p1676
sg15
F0.409346
sg16
I4
sg17
F0.534913
sg18
F4.0
sg19
F2011.0
sg20
F269.39955
sg21
F-6.725
sg22
S'Ttiingixlewei7wanjmddeghlgy'
p1677
sg24
F0.266517
sg25
L6L
sg26
F0.529591888426
sg27
F0.72711
sa(dp1678
g3
F0.111319
sg4
S'Steven Cravis'
p1679
sg6
S'http://lh3.ggpht.com/HP3YLPHLqfrJsph3CctUS8k3-KknLU2oaL6tVGpl-EcIN4I5or-uGdn1Kmu3nWXVPUxPN4LxyQ'
p1680
sg8
F0.767399
sg9
S'Aitzaz'
p1681
sg11
F99.989
sg12
F0.030568
sg13
S'e7e605af-663a-3c7b-a5cc-f99555e0e20a'
p1682
sg15
F0.000218
sg16
I4
sg17
F0.605617
sg18
F4.0
sg19
F2014.0
sg20
F180.00268
sg21
F-7.934
sg22
S'Tqd576l5fx7yozickxopsq75wlm'
p1683
sg24
F0.260782
sg25
L6L
sg26
F0.491604045251
sg27
F0.894873
sa(dp1684
g3
F0.161063
sg4
g650
sg6
g651
sg8
F0.237602
sg9
S'Another Life'
p1685
sg11
F99.802
sg12
F0.03156
sg13
S'eddef3e6-0e2a-3718-a945-b638559b8855'
p1686
sg15
F0.478931
sg16
I4
sg17
F0.315956
sg18
F4.0
sg19
F2011.0
sg20
F432.32717
sg21
F-18.736
sg22
S'Tltccsliud43y62kslm4d5vbl2e'
p1687
sg24
F0.034516
sg25
L6L
sg26
F0.0627598776851
sg27
F0.943353
sa(dp1688
g3
F0.121205
sg4
g650
sg6
g651
sg8
F0.553807
sg9
S'Stay With Me'
p1689
sg11
F103.947
sg12
F0.032653
sg13
S'a6b00045-81cd-3905-94f4-b5ae9bc45f25'
p1690
sg15
F0.016466
sg16
I4
sg17
F0.325497
sg18
F4.0
sg19
F2011.0
sg20
F280.04
sg21
F-8.945
sg22
S'Tmo4rjlrh5j7ozliojr2f4vit3y'
p1691
sg24
F0.135632
sg25
L6L
sg26
F0.450018983089
sg27
F0.183058
sa(dp1692
g3
F0.157475
sg4
g190
sg6
g191
sg8
F0.591995
sg9
S'Distinction (Intro)'
p1693
sg11
F92.038
sg12
F0.274198
sg13
S'92b5c171-7f6a-3446-9f51-4449653a51d7'
p1694
sg15
F0.032369
sg16
I4
sg17
F0.822595
sg18
F4.0
sg19
F2013.0
sg20
F171.97823
sg21
F-6.2
sg22
S'Tuzrkqfvant2ipcqox2ctsgh3ce'
p1695
sg24
F0.703396
sg25
L6L
sg26
F0.334559809193
sg27
F2e-06
sa(dp1696
g3
F0.154826
sg4
g190
sg6
g191
sg8
F0.761056
sg9
S'Mindstate of a Murderer'
p1697
sg11
F89.989
sg12
F0.036796
sg13
S'fb9669e3-e0a2-39e0-90df-f9852399ec06'
p1698
sg15
F0.001577
sg16
I4
sg17
F0.780837
sg18
F4.0
sg19
F2013.0
sg20
F215.13252
sg21
F-5.485
sg22
S'Tvgazqvtrvizg3kfhii7i5t663m'
p1699
sg24
F0.526575
sg25
L6L
sg26
F0.334559809193
sg27
F1e-06
sa(dp1700
g3
F0.092793
sg4
S'Bonerama'
p1701
sg6
S'http://lh5.ggpht.com/ntFar6ATXT5yRVkyrVvZmWIZpTjx3TyamAeL_I_jJ4M_162NewRECob5ZeXfT2zVBbZXz1gh'
p1702
sg8
F0.642298
sg9
S'Lost My House'
p1703
sg11
F96.867
sg12
F0.053085
sg13
S'3676f106-8469-3853-a196-f33c2d5c6b86'
p1704
sg15
F0.109807
sg16
I4
sg17
F0.569067
sg18
F4.0
sg19
F2009.0
sg20
F378.79955
sg21
F-6.604
sg22
S'Towwbkbbbkagqpet67f2bkpue7e'
p1705
sg24
F0.606316
sg25
L6L
sg26
F0.473311153183
sg27
F5.1e-05
sa(dp1706
g3
F0.148209
sg4
g211
sg6
g212
sg8
F0.505923
sg9
S'Froyo'
p1707
sg11
F99.965
sg12
F0.192966
sg13
S'c554c719-cad3-32c3-8ac4-7418e5d9ffe6'
p1708
sg15
F0.274326
sg16
I4
sg17
F0.857874
sg18
F4.0
sg19
F2014.0
sg20
F198.79955
sg21
F-15.677
sg22
S'Tt7fosgaywjdejxkii37cmcdpi4'
p1709
sg24
F0.403792
sg25
L6L
sg26
F0.386389068806
sg27
F0.827617
sa(dp1710
g3
F0.073029
sg4
g217
sg6
g218
sg8
F0.472177
sg9
S'Utopia Main Theme'
p1711
sg11
F91.493
sg12
F0.042062
sg13
S'10783fc3-ef3b-33ef-8e73-370ab6cea971'
p1712
sg15
F0.07993
sg16
I4
sg17
F0.611607
sg18
F4.0
sg19
F2008.0
sg20
F161.27955
sg21
F-15.101
sg22
S'Tmxg3sa6gtfdp534pv2nswfcyf4'
p1713
sg24
F0.310213
sg25
L6L
sg26
F0.273430095496
sg27
F0.662494
sa(dp1714
g3
F0.070995
sg4
g217
sg6
g218
sg8
F0.073962
sg9
g1417
sg11
F110.999
sg12
F0.058726
sg13
S'4f1507e2-b753-3315-8ed7-4f6accc30ace'
p1715
sg15
F0.984689
sg16
I4
sg17
F0.468001
sg18
F3.0
sg19
F2008.0
sg20
F91.31955
sg21
F-23.537
sg22
S'Tkxhmjftizcioyy4qh4l6rt2zni'
p1716
sg24
F0.243531
sg25
L6L
sg26
F0.273430095496
sg27
F0.973361
sa(dp1717
g3
F0.063066
sg4
g217
sg6
g218
sg8
F0.258478
sg9
S'Low On Rye'
p1718
sg11
F106.958
sg12
F0.039806
sg13
S'74f65a6a-4c96-3132-a87b-ad14717fe078'
p1719
sg15
F0.008687
sg16
I4
sg17
F0.55073
sg18
F4.0
sg19
F2008.0
sg20
F355.05288
sg21
F-25.016
sg22
S'Tgubr3awkrofjlku4djg5c6zvo4'
p1720
sg24
F0.071581
sg25
L6L
sg26
F0.273430095496
sg27
F0.738427
sa(dp1721
g3
F0.116637
sg4
g231
sg6
g232
sg8
F0.011978
sg9
S'Act 1 - Formless'
p1722
sg11
F97.939
sg12
F0.033392
sg13
S'c001049f-0b64-34b1-b360-37875896914e'
p1723
sg15
F0.746378
sg16
I4
sg17
F0.18138
sg18
F3.0
sg19
F2014.0
sg20
F128.8839
sg21
F-18.708
sg22
S'Tu3k2cuoy3abiqjayfhtg7fodee'
p1724
sg24
F0.031294
sg25
L6L
sg26
F0.462929240542
sg27
F0.943838
sa(dp1725
g3
F0.151657
sg4
g231
sg6
g232
sg8
F0.986497
sg9
S'Act 1 - Coil'
p1726
sg11
F91.972
sg12
F0.061088
sg13
S'b4841084-bd0b-340d-a4dd-8632e706ddfe'
p1727
sg15
F0.511136
sg16
I4
sg17
F0.578462
sg18
F4.0
sg19
F2014.0
sg20
F169.45696
sg21
F-8.376
sg22
S'T7c6jl4tab2ydioe5znhzvbwoyq'
p1728
sg24
F0.034364
sg25
L6L
sg26
F0.462929240542
sg27
F0.858335
sa(dp1729
g3
F0.099721
sg4
g237
sg6
g238
sg8
F0.494281
sg9
S'The Stash'
p1730
sg11
F94.169
sg12
F0.170755
sg13
S'5e7606a9-c315-3a2c-bef3-6a61daf56c88'
p1731
sg15
F0.013506
sg16
I4
sg17
F0.59265
sg18
F5.0
sg19
F2013.0
sg20
F219.46884
sg21
F-9.418
sg22
S'Tsklr3ywmazsjeu5nv47y4fudhm'
p1732
sg24
F0.443357
sg25
L6L
sg26
F0.252932913188
sg27
F0.026569
saa.