(lp0
(lp1
(dp2
S'liveness'
p3
F0.090593
sS'artist'
p4
S'Paramore'
p5
sS'albumArtRef'
p6
S'http://lh6.ggpht.com/n79ma1GC5eGh6eMr9wWnAoElTcSD6gZYGGi6ZbUzI2FEXVx6fOzTVmzQS3f1jEIuBd6x0wcHizE'
p7
sS'energy'
p8
F0.894473
sS'title'
p9
S"Ain't it fun"
p10
sS'tempo'
p11
F104.07
sS'speechiness'
p12
F0.107239
sS'id'
p13
S'0d6d61c1-8c3b-39bc-a884-763db5063468'
p14
sS'acousticness'
p15
F0.168065
sS'cluster'
p16
I0
sS'danceability'
p17
F0.635435
sS'time_signature'
p18
F4.0
sS'year'
p19
F2013.0
sS'duration'
p20
F220.85873
sS'loudness'
p21
F-3.457
sS'storeId'
p22
S'Tzf7d2wsb3eqgosyy34ob2nhzha'
p23
sS'valence'
p24
F0.689844
sS'trackType'
p25
L4L
sS'artist_discovery'
p26
F0.402165130573
sS'instrumentalness'
p27
F0.000264
sa(dp28
g3
F0.741292
sg4
S'Bob Mould'
p29
sg6
S'http://lh5.ggpht.com/S-_szR8Znle9ofSuhTb3LYjsBndlS79PPfyJTE75CjhuDQp8A0EyOyLhyIp4gdwjMX7CcYnp4w'
p30
sg8
F0.988793
sg9
S'Celebrated Summer'
p31
sg11
F110.951
sg12
F0.13355
sg13
S'029303d6-8209-37a4-b0ca-1feff5b0950e'
p32
sg15
F0.024074
sg16
I0
sg17
F0.227757
sg18
F4.0
sg19
F2012.0
sg20
F220.65288
sg21
F-4.376
sg22
S'Teee4e3ii54r3ha2wchbt3ombue'
p33
sg24
F0.099879
sg25
L6L
sg26
F0.477314504435
sg27
F0.101425
sa(dp34
g3
F0.112827
sg4
S'Dave Matthews Band'
p35
sg6
S'http://lh3.ggpht.com/Sfj0Bxs0Us8Uh9fH2vNb-igajLPG1evA_mTm9P3e-IO7VIKsYqO0DZghd59T7VZoye4YtMRTj4k'
p36
sg8
F0.513172
sg9
S'Typical Situation'
p37
sg11
F110.144
sg12
F0.056832
sg13
S'e18e1be5-f93a-3ffd-85ae-978e479081a6'
p38
sg15
F0.223218
sg16
I0
sg17
F0.35606
sg18
F4.0
sg19
F2011.0
sg20
F357.66667
sg21
F-9.478
sg22
S'Tkxq7pvvgdn64fqnrjwj6ji36im'
p39
sg24
F0.245124
sg25
L6L
sg26
F0.381223175296
sg27
F3e-06
sa(dp40
g3
F0.995975
sg4
g35
sg6
g36
sg8
F0.680163
sg9
S'Dancing Nancies'
p41
sg11
F108.746
sg12
F0.050117
sg13
S'8d5809d3-a581-3783-8563-74cf0665a4f5'
p42
sg15
F0.631317
sg16
I0
sg17
F0.401177
sg18
F4.0
sg19
F2011.0
sg20
F491.89288
sg21
F-10.662
sg22
S'T5pcng3hj25fbdtqa6askfgnjgu'
p43
sg24
F0.588296
sg25
L6L
sg26
F0.381223175296
sg27
F0.000412
sa(dp44
g3
F0.946814
sg4
g35
sg6
g36
sg8
F0.518542
sg9
S'Ants Marching'
p45
sg11
F109.029
sg12
F0.048423
sg13
S'99abe840-38f9-30d7-8f3a-a13f9027b1df'
p46
sg15
F0.404146
sg16
I0
sg17
F0.600029
sg18
F4.0
sg19
F2011.0
sg20
F361.89333
sg21
F-13.682
sg22
S'Taa35hesnw4ed2q5nhcflz2ajfi'
p47
sg24
F0.762312
sg25
L6L
sg26
F0.381223175296
sg27
F7e-06
sa(dp48
g3
F0.679387
sg4
g35
sg6
g36
sg8
F0.478698
sg9
S'Say Goodbye'
p49
sg11
F102.438
sg12
F0.047663
sg13
S'fc22a7c0-4744-30d3-8024-d0da4821b6e3'
p50
sg15
F0.252648
sg16
I0
sg17
F0.409587
sg18
F4.0
sg19
F2011.0
sg20
F521.27302
sg21
F-17.905
sg22
S'Tmruhh36m4qz3cs6wqzh3ehz2w4'
p51
sg24
F0.215042
sg25
L6L
sg26
F0.381223175296
sg27
F0.001227
sa(dp52
g3
F0.984992
sg4
g35
sg6
g36
sg8
F0.86857
sg9
S'One Sweet World (2.25.10)'
p53
sg11
F103.692
sg12
F0.10245
sg13
S'babd71d5-02e8-3c06-9333-ea0c52480f8b'
p54
sg15
F0.064524
sg16
I0
sg17
F0.393021
sg18
F4.0
sg19
F2011.0
sg20
F434.77451
sg21
F-6.662
sg22
S'Tvzitfz7i5kch7oujlokryejsby'
p55
sg24
F0.42208
sg25
L6L
sg26
F0.381223175296
sg27
F0.011752
sa(dp56
g3
F0.257887
sg4
S'Fold'
p57
sg6
S'http://lh4.ggpht.com/2Pw18bR8fL0yKDxTpvlCZv-8ArylwBzVmZw6a-epiY7eUSrQ6BqCQ6LXAY9O1uimC1LY_Ep3'
p58
sg8
F0.952564
sg9
S'Salvation - Spoken Word (with Music Accompaniment) Song (feat. Mr Gee)'
p59
sg11
F101.034
sg12
F0.074036
sg13
S'cf88f568-1478-3a13-824e-d40f3400a15a'
p60
sg15
F0.014799
sg16
I0
sg17
F0.539875
sg18
F4.0
sg19
F2014.0
sg20
F186.09587
sg21
F-5.297
sg22
S'Tzxelel6f5e3duzuosjrrbpdlvi'
p61
sg24
F0.69679
sg25
L6L
sg26
F0.425636904781
sg27
F0.211756
sa(dp62
g3
F0.075758
sg4
S'Hilary Weeks'
p63
sg6
g58
sg8
F0.457669
sg9
S'Say Love - Contemporary Christian / Gospel Album'
p64
sg11
F106.981
sg12
F0.029265
sg13
S'33e9f510-daf4-348b-9205-6d2e0e2e97ea'
p65
sg15
F0.162804
sg16
I0
sg17
F0.613915
sg18
F4.0
sg19
F2014.0
sg20
F236.14649
sg21
F-7.896
sg22
S'Trmg4gaxr4g3agv4todj6mejm3q'
p66
sg24
F0.299011
sg25
L6L
sg26
F0.458357506423
sg27
F3e-06
sa(dp67
g3
F0.124294
sg4
S'Maddy Rodriguez'
p68
sg6
g58
sg8
F0.666091
sg9
S'Some Nights (Cecilia) - (Orig. by Fun. / Simon & Garfunkel) - Cover Song'
p69
sg11
F108.023
sg12
F0.034691
sg13
S'f26f054e-f2f8-34d1-a0c3-0a238b1a0a9a'
p70
sg15
F0.23728
sg16
I0
sg17
F0.619342
sg18
F4.0
sg19
F2014.0
sg20
F275.98322
sg21
F-5.355
sg22
S'T2whfkss5ymqjnzanxfx25szjyi'
p71
sg24
F0.635094
sg25
L6L
sg26
F0.314817881956
sg27
F2.1e-05
sa(dp72
g3
F0.314415
sg4
S'The M...'
p73
sg6
S'http://lh3.ggpht.com/hDXzIjKalPSDaTJTuka6ualCXxo4KAU9bkjkY9RZfQbYtKnOj-nJoVMtamYPkfJ_L7fYc6F9'
p74
sg8
F0.586208
sg9
S'Face the Music'
p75
sg11
F102.26
sg12
F0.091712
sg13
S'f8ccf270-0bae-3a23-ab2f-7d6ad5168bca'
p76
sg15
F0.01875
sg16
I0
sg17
F0.832224
sg18
F4.0
sg19
F2013.0
sg20
F221.30041
sg21
F-8.12
sg22
S'T66jef6x57bzpjva27vmebqrzuq'
p77
sg24
F0.283424
sg25
L6L
sg26
F0.439177508455
sg27
F2.4e-05
sa(dp78
g3
F0.138389
sg4
S'Best Coast'
p79
sg6
S'http://lh4.ggpht.com/sL_O79LkzEGx2gsrlix7ws9eUF16TGUqZS-jBZstBOlZ--ULXs7kBGY0d9T4He0i3sj4l5dI0Q'
p80
sg8
F0.526636
sg9
S'How They Want Me To Be'
p81
sg11
F106.317
sg12
F0.025082
sg13
S'e6afae31-b9f0-3046-b927-79f57266f01a'
p82
sg15
F0.534604
sg16
I0
sg17
F0.52702
sg18
F4.0
sg19
F2012.0
sg20
F232.47302
sg21
F-8.38
sg22
S'Tdicxlu7nrep4ufvcfgbnm3ipuy'
p83
sg24
F0.325479
sg25
L6L
sg26
F0.468873175959
sg27
F0.002193
sa(dp84
g3
F0.193944
sg4
g79
sg6
g80
sg8
F0.80422
sg9
S'The Only Place'
p85
sg11
F105.455
sg12
F0.029271
sg13
S'e25de644-5643-31e7-b874-bf6d9b8a2ce3'
p86
sg15
F0.001398
sg16
I0
sg17
F0.551381
sg18
F4.0
sg19
F2012.0
sg20
F162.66621
sg21
F-6.549
sg22
S'Tnjah34hehfcexhsott2zvstetq'
p87
sg24
F0.708936
sg25
L6L
sg26
F0.468873175959
sg27
F0.000183
sa(dp88
g3
F0.070995
sg4
S'Jarrod Factor'
p89
sg6
S'http://lh4.ggpht.com/ZTmp-tvS8DUi7vdUMXUgowCc993IC1OGoqoyTw_kuL6apsH4FbdKse4l-7nv6m-UKyCKt6X3BQ'
p90
sg8
F0.073962
sg9
S'"The Retrospective / End Credits" from Insignia'
p91
sg11
F110.999
sg12
F0.058726
sg13
S'846e4a01-3752-371d-a840-1b63dc42f99f'
p92
sg15
F0.984689
sg16
I0
sg17
F0.468001
sg18
F3.0
sg19
F2006.0
sg20
F91.31955
sg21
F-23.537
sg22
S'Tix3utwxfeopz2m2xh466tafcbe'
p93
sg24
F0.243531
sg25
L6L
sg26
F0.273430095496
sg27
F0.973361
sa(dp94
g3
F0.097516
sg4
S'LIV'
p95
sg6
S'http://lh3.ggpht.com/iAhtsjioBovPE0Yz0OSCXHxfMwVSZ8mdmtan3czsD0FHEw6mUeIHMHojXJlX3s6iExwwoujWli8'
p96
sg8
F0.177545
sg9
S'Good Christian Friends  Rejoice'
p97
sg11
F110.319
sg12
F0.055385
sg13
S'f573b191-ca21-31a1-9594-47e22958707e'
p98
sg15
F0.984475
sg16
I0
sg17
F0.55923
sg18
F4.0
sg19
F2012.0
sg20
F121.70621
sg21
F-15.477
sg22
S'Tizkveedriqkvjbdchebsdiulba'
p99
sg24
F0.462483
sg25
L6L
sg26
F0.354734404735
sg27
F0.003066
sa(dp100
g3
F0.208591
sg4
S'Matt Nathanson'
p101
sg6
S'http://lh5.ggpht.com/7L1bMzR7u3vBOVOBxn1J0iKT_CC4k0vQ5VfMiLosmQs1enWXVKiChiL-SzXOSDKKkcuTmqQM'
p102
sg8
F0.886183
sg9
S'Modern Love'
p103
sg11
F110.015
sg12
F0.025166
sg13
S'a4b325f1-921c-347d-9d9e-6be6e95e2b30'
p104
sg15
F0.052954
sg16
I0
sg17
F0.740648
sg18
F4.0
sg19
F2011.0
sg20
F211.57288
sg21
F-3.459
sg22
S'Txluvetwhgkfgc6ktx3lx2plxge'
p105
sg24
F0.973866
sg25
L6L
sg26
F0.499727972349
sg27
F0.2659390501089325
sa(dp106
g3
F0.333886
sg4
g101
sg6
g102
sg8
F0.850832
sg9
S'Faster'
p107
sg11
F107.018
sg12
F0.038588
sg13
S'b272c043-9dbe-3b3b-b8ad-cefa95842f8b'
p108
sg15
F0.009181
sg16
I0
sg17
F0.742982
sg18
F4.0
sg19
F2011.0
sg20
F208.27955
sg21
F-4.17
sg22
S'Tx7bi32l6sw7ftuwtcv6guvs354'
p109
sg24
F0.953739
sg25
L6L
sg26
F0.499727972349
sg27
F8e-06
sa(dp110
g3
F0.336811
sg4
S'The Black Dahlia Murder'
p111
sg6
S'http://lh6.ggpht.com/3WyXXSw30T9ZhePnUr93-mqE9_hIqSArCM23V9jmXoV0LgtJzzm3X_PEFM6AVV-DsZG1jZES'
p112
sg8
F0.973737
sg9
S'Moonlight Equilibrium'
p113
sg11
F108.955
sg12
F0.079588
sg13
S'db47b36f-3cb0-3dd4-8550-9777d7f0f0a4'
p114
sg15
F3e-05
sg16
I0
sg17
F0.477216
sg18
F4.0
sg19
F2011.0
sg20
F208.4683
sg21
F-6.292
sg22
S'Tiqjo63otmb4x6oh5iogkrtbmo4'
p115
sg24
F0.328289
sg25
L6L
sg26
F0.380335878318
sg27
F0.878772
sa(dp116
g3
F0.111155
sg4
S'Brian Crain'
p117
sg6
S'http://lh4.ggpht.com/YWovItsp40uXrf9wFan0i-x5eiAneLkz7g74O1XlNu_VekGekgo-8bnOIBc97oIH2UCbSqLajA'
p118
sg8
F0.248191
sg9
S'White Dove'
p119
sg11
F100.067
sg12
F0.031263
sg13
S'babaa23b-b9a0-3232-a992-b8a09532937a'
p120
sg15
F0.789648
sg16
I0
sg17
F0.24073
sg18
F4.0
sg19
F2006.0
sg20
F186.41288
sg21
F-12.185
sg22
S'Tpvcyinqxziqhmykz37x3w5gqeu'
p121
sg24
F0.232742
sg25
L6L
sg26
F0.553378844811
sg27
F0.667771
sa(dp122
g3
F0.673882
sg4
S"Umphrey's McGee"
p123
sg6
S'http://lh3.ggpht.com/QoupF-KouAWPKldwsD0k9nWRjtP9yWG72FAX5m2874ZmhfACmSBxeyJYWMoFV8A7X_RjGkQC'
p124
sg8
F0.501421
sg9
S'Glory'
p125
sg11
F102.361
sg12
F0.031955
sg13
S'6b6c07fc-b85a-348a-ac33-5b413df063c4'
p126
sg15
F0.35736
sg16
I0
sg17
F0.291331
sg18
F4.0
sg19
F2011.0
sg20
F296.33261
sg21
F-13.653
sg22
S'Tp43l5gihqgq3fqcj753k26pmxa'
p127
sg24
F0.176022
sg25
L6L
sg26
F0.415381464026
sg27
F0.828454
sa(dp128
g3
F0.245253
sg4
g123
sg6
g124
sg8
F0.537843
sg9
S'2x2'
p129
sg11
F101.989
sg12
F0.034254
sg13
S'f9785e64-90d4-33ac-919f-c95d3b7d6876'
p130
sg15
F0.01439
sg16
I0
sg17
F0.402734
sg18
F4.0
sg19
F2011.0
sg20
F695.78549
sg21
F-12.948
sg22
S'Tah2nnuunlnsobep3pj6oioot7i'
p131
sg24
F0.187079
sg25
L6L
sg26
F0.415381464026
sg27
F0.054119
sa(dp132
g3
F0.736986
sg4
g123
sg6
g124
sg8
F0.415023
sg9
S'Hajimemashite'
p133
sg11
F103.378
sg12
F0.036912
sg13
S'9e13b90b-715e-37d6-a826-de5d0e13c045'
p134
sg15
F0.8367
sg16
I0
sg17
F0.302663
sg18
F4.0
sg19
F2011.0
sg20
F518.60853
sg21
F-21.119
sg22
S'Teuh3wh2cvg2h7sofcqstw4nw2a'
p135
sg24
F0.357704
sg25
L6L
sg26
F0.415381464026
sg27
F0.643514
sa(dp136
g3
F0.245253
sg4
g123
sg6
g124
sg8
F0.537843
sg9
g129
sg11
F101.989
sg12
F0.034254
sg13
S'5003d10c-e367-37a8-a5d4-e120b450ed39'
p137
sg15
F0.01439
sg16
I0
sg17
F0.402734
sg18
F4.0
sg19
F2011.0
sg20
F695.78549
sg21
F-12.948
sg22
S'Temjqwb6oqmf7b7yqpm3qjokzve'
p138
sg24
F0.187079
sg25
L6L
sg26
F0.415381464026
sg27
F0.054119
sa(dp139
g3
F0.122302
sg4
g123
sg6
g124
sg8
F0.621438
sg9
S'End Of The Road'
p140
sg11
F99.269
sg12
F0.0318
sg13
S'572b60f2-f470-32b9-b1eb-7c7cd58ec202'
p141
sg15
F0.88532
sg16
I0
sg17
F0.257019
sg18
F4.0
sg19
F2011.0
sg20
F186.57288
sg21
F-10.007
sg22
S'Teujkcw7uzw3daz7m6tuhwcelpa'
p142
sg24
F0.334279
sg25
L6L
sg26
F0.415381464026
sg27
F0.944632
sa(dp143
g3
F0.465085
sg4
g123
sg6
g124
sg8
F0.585189
sg9
S'August'
p144
sg11
F103.688
sg12
F0.031755
sg13
S'6ff8d930-cb6a-3c1e-8105-b2cf1bb9c35c'
p145
sg15
F0.594032
sg16
I0
sg17
F0.467086
sg18
F4.0
sg19
F2011.0
sg20
F467.32435
sg21
F-15.271
sg22
S'Txxmsirkrbfyqsrduztcufnu3ai'
p146
sg24
F0.468435
sg25
L6L
sg26
F0.415381464026
sg27
F0.675192
sa(dp147
g3
F0.847409
sg4
g123
sg6
g124
sg8
F0.509892
sg9
S"Partyin' Peeps"
p148
sg11
F98.65
sg12
F0.040628
sg13
S'ada5a566-f7f3-3425-b292-314c564311ce'
p149
sg15
F0.372976
sg16
I0
sg17
F0.569149
sg18
F4.0
sg19
F2011.0
sg20
F473.36154
sg21
F-16.238
sg22
S'Tfcyv6jbnorjy5sr5uqsvalw2bq'
p150
sg24
F0.531608
sg25
L6L
sg26
F0.415381464026
sg27
F0.578872
sa(dp151
g3
F0.900277
sg4
g123
sg6
S'http://lh3.ggpht.com/eHbRnjDBLR_i-zjiAYChmA5issATnGmDju5cF5WpfuKBbVmqVemX5URpzFxrIJ8rxj3QDybETg'
p152
sg8
F0.478125
sg9
S'Ringo'
p153
sg11
F98.589
sg12
F0.054291
sg13
S'bbce6e31-2af6-390f-b40b-adb82ffc4523'
p154
sg15
F0.622379
sg16
I0
sg17
F0.504299
sg18
F4.0
sg19
F2011.0
sg20
F311.4488
sg21
F-19.534
sg22
S'T2cur7mm3vmxqfjtuaplllded3q'
p155
sg24
F0.601321
sg25
L6L
sg26
F0.415381464026
sg27
F0.398542
sa(dp156
g3
F0.951079
sg4
g123
sg6
g152
sg8
F0.622982
sg9
S'Bridgeless'
p157
sg11
F105.99
sg12
F0.052487
sg13
S'c227bff2-a817-3135-a896-aa2abc97bf07'
p158
sg15
F0.113679
sg16
I0
sg17
F0.554666
sg18
F4.0
sg19
F2011.0
sg20
F564.13995
sg21
F-16.22
sg22
S'Trm2lbqjlcdlkwqsst3gxwwu2vi'
p159
sg24
F0.351475
sg25
L6L
sg26
F0.415381464026
sg27
F0.001667
sa(dp160
g3
F0.308845
sg4
g123
sg6
g152
sg8
F0.50215
sg9
S'The Haunt'
p161
sg11
F102.256
sg12
F0.032281
sg13
S'e8839246-3599-3363-b435-e0231bb207af'
p162
sg15
F0.181945
sg16
I0
sg17
F0.430221
sg18
F4.0
sg19
F2011.0
sg20
F645.39819
sg21
F-13.403
sg22
S'T26h2itwwzyxwqaiuwladbmwrhm'
p163
sg24
F0.118054
sg25
L6L
sg26
F0.415381464026
sg27
F0.753941
sa(dp164
g3
F0.673882
sg4
g123
sg6
g152
sg8
F0.501421
sg9
g125
sg11
F102.361
sg12
F0.031955
sg13
S'93184f6c-cfeb-3fa8-a040-c81fcf2e2125'
p165
sg15
F0.35736
sg16
I0
sg17
F0.291331
sg18
F4.0
sg19
F2011.0
sg20
F296.33261
sg21
F-13.653
sg22
S'Tmq3izaxk2oh535wz74x22pufri'
p166
sg24
F0.176022
sg25
L6L
sg26
F0.415381464026
sg27
F0.828454
sa(dp167
g3
F0.119825
sg4
g123
sg6
g152
sg8
F0.311775
sg9
S'Mantis'
p168
sg11
F100.362
sg12
F0.032594
sg13
S'1dd9d6ca-54ee-3ad1-a175-433da00327e7'
p169
sg15
F0.336935
sg16
I0
sg17
F0.332457
sg18
F4.0
sg19
F2011.0
sg20
F740.77995
sg21
F-20.42
sg22
S'Tpusym3prh3zvqshdryi6ofn3yq'
p170
sg24
F0.274851
sg25
L6L
sg26
F0.415381464026
sg27
F0.661014
sa(dp171
g3
F0.119825
sg4
g123
sg6
g152
sg8
F0.311775
sg9
g168
sg11
F100.362
sg12
F0.032594
sg13
S'c2197aab-467f-35fa-ab74-53a928dbed26'
p172
sg15
F0.336935
sg16
I0
sg17
F0.332457
sg18
F4.0
sg19
F2011.0
sg20
F740.77995
sg21
F-20.42
sg22
S'Tdgnicopxkrbcipuwlnqyfwy3lq'
p173
sg24
F0.274851
sg25
L6L
sg26
F0.415381464026
sg27
F0.661014
sa(dp174
g3
F0.101423
sg4
g123
sg6
S'http://lh3.ggpht.com/QG2C8i7ywY9rc8jqlYHL44p5g3AD5hGKOmTvY2PCvrd1waKI0sB_lRfx2ywXP-SxlO5u5IUgAQ'
p175
sg8
F0.693003
sg9
S'Intentions Clear'
p176
sg11
F106.071
sg12
F0.054087
sg13
S'327cfea0-9af3-3e3b-be71-a5d1d202db39'
p177
sg15
F0.080508
sg16
I0
sg17
F0.664405
sg18
F4.0
sg19
F2010.0
sg20
F350.83955
sg21
F-8.996
sg22
S'Tirsmmr55ij5hxtsgztp6x4uecm'
p178
sg24
F0.324325
sg25
L6L
sg26
F0.415381464026
sg27
F0.020218
sa(dp179
g3
F0.788278
sg4
g123
sg6
g175
sg8
F0.58344
sg9
S'Much Obliged'
p180
sg11
F101.51
sg12
F0.034249
sg13
S'1af4f184-74f2-392e-9a04-87a9fbc5b63c'
p181
sg15
F0.75886
sg16
I0
sg17
F0.524255
sg18
F4.0
sg19
F2010.0
sg20
F582.30957
sg21
F-16.362
sg22
S'T73xcbls4pgnggrogt5jxkd4qam'
p182
sg24
F0.518425
sg25
L6L
sg26
F0.415381464026
sg27
F0.771327
sa(dp183
g3
F0.314058
sg4
g123
sg6
g175
sg8
F0.428849
sg9
S'Resolution >'
p184
sg11
F102.095
sg12
F0.035106
sg13
S'10144241-7785-3715-bbdd-e5849031b135'
p185
sg15
F0.007328
sg16
I0
sg17
F0.569002
sg18
F4.0
sg19
F2010.0
sg20
F622.94449
sg21
F-14.594
sg22
S'Trpbyujctgc5nidfe5y5n5evuzy'
p186
sg24
F0.173302
sg25
L6L
sg26
F0.415381464026
sg27
F0.449843
sa(dp187
g3
F0.286774
sg4
g123
sg6
g175
sg8
F0.550725
sg9
S"White Man's Moccasins"
p188
sg11
F101.418
sg12
F0.030733
sg13
S'5bf8dfd2-101b-3a30-836b-e26ad1fc9f80'
p189
sg15
F0.604852
sg16
I0
sg17
F0.30642
sg18
F4.0
sg19
F2010.0
sg20
F713.89995
sg21
F-17.898
sg22
S'Tk7uttu3fv7dg7ckowvpqi6my54'
p190
sg24
F0.36211
sg25
L6L
sg26
F0.415381464026
sg27
F0.873684
sa(dp191
g3
F0.132585
sg4
g123
sg6
g175
sg8
F0.49399
sg9
S'Words'
p192
sg11
F109.634
sg12
F0.029246
sg13
S'6769719d-4bf2-3cbb-981e-5fa49b4a9392'
p193
sg15
F0.605677
sg16
I0
sg17
F0.350039
sg18
F4.0
sg19
F2010.0
sg20
F520.18621
sg21
F-10.841
sg22
S'T324cxjjqn2jbhipopbuylmxyvy'
p194
sg24
F0.177524
sg25
L6L
sg26
F0.415381464026
sg27
F0.006573
sa(dp195
g3
F0.063295
sg4
S'Quadron'
p196
sg6
S'http://lh6.ggpht.com/a4NELcNmRZW0qZvREtmOWke6ygACW-L0__9YAfCYOG9oOpP1qNfC5WqYHOBtSV36lLfRYKtu81Y'
p197
sg8
F0.373179
sg9
S'Buster Keaton'
p198
sg11
F105.046
sg12
F0.065761
sg13
S'a543994d-2f8a-34fe-9653-c1711f799f36'
p199
sg15
F0.498667
sg16
I0
sg17
F0.861227
sg18
F4.0
sg19
F2011.0
sg20
F235.42621
sg21
F-8.991
sg22
S'Trsgyc7dc5zbxrsrycna5l2p47e'
p200
sg24
F0.411938
sg25
L6L
sg26
F0.491559266938
sg27
F1e-06
sa(dp201
g3
F0.146218
sg4
S'Highly Explosive'
p202
sg6
Fnan
sg8
F0.488703
sg9
S'Crash Landing'
p203
sg11
F105.022
sg12
F0.025547
sg13
S'4c7493b2-462b-36db-92cc-d4d8cf906217'
p204
sg15
F0.472817
sg16
I0
sg17
F0.62036
sg18
F4.0
sg19
F2009.0
sg20
F251.99955
sg21
F-11.744
sg22
S'T7h355yva5qgwuopwkifqmnzoui'
p205
sg24
F0.547062
sg25
L6L
sg26
F0.259683304522
sg27
F0.000344
sa(dp206
g3
F0.190513
sg4
g202
sg6
Fnan
sg8
F0.317244
sg9
S'Protected'
p207
sg11
F100.019
sg12
F0.026608
sg13
S'ca776b59-2573-3941-b493-48cee4419da4'
p208
sg15
F0.621716
sg16
I0
sg17
F0.596651
sg18
F4.0
sg19
F2009.0
sg20
F251.55955
sg21
F-12.895
sg22
S'Teqbxvnk45yd6dtri7gzmv2z2f4'
p209
sg24
F0.236286
sg25
L6L
sg26
F0.259683304522
sg27
F1e-06
sa(dp210
g3
F0.128515
sg4
g202
sg6
Fnan
sg8
F0.221765
sg9
S'Set You Free'
p211
sg11
F110.074
sg12
F0.035691
sg13
S'3dc98dc9-c922-3fac-8b24-62b0b58e5891'
p212
sg15
F0.007989
sg16
I0
sg17
F0.687869
sg18
F4.0
sg19
F2009.0
sg20
F231.09955
sg21
F-15.097
sg22
S'Tmsekosbeugunxwdvml5cp7oizq'
p213
sg24
F0.221434
sg25
L6L
sg26
F0.259683304522
sg27
F0.002256
sa(dp214
g3
F0.169822
sg4
g202
sg6
Fnan
sg8
F0.14042
sg9
S'Ocean Breeze'
p215
sg11
F99.999
sg12
F0.034411
sg13
S'cedcc03a-2649-33fd-8a35-cf21d07271db'
p216
sg15
F0.734029
sg16
I0
sg17
F0.67301
sg18
F4.0
sg19
F2009.0
sg20
F205.47206
sg21
F-17.268
sg22
S'Tlmhxplbrn45iw2udtyu2sfnrwq'
p217
sg24
F0.205282
sg25
L6L
sg26
F0.259683304522
sg27
F0.000208
sa(dp218
g3
F0.032165
sg4
g202
sg6
Fnan
sg8
F0.562737
sg9
S'Faces'
p219
sg11
F100.01
sg12
F0.027154
sg13
S'f8e3dce2-2ae7-35de-900d-ab14dcb721ab'
p220
sg15
F0.012457
sg16
I0
sg17
F0.629081
sg18
F4.0
sg19
F2009.0
sg20
F211.09955
sg21
F-13.423
sg22
S'Tikg5abyhr7c76uzobug62nibou'
p221
sg24
F0.655771
sg25
L6L
sg26
F0.259683304522
sg27
F0.008461
sa(dp222
g3
F0.107551
sg4
S'Colie Brice & The New Age Blues Experience'
p223
sg6
S'http://lh4.ggpht.com/yc5uHaN4Zq7WIwiggRRoDU7xqRH329_qdS5aqXeHxdCUlQWEwDGmymdY6rjsuaug4_QeQiaR'
p224
sg8
F0.288196
sg9
S'Happiness'
p225
sg11
F109.003
sg12
F0.036446
sg13
S'1deb239d-8bf1-36f5-b8e0-b6587b4ac532'
p226
sg15
F0.382436
sg16
I0
sg17
F0.513654
sg18
F4.0
sg19
F2011.0
sg20
F264.73905
sg21
F-12.526
sg22
S'Tuhfdp4ammkl5vrrrufi532i3ha'
p227
sg24
F0.226113
sg25
L6L
sg26
F0.269127343221
sg27
F2.6e-05
sa(dp228
g3
F0.126171
sg4
S'Clap Your Hands Say Yeah'
p229
sg6
S'http://lh6.ggpht.com/XcUsb6ALgxCdpkB7y0TGRQIQWWURncJVZvgDE_1093aK3GX4z47KmDTWZscKjObMuoonYCNC9A'
p230
sg8
F0.674445
sg9
S'Gimme Some Salt'
p231
sg11
F101.731
sg12
F0.026787
sg13
S'cba9662e-8031-3600-aa4c-4e5f5242231a'
p232
sg15
F0.08333
sg16
I0
sg17
F0.715943
sg18
F4.0
sg19
F2011.0
sg20
F183.34621
sg21
F-6.477
sg22
S'T6simpqmnkwmqueowjfv2abr76a'
p233
sg24
F0.573512
sg25
L6L
sg26
F0.418719856012
sg27
F0.739654
sa(dp234
g3
F0.2945
sg4
S'Growing Up a Ghost'
p235
sg6
S'http://lh5.ggpht.com/xBRkf8iWYDCZ68VtmvWdEQiXtB0VBFOTqXKzhKI2Jya0F9HEJG-iE3kRDUxLe3ISbltE6kRf'
p236
sg8
F0.945177
sg9
S'Burnt Out'
p237
sg11
F104.974
sg12
F0.053667
sg13
S'6c2cad38-7cb7-3eb1-b251-96ac71b44fec'
p238
sg15
F0.004688
sg16
I0
sg17
F0.396295
sg18
F3.0
sg19
F2014.0
sg20
F230.83392
sg21
F-3.509
sg22
S'Tnjwndhxrggad7jmlvf67sq6ney'
p239
sg24
F0.559605
sg25
L6L
sg26
F0.305265676181
sg27
F0.000546
sa(dp240
g3
F0.073934
sg4
S'People in Cars'
p241
sg6
g236
sg8
F0.74562
sg9
S'On Forgetting to Let Go'
p242
sg11
F108.09
sg12
F0.038829
sg13
S'c3d17098-18e2-3229-9561-32af4b24a65d'
p243
sg15
F0.004296
sg16
I0
sg17
F0.462258
sg18
F4.0
sg19
F2014.0
sg20
F376.92907
sg21
F-8.802
sg22
S'T3bitd3ju5hox5dpmyjrqynbpc4'
p244
sg24
F0.263903
sg25
L6L
sg26
F0.286610205859
sg27
F0.070693
sa(dp245
g3
F0.795919
sg4
S'Greys'
p246
sg6
g236
sg8
F0.98661
sg9
S'Guy Picciotto'
p247
sg11
F103.686
sg12
F0.066787
sg13
S'f1176604-d026-351f-a312-8bb29dea2d51'
p248
sg15
F5e-06
sg16
I0
sg17
F0.328959
sg18
F4.0
sg19
F2014.0
sg20
F90.08
sg21
F-3.915
sg22
S'Tcdyt2vtkdxrk3bnmgstuv5btxu'
p249
sg24
F0.090271
sg25
L6L
sg26
F0.440537657724
sg27
F0.00013
sa(dp250
g3
F0.258864
sg4
S'Paula Reilly'
p251
sg6
S'http://lh5.ggpht.com/ETzyRPxzl8yvclY2viLGTca9UTPnKPPNbKrc6kM63cA0kPw9ox39v4ulX_GI3pAryNCXMyBJ'
p252
sg8
F0.193937
sg9
S'MOON SUBLIME BACKING VOCALS'
p253
sg11
F101.49
sg12
F0.040782
sg13
S'6ac5d80a-fff1-33fa-88da-dcf05edb492f'
p254
sg15
F0.993556
sg16
I0
sg17
F0.281332
sg18
F3.0
sg19
F2013.0
sg20
F505.94023
sg21
F-17.258
sg22
S'Typujlboaq577ca7o3ai7luyblq'
p255
sg24
F0.051078
sg25
L6L
sg26
F0.334107039043
sg27
F0.850348
sa(dp256
g3
F0.754414
sg4
S'Darksun'
p257
sg6
S'http://lh3.ggpht.com/B1rCctEp9H0MHiOIgdYf9s8GoyWrEKdgNbC5XX9u-NV0C3aM1w4HE-IFR_dlUynC0aZVRSMoWQc'
p258
sg8
F0.931457
sg9
S'Parasiempre'
p259
sg11
F105.121
sg12
F0.130029
sg13
S'e3f52581-baac-3166-a5e0-1d4c7181093a'
p260
sg15
F4.8e-05
sg16
I0
sg17
F0.296275
sg18
F4.0
sg19
F2008.0
sg20
F294.93288
sg21
F-3.713
sg22
S'Tilkse6b6ouhm4kljrattuaprnq'
p261
sg24
F0.422664
sg25
L6L
sg26
F0.453297584614
sg27
F0.000788
sa(dp262
g3
F0.12377
sg4
S'Willie P. Richardson'
p263
sg6
S'http://lh5.ggpht.com/m9UWNhRLlCHvrnjZGgakpNwFtY9K67CEQapuOqH2ZSxyVm-UYqfi_lqTuqU2EYlHUUrKYVaGdQ'
p264
sg8
F0.384485
sg9
S"Mailin' Goats"
p265
sg11
F100.16
sg12
F0.542745
sg13
S'b664f3ac-7ce2-3110-9f48-cd66dac8f156'
p266
sg15
F0.9909
sg16
I0
sg17
F0.686607
sg18
F4.0
sg19
F1996.0
sg20
F182.46667
sg21
F-16.045
sg22
S'Ttrjdlgm444npmtzfvwuk23l7py'
p267
sg24
F0.557647
sg25
L6L
sg26
F0.382541001143
sg27
F0.001835
sa(dp268
g3
F0.480007
sg4
S'Dumpstaphunk'
p269
sg6
S'http://lh6.ggpht.com/qt9kJcuXs0Lxv2E4grTzXrfd8IgnPqWo1tQxYNjWo579QhcZy5IfjRBQMLQGXc01WDgeGz7LFQ'
p270
sg8
F0.860233
sg9
S'Everybody Want Sum'
p271
sg11
F106.242
sg12
F0.073582
sg13
S'ca02854a-8db9-3249-ac6c-a219f780efc6'
p272
sg15
F0.096361
sg16
I0
sg17
F0.687352
sg18
F4.0
sg19
F2011.0
sg20
F336.90621
sg21
F-4.9
sg22
S'Tzqsscesgqzik6wpstrh2vimzcm'
p273
sg24
F0.823704
sg25
L6L
sg26
F0.486548390104
sg27
F6.5e-05
sa(dp274
g3
F0.564404
sg4
g269
sg6
g270
sg8
F0.445069
sg9
S'Liar'
p275
sg11
F101.423
sg12
F0.034441
sg13
S'e27f39e7-36c6-3ec9-8dbf-42ba23419839'
p276
sg15
F0.31146
sg16
I0
sg17
F0.601952
sg18
F4.0
sg19
F2011.0
sg20
F329.66485
sg21
F-18.268
sg22
S'Ths6i7pvggibe74d6wc5g2f4lhm'
p277
sg24
F0.870399
sg25
L6L
sg26
F0.224822874628
sg27
F0.116926
sa(dp278
g3
F0.142416
sg4
S'Kellee Maize'
p279
sg6
S'http://lh6.ggpht.com/ZwSzvHe9ncs5lqJiuRxpskmCDfnbZZf9A22vFVxXDQVpcsKMBt_ydPyG0ZTjaxcSrEujHe5QOM8'
p280
sg8
F0.727414
sg9
S'Vision (feat. Golden Day)'
p281
sg11
F108.038
sg12
F0.064392
sg13
S'5bd18285-b0c6-35b3-9f8c-6d22eeb56331'
p282
sg15
F0.235524
sg16
I0
sg17
F0.697882
sg18
F4.0
sg19
F2014.0
sg20
F177.77732
sg21
F-5.825
sg22
S'Tqgn6itgjvjqx7radydnmdlvsb4'
p283
sg24
F0.403687
sg25
L6L
sg26
F0.466890261436
sg27
F0.2659390501089325
sa(dp284
g3
F0.112187
sg4
S'Fort Lean'
p285
sg6
S'http://lh3.ggpht.com/VAWyRNaTP0YU07aG8Mj-JgUirfsLFBLYfed81m88owPJzSQv5EldmPB7BlkQDZwyPlgSuY8VZ_0'
p286
sg8
F0.578132
sg9
S'All the Lights'
p287
sg11
F109.17
sg12
F0.054122
sg13
S'380c5ebe-9d31-3e6f-9da6-6fc0bd22968f'
p288
sg15
F0.066757
sg16
I0
sg17
F0.326585
sg18
F5.0
sg19
F2012.0
sg20
F259.41288
sg21
F-8.129
sg22
S'T3zaz6da6nwa4pc3e4qc5ap7hte'
p289
sg24
F0.257545
sg25
L6L
sg26
F0.487558872394
sg27
F0.2659390501089325
sa(dp290
g3
F0.111319
sg4
S'Steven Cravis'
p291
sg6
S'http://lh3.ggpht.com/HP3YLPHLqfrJsph3CctUS8k3-KknLU2oaL6tVGpl-EcIN4I5or-uGdn1Kmu3nWXVPUxPN4LxyQ'
p292
sg8
F0.767399
sg9
S'Aitzaz'
p293
sg11
F99.989
sg12
F0.030568
sg13
S'e7e605af-663a-3c7b-a5cc-f99555e0e20a'
p294
sg15
F0.000218
sg16
I0
sg17
F0.605617
sg18
F4.0
sg19
F2014.0
sg20
F180.00268
sg21
F-7.934
sg22
S'Tqd576l5fx7yozickxopsq75wlm'
p295
sg24
F0.260782
sg25
L6L
sg26
F0.491604045251
sg27
F0.894873
sa(dp296
g3
F0.161063
sg4
S'NO'
p297
sg6
S'http://lh4.ggpht.com/4gJ7N0ymXT-wOMNL6wMcdHVspECyQeLNmA4cliJkBvWYY5I5FQZS_ps2MvxZfZsk86Z-Ls8i5Rg'
p298
sg8
F0.237602
sg9
S'Another Life'
p299
sg11
F99.802
sg12
F0.03156
sg13
S'eddef3e6-0e2a-3718-a945-b638559b8855'
p300
sg15
F0.478931
sg16
I0
sg17
F0.315956
sg18
F4.0
sg19
F2011.0
sg20
F432.32717
sg21
F-18.736
sg22
S'Tltccsliud43y62kslm4d5vbl2e'
p301
sg24
F0.034516
sg25
L6L
sg26
F0.0627598776851
sg27
F0.943353
sa(dp302
g3
F0.121205
sg4
g297
sg6
g298
sg8
F0.553807
sg9
S'Stay With Me'
p303
sg11
F103.947
sg12
F0.032653
sg13
S'a6b00045-81cd-3905-94f4-b5ae9bc45f25'
p304
sg15
F0.016466
sg16
I0
sg17
F0.325497
sg18
F4.0
sg19
F2011.0
sg20
F280.04
sg21
F-8.945
sg22
S'Tmo4rjlrh5j7ozliojr2f4vit3y'
p305
sg24
F0.135632
sg25
L6L
sg26
F0.450018983089
sg27
F0.183058
sa(dp306
g3
F0.206049
sg4
S'Youngin'
p307
sg6
S'http://lh6.ggpht.com/4-4Bj20mM1tmVjSPQl0zjenHJfacAuf4tsOPM1ezlWSnp4oJoG0OflWXZiGEpOS9Mf1msuLNXw'
p308
sg8
F0.910037
sg9
S'Like Open Doors'
p309
sg11
F105.465
sg12
F0.155498
sg13
S'86c0356b-2eb9-33cc-bc41-0593162d44a9'
p310
sg15
F0.333901
sg16
I0
sg17
F0.782179
sg18
F4.0
sg19
F2013.0
sg20
F383.2566
sg21
F-6.187
sg22
S'T2g2sfvih6cjsg2vs6m32pofhvm'
p311
sg24
F0.582956
sg25
L6L
sg26
F0.334559809193
sg27
F0.2659390501089325
sa(dp312
g3
F0.08852
sg4
g307
sg6
g308
sg8
F0.944587
sg9
S'And Tha Story Goes...'
p313
sg11
F109.949
sg12
F0.301469
sg13
S'ca265c0d-f503-3002-a3f0-8b82aee94143'
p314
sg15
F0.02132
sg16
I0
sg17
F0.634933
sg18
F4.0
sg19
F2013.0
sg20
F217.79701
sg21
F-5.541
sg22
S'Tonafqahhdknlwkb3qrgzgscw4m'
p315
sg24
F0.649886
sg25
L6L
sg26
F0.334559809193
sg27
F0.2659390501089325
sa(dp316
g3
F0.264733
sg4
S'Kelvin Cornell'
p317
sg6
S'http://lh5.ggpht.com/MbePPxjn_e-dFmyWuqezdxi_bMqBh6HY0OJ7pBamRT9hf_awdizc092HpNEnpI8jgjUvZpuuTw'
p318
sg8
F0.602416
sg9
S'Believe'
p319
sg11
F110.079
sg12
F0.13652
sg13
S'df9fa279-4b7d-33c3-b361-cd054c22698a'
p320
sg15
F0.06932
sg16
I0
sg17
F0.687007
sg18
F4.0
sg19
F2014.0
sg20
F233.17918
sg21
F-6.353
sg22
S'Tbm4jaqnvpfol6immtej6vyhyca'
p321
sg24
F0.268956
sg25
L6L
sg26
F0.275994516708
sg27
F0.2659390501089325
sa(dp322
g3
F0.148209
sg4
S'Ultraklystron'
p323
sg6
S'http://lh5.ggpht.com/79TxAi5_RUSwLfwiw0BQxS4cohnlI7gIwhBBlZVEy3LvkVHWVLGwMzFoUCx0ddmKC5CS1fBaRnM'
p324
sg8
F0.505923
sg9
S'Froyo'
p325
sg11
F99.965
sg12
F0.192966
sg13
S'c554c719-cad3-32c3-8ac4-7418e5d9ffe6'
p326
sg15
F0.274326
sg16
I0
sg17
F0.857874
sg18
F4.0
sg19
F2014.0
sg20
F198.79955
sg21
F-15.677
sg22
S'Tt7fosgaywjdejxkii37cmcdpi4'
p327
sg24
F0.403792
sg25
L6L
sg26
F0.386389068806
sg27
F0.827617
sa(dp328
g3
F0.070995
sg4
g89
sg6
S'http://lh6.ggpht.com/r2ETuAfyvt55WgMor2yDBXLjJeOzam_0HW7_5iWIKtPo4h44kk9FGWaR_p5wogrWrTKmZkUkiQ'
p329
sg8
F0.073962
sg9
g91
sg11
F110.999
sg12
F0.058726
sg13
S'4f1507e2-b753-3315-8ed7-4f6accc30ace'
p330
sg15
F0.984689
sg16
I0
sg17
F0.468001
sg18
F3.0
sg19
F2008.0
sg20
F91.31955
sg21
F-23.537
sg22
S'Tkxhmjftizcioyy4qh4l6rt2zni'
p331
sg24
F0.243531
sg25
L6L
sg26
F0.273430095496
sg27
F0.973361
sa(dp332
g3
F0.063066
sg4
g89
sg6
g329
sg8
F0.258478
sg9
S'Low On Rye'
p333
sg11
F106.958
sg12
F0.039806
sg13
S'74f65a6a-4c96-3132-a87b-ad14717fe078'
p334
sg15
F0.008687
sg16
I0
sg17
F0.55073
sg18
F4.0
sg19
F2008.0
sg20
F355.05288
sg21
F-25.016
sg22
S'Tgubr3awkrofjlku4djg5c6zvo4'
p335
sg24
F0.071581
sg25
L6L
sg26
F0.273430095496
sg27
F0.738427
saa(lp336
(dp337
g3
F0.086179
sg4
S'Hunter Hayes'
p338
sg6
S'http://lh5.ggpht.com/EBZ-matbee5GsZamJNWxfsgJ5kTAFW098wnEGXgwf0O1rom3a6PEZT3VZkfawyLe3BOyWqbDsA'
p339
sg8
F0.467085
sg9
S'Wanted'
p340
sg11
F169.856
sg12
F0.029088
sg13
S'f8e1a827-13a7-3d3d-aada-a149d566a540'
p341
sg15
F0.266414
sg16
I1
sg17
F0.433557
sg18
F4.0
sg19
F2013.0
sg20
F228.09333
sg21
F-8.028
sg22
S'Tv7kcorhd23mn77f752hgh2s2e4'
p342
sg24
F0.289578
sg25
L4L
sg26
F0.528879735494
sg27
F0.2659390501089325
sa(dp343
g3
F0.345218
sg4
g29
sg6
g30
sg8
F0.992514
sg9
S'Makes No Sense At All'
p344
sg11
F184.487
sg12
F0.348382
sg13
S'c4e389bd-328f-33c1-b15a-ce47ff149b7a'
p345
sg15
F0.014667
sg16
I1
sg17
F0.14642
sg18
F4.0
sg19
F2012.0
sg20
F148.77288
sg21
F-3.895
sg22
S'Tomulm2twtscfdq7jlupdez5vxq'
p346
sg24
F0.131003
sg25
L6L
sg26
F0.477314504435
sg27
F0.036649
sa(dp347
g3
F0.110628
sg4
S'Vienna Teng'
p348
sg6
g58
sg8
F0.647937
sg9
S'Level Up - Social Action Song'
p349
sg11
F170.06
sg12
F0.042408
sg13
S'5cb669ca-8e3f-3e45-ae3c-1c0ca895f877'
p350
sg15
F0.195267
sg16
I1
sg17
F0.512594
sg18
F1.0
sg19
F2014.0
sg20
F233.89995
sg21
F-8.075
sg22
S'Teytpb7qfxcqsalolqddwfyucwm'
p351
sg24
F0.402763
sg25
L6L
sg26
F0.471455234415
sg27
F0.043689
sa(dp352
g3
F0.218013
sg4
S'Audego'
p353
sg6
g58
sg8
F0.458144
sg9
S'Liar - Dance / Electronica Song'
p354
sg11
F179.062
sg12
F0.168968
sg13
S'49b64cc8-f976-3ff4-a846-e2e32b75cec1'
p355
sg15
F0.88014
sg16
I1
sg17
F0.266372
sg18
F3.0
sg19
F2014.0
sg20
F256.83546
sg21
F-10.422
sg22
S'Tgk4i2u65ajomss7u3ygswptn5m'
p356
sg24
F0.450179
sg25
L6L
sg26
F0.429842559251
sg27
F0.000111
sa(dp357
g3
F0.107638
sg4
S'Akuseka Takuwa Kongo Group'
p358
sg6
g58
sg8
F0.50856
sg9
S'The Benefits of Coffee - World Traditional Album'
p359
sg11
F183.687
sg12
F0.067717
sg13
S'5806ee75-98fd-36d4-9acd-3f20ed710da6'
p360
sg15
F0.846371
sg16
I1
sg17
F0.451862
sg18
F3.0
sg19
F2014.0
sg20
F262.89587
sg21
F-9.627
sg22
S'Tab77twe6go3eex3afua2tkiwni'
p361
sg24
F0.957693
sg25
L6L
sg26
F0.303774310654
sg27
F3e-06
sa(dp362
g3
F0.169907
sg4
S'Sarkodie'
p363
sg6
g58
sg8
F0.808361
sg9
S'Illuminati - Rap / Hip-Hop Song'
p364
sg11
F174.584
sg12
F0.430095
sg13
S'339488d0-c153-3acd-a8f0-398150aeb554'
p365
sg15
F0.113748
sg16
I1
sg17
F0.526489
sg18
F4.0
sg19
F2014.0
sg20
F166.86975
sg21
F-3.962
sg22
S'Tqpsapsgpxah6y5h6jl63jqhz2m'
p366
sg24
F0.476607
sg25
L6L
sg26
F0.499532198301
sg27
F0.2659390501089325
sa(dp367
g3
F0.094756
sg4
S'Rebelution'
p368
sg6
S'http://lh5.ggpht.com/VzSSQBCl8jQcBZ-AeYeJsz9QHHiFqVaEcK2GBVxzjL-dDnXeBfBqwCAzxgcjrV0FBKV73_PKsZQ'
p369
sg8
F0.62988
sg9
S'Outta Control'
p370
sg11
F180.022
sg12
F0.100631
sg13
S'a5b1f791-c064-3fed-b4a8-a2aac1ad5865'
p371
sg15
F0.053409
sg16
I1
sg17
F0.67432
sg18
F4.0
sg19
F2009.0
sg20
F245.29333
sg21
F-6.915
sg22
S'Tjwowvt2bge4zjx3eprn776l5yi'
p372
sg24
F0.665613
sg25
L6L
sg26
F0.451966312978
sg27
F3e-06
sa(dp373
g3
F0.065317
sg4
g73
sg6
g74
sg8
F0.498321
sg9
S'Destiny'
p374
sg11
F171.391
sg12
F0.331284
sg13
S'ff821a97-d9d6-3fbf-a8a6-9da19a069eb2'
p375
sg15
F0.105111
sg16
I1
sg17
F0.625656
sg18
F4.0
sg19
F2013.0
sg20
F422.78082
sg21
F-6.926
sg22
S'Thuzl54v6q2ea4dmvvhi2ye5lku'
p376
sg24
F0.438188
sg25
L6L
sg26
F0.439177508455
sg27
F0.2659390501089325
sa(dp377
g3
F0.128086
sg4
g73
sg6
g74
sg8
F0.547328
sg9
S'Even Greater'
p378
sg11
F179.823
sg12
F0.418312
sg13
S'506ac477-cca7-3c62-84e1-bbf9f8a8ff5e'
p379
sg15
F0.299483
sg16
I1
sg17
F0.741572
sg18
F4.0
sg19
F2013.0
sg20
F327.87955
sg21
F-8.768
sg22
S'Teo5ihrxsx24jt4fvmqufjwlwte'
p380
sg24
F0.832925
sg25
L6L
sg26
F0.439177508455
sg27
F0.2659390501089325
sa(dp381
g3
F0.147927
sg4
g123
sg6
g152
sg8
F0.828804
sg9
S'The Linear'
p382
sg11
F166.85
sg12
F0.040237
sg13
S'a2d6d1ee-dbd0-3e30-97ef-e7e177952cf6'
p383
sg15
F0.424319
sg16
I1
sg17
F0.308665
sg18
F4.0
sg19
F2011.0
sg20
F491.89288
sg21
F-11.303
sg22
S'Tltrnxcu6aru5uxauveqxnx6p5y'
p384
sg24
F0.589495
sg25
L6L
sg26
F0.415381464026
sg27
F0.784653
sa(dp385
g3
F0.964875
sg4
S'Colie Brice'
p386
sg6
S'http://lh6.ggpht.com/LCrdvmyVf3bkL_AmPxNUzbnSk96pNNga_C1Z87mMPZrvtY--7t-rMBFuNTlEm2cIppMt-85ulg'
p387
sg8
F0.160476
sg9
S'Give Me Your Love (Live)'
p388
sg11
F183.031
sg12
F0.049204
sg13
S'5a94a44e-7d7f-3ed0-b967-cd9571917f2f'
p389
sg15
F0.931532
sg16
I1
sg17
F0.341883
sg18
F4.0
sg19
F2011.0
sg20
F162.72898
sg21
F-20.269
sg22
S'Tck6bmtp4v2726p4hx7kkdwlb5u'
p390
sg24
F0.184572
sg25
L6L
sg26
F0.261711676507
sg27
F3e-06
sa(dp391
g3
F0.136443
sg4
g223
sg6
g224
sg8
F0.869809
sg9
S'Free and Clear'
p392
sg11
F165.315
sg12
F0.103505
sg13
S'b564ad88-626f-329e-b0e5-9aca67070483'
p393
sg15
F0.167899
sg16
I1
sg17
F0.228199
sg18
F4.0
sg19
F2011.0
sg20
F137.7478
sg21
F-8.325
sg22
S'Tm5nvjhi4ofyoyjmy2yzzfxsnzi'
p394
sg24
F0.361097
sg25
L6L
sg26
F0.269127343221
sg27
F0.002556
sa(dp395
g3
F0.15746
sg4
S'Figure'
p396
sg6
S'http://lh4.ggpht.com/zjmMST_NLobXRGnHuxCdLhgVIp9WLmCVJM8r5drKjo7hKekRD3PVauHYvSm4JqJmIt01DA_Y'
p397
sg8
F0.94234
sg9
S'Dominate (Instrumental Mix)'
p398
sg11
F174.11
sg12
F0.553082
sg13
S'8afbb2a2-068a-3eca-a21f-0aa20967ad66'
p399
sg15
F0.000668
sg16
I1
sg17
F0.41096
sg18
F4.0
sg19
F2011.0
sg20
F248.48649
sg21
F-3.888
sg22
S'Tiyowedzr3l4jkfc5okirfq6jdi'
p400
sg24
F0.455431
sg25
L6L
sg26
F0.536887447902
sg27
F0.077068
sa(dp401
g3
F0.056911
sg4
g229
sg6
g230
sg8
F0.952944
sg9
S'Hysterical'
p402
sg11
F167.646
sg12
F0.074287
sg13
S'86dd5946-852b-3ccc-995b-a3a76d17dcaf'
p403
sg15
F2.7e-05
sg16
I1
sg17
F0.215229
sg18
F4.0
sg19
F2011.0
sg20
F231.37288
sg21
F-3.742
sg22
S'Tdjboywrh5xabd233yznnfmsfsa'
p404
sg24
F0.285298
sg25
L6L
sg26
F0.418719856012
sg27
F0.011365
sa(dp405
g3
F0.363397
sg4
g229
sg6
g230
sg8
F0.881544
sg9
S'Maniac'
p406
sg11
F169.183
sg12
F0.063429
sg13
S'6d450ec4-7832-3ce0-94ee-013a7f462346'
p407
sg15
F5.9e-05
sg16
I1
sg17
F0.321217
sg18
F4.0
sg19
F2011.0
sg20
F181.63955
sg21
F-3.989
sg22
S'T24ib52odcfx5gsagwnmbac5dma'
p408
sg24
F0.205642
sg25
L6L
sg26
F0.418719856012
sg27
F0.010931
sa(dp409
g3
F0.491916
sg4
S'Taking Meds'
p410
sg6
g236
sg8
F0.913154
sg9
S'Taking Meds'
p411
sg11
F182.381
sg12
F0.077721
sg13
S'e026d515-57e2-32f1-9086-cee7d3b5c284'
p412
sg15
F0.000209
sg16
I1
sg17
F0.28982
sg18
F5.0
sg19
F2014.0
sg20
F158.79823
sg21
F-7.048
sg22
S'Tpsoaaqay3g5x5mq3mdnd4sbnfe'
p413
sg24
F0.551438
sg25
L6L
sg26
F0.347539858327
sg27
F0.01257
sa(dp414
g3
F0.30721
sg4
S'Cloudkicker'
p415
sg6
g236
sg8
F0.76872
sg9
S'Signal / Noise'
p416
sg11
F168.206
sg12
F0.093971
sg13
S'28a932c7-d8fe-3c01-ba01-f9bc910b9528'
p417
sg15
F6.3e-05
sg16
I1
sg17
F0.19168
sg18
F3.0
sg19
F2014.0
sg20
F302.85669
sg21
F-14.413
sg22
S'Tsvvr3fs56usjozi4dgds5aha6u'
p418
sg24
F0.197419
sg25
L6L
sg26
F0.477356819164
sg27
F0.743762
sa(dp419
g3
F0.160376
sg4
S'Rust Belt Lights'
p420
sg6
g236
sg8
F0.911783
sg9
S'Pack up and Let Go'
p421
sg11
F176.085
sg12
F0.049731
sg13
S'b503df45-f0ac-30aa-ac3a-9f26c21d4e46'
p422
sg15
F9e-06
sg16
I1
sg17
F0.395176
sg18
F4.0
sg19
F2014.0
sg20
F167.25288
sg21
F-4.445
sg22
S'Ti5xhk4wzut3tai5rpajbj4sos4'
p423
sg24
F0.67322
sg25
L6L
sg26
F0.445573689595
sg27
F1e-06
sa(dp424
g3
F0.110565
sg4
S'Arms and Sleepers'
p425
sg6
S'http://lh5.ggpht.com/mar9s3sM-kyeK-jWyIpFDS-E4GTusE-9euI37u96rUbqU_mKehmrK-MgM4jbuEaHdf9CTw5N'
p426
sg8
F0.585425
sg9
S'The Architekt'
p427
sg11
F184.037
sg12
F0.045324
sg13
S'393f797f-ef49-3409-85fd-e98d1a18b102'
p428
sg15
F0.813997
sg16
I1
sg17
F0.48153
sg18
F3.0
sg19
F2009.0
sg20
F285.21288
sg21
F-12.914
sg22
S'Tm2hoer7ev3dhygsce6vjvgwiz4'
p429
sg24
F0.203251
sg25
L6L
sg26
F0.50639870239
sg27
F0.264445
sa(dp430
g3
F0.101212
sg4
S'Furthur Abuse'
p431
sg6
S'http://lh5.ggpht.com/WmflS0JhnQQhVpKc1wjNBKuM4GEDOGneLECVEuDebrzBXBHLHI3BYxvFSmyO_27MLf1YZM6e'
p432
sg8
F0.78413
sg9
S'From the Front Lines'
p433
sg11
F169.382
sg12
F0.034852
sg13
S'cc8a384b-a165-3266-98e0-d339061ae824'
p434
sg15
F0.001588
sg16
I1
sg17
F0.263809
sg18
F4.0
sg19
F1996.0
sg20
F202.88063
sg21
F-11.855
sg22
S'Txbsu2vpd74ozwby42ssxk66hbm'
p435
sg24
F0.755953
sg25
L6L
sg26
F0.250719795666
sg27
F0.705995
sa(dp436
g3
F0.115766
sg4
S'Mike Marshall'
p437
sg6
S'http://lh4.ggpht.com/BBQNyotbC0WOlPIzQ9zdsbyFBcQwiCFVomlKCktq36Loqzmo_gPkjNqb8jczONx7h9lLl1NjPa8'
p438
sg8
F0.02746
sg9
S'Do You Hear What I Hear'
p439
sg11
F176.953
sg12
F0.064089
sg13
S'77f19ce5-6bac-3b8e-aaf1-406de23e60d5'
p440
sg15
F0.768826
sg16
I1
sg17
F0.458026
sg18
F4.0
sg19
F1997.0
sg20
F299.22621
sg21
F-23.084
sg22
S'Tw4fifznzlspkfe5b6eyrwoz2f4'
p441
sg24
F0.084312
sg25
L6L
sg26
F0.433222042245
sg27
F0.898992
sa(dp442
g3
F0.14248
sg4
S'Latyrx'
p443
sg6
S'http://lh4.ggpht.com/f-U7uoCOKIkRDRxpRVWWACf-YwB_1qTnd4OHRuXIRxISWSeWi6xbskXZMg4tE7VN0oex5yLj'
p444
sg8
F0.811512
sg9
S'Storm Warning'
p445
sg11
F174.998
sg12
F0.235074
sg13
S'e1ac271c-6fbb-357e-a5db-6fe6524f9932'
p446
sg15
F0.064936
sg16
I1
sg17
F0.719902
sg18
F4.0
sg19
F2011.0
sg20
F345.86621
sg21
F-8.527
sg22
S'Tkybwcfcn224txyktoj57wqbv5a'
p447
sg24
F0.672402
sg25
L6L
sg26
F0.423050041937
sg27
F0.000139
sa(dp448
g3
F0.302727
sg4
S"Matt Moran's Contra Band"
p449
sg6
S'http://lh5.ggpht.com/twGOCHFRa5t_tAAvPL28DvN9EylHoogmssDsd_j0LZIYD4u_lEPkYlSRYhoFgioVCG9ckDpRGGE'
p450
sg8
F0.586599
sg9
S'Draculas Tavern (Remix Arbic Six Song)'
p451
sg11
F169.935
sg12
F0.035589
sg13
S'6b1e5eb1-d3c7-3494-8a71-e9f94f732d5b'
p452
sg15
F0.000594
sg16
I1
sg17
F0.389682
sg18
F4.0
sg19
F2013.0
sg20
F206.51147
sg21
F-15.53
sg22
S'Tncb66a54boi6fhekttl3x3kee4'
p453
sg24
F0.505881
sg25
L6L
sg26
F0.258036867611
sg27
F0.371102
sa(dp454
g3
F0.106783
sg4
S'Crooked Fingers'
p455
sg6
S'http://lh6.ggpht.com/K1lz_sq-Oq1Mem4IGNeSD2sWlMX4eCj1QphGSWkrwwno6VTK2V97CTRYXp2DLEWPi0OEi0Bq0w'
p456
sg8
F0.374452
sg9
S'Your Apocalypse'
p457
sg11
F178.006
sg12
F0.028733
sg13
S'c1bf6f52-97da-3de9-978e-ceab0c8ec160'
p458
sg15
F0.876246
sg16
I1
sg17
F0.459113
sg18
F4.0
sg19
F2011.0
sg20
F222.7688
sg21
F-10.842
sg22
S'Tdxqk2zydfidkucy6xtwdv2w6fi'
p459
sg24
F0.129723
sg25
L6L
sg26
F0.459953872927
sg27
F0.003758
sa(dp460
g3
F0.14028
sg4
S'The Whigs'
p461
sg6
g286
sg8
F0.798543
sg9
S'Already Young'
p462
sg11
F166.128
sg12
F0.046468
sg13
S'7813b220-7af8-3c2e-b9aa-8373f19a4a6a'
p463
sg15
F1.8e-05
sg16
I1
sg17
F0.325977
sg18
F4.0
sg19
F2012.0
sg20
F197.97288
sg21
F-4.084
sg22
S'Txpkp7t3fg37w7b6s35p256nmsi'
p464
sg24
F0.281717
sg25
L6L
sg26
F0.418299168636
sg27
F0.2659390501089325
sa(dp465
g3
F0.248992
sg4
g285
sg6
g286
sg8
F0.933476
sg9
S'Perfect'
p466
sg11
F173.382
sg12
F0.04975
sg13
S'55c595e0-ce6c-3a58-befb-36b8c74ef21d'
p467
sg15
F4e-05
sg16
I1
sg17
F0.307052
sg18
F4.0
sg19
F2012.0
sg20
F156.45288
sg21
F-6.703
sg22
S'Tw22vf7swusz5lpunt7lol6uq5i'
p468
sg24
F0.428135
sg25
L6L
sg26
F0.487558872394
sg27
F0.531943
sa(dp469
g3
F0.213605
sg4
S'Pepper Rabbit'
p470
sg6
S'http://lh3.ggpht.com/LMnoJ5uhH5hAzB0jBGlBFovzoVeCXWKoE1FyxsJJGLQr6JlmFRayfl7nXWaEgUfv7f-rwyOa'
p471
sg8
F0.860198
sg9
S'Rose Mary Stretch'
p472
sg11
F170.035
sg12
F0.051305
sg13
S'f015d77f-43e1-3c40-a0f3-7ea3e0febe79'
p473
sg15
F0.007002
sg16
I1
sg17
F0.554987
sg18
F3.0
sg19
F2011.0
sg20
F199.90621
sg21
F-5.1
sg22
S'Tbpmy2wpskjkhs6f5vv2rwasavu'
p474
sg24
F0.717108
sg25
L6L
sg26
F0.529591888426
sg27
F0.565652
sa(dp475
g3
F0.123024
sg4
S'Robin Spielberg'
p476
sg6
S'http://lh4.ggpht.com/4Yk8mkiYtj7vqLT_2hEeD4LUm2tXlBQgkQKrHG15TNx0WndY5dsmgPoBNIicXxmrHHSk864S5Q'
p477
sg8
F0.022272
sg9
S'Amazing Grace/Silent Night'
p478
sg11
F166.383
sg12
F0.032896
sg13
S'e160be12-e1fe-3804-9689-4a36ff5681a0'
p479
sg15
F0.983095
sg16
I1
sg17
F0.265498
sg18
F4.0
sg19
F2005.0
sg20
F272.59955
sg21
F-21.385
sg22
S'Tht5yubc3gsazayj3ixd3ofcqke'
p480
sg24
F0.067347
sg25
L6L
sg26
F0.491936204326
sg27
F0.852588
sa(dp481
g3
F0.083612
sg4
g307
sg6
g308
sg8
F0.554576
sg9
S'Times Have Changed'
p482
sg11
F169.981
sg12
F0.248936
sg13
S'88c038a3-c38b-3e2e-9375-7667726bb34a'
p483
sg15
F0.002304
sg16
I1
sg17
F0.797796
sg18
F4.0
sg19
F2013.0
sg20
F220.77497
sg21
F-7.341
sg22
S'Tahw5mvpz6a6vnzkesaslrgrwy4'
p484
sg24
F0.948321
sg25
L6L
sg26
F0.334559809193
sg27
F0.2659390501089325
sa(dp485
g3
F0.195626
sg4
g307
sg6
g308
sg8
F0.833939
sg9
S'Swet'
p486
sg11
F169.88
sg12
F0.086707
sg13
S'fa114fb3-dc93-3874-8d3b-904af5c57aac'
p487
sg15
F0.066556
sg16
I1
sg17
F0.649846
sg18
F4.0
sg19
F2013.0
sg20
F296.08599
sg21
F-5.045
sg22
S'T6onkm7i4mobru3jj2keqvdijta'
p488
sg24
F0.633679
sg25
L6L
sg26
F0.334559809193
sg27
F0.2659390501089325
sa(dp489
g3
F0.079817
sg4
g307
sg6
g308
sg8
F0.891944
sg9
S'Greatness'
p490
sg11
F174.099
sg12
F0.112418
sg13
S'bf381593-0b92-31f4-8a73-da2d77dad132'
p491
sg15
F0.000133
sg16
I1
sg17
F0.789928
sg18
F4.0
sg19
F2013.0
sg20
F275.21415
sg21
F-6.609
sg22
S'Tbx3nai47ksa4esmsiaxlou3uhy'
p492
sg24
F0.501164
sg25
L6L
sg26
F0.334559809193
sg27
F7.1e-05
sa(dp493
g3
F0.147221
sg4
g307
sg6
g308
sg8
F0.832597
sg9
S'Can I Flow?'
p494
sg11
F180.005
sg12
F0.274981
sg13
S'9930990b-b34a-32c3-af91-209003967563'
p495
sg15
F0.060725
sg16
I1
sg17
F0.696613
sg18
F4.0
sg19
F2013.0
sg20
F217.11782
sg21
F-4.786
sg22
S'Tbry665dwjsiaiankwyhhs3w7pe'
p496
sg24
F0.704557
sg25
L6L
sg26
F0.334559809193
sg27
F0.2659390501089325
sa(dp497
g3
F0.485285
sg4
S'Parachute Musical'
p498
sg6
S'http://lh5.ggpht.com/emqbAU14oaK1Nw6RSo9yJvqbZWwdGqNEo7xXwsiLJX9J2dmmCuvO1S42WLKDImUDi3KjFwPThg'
p499
sg8
F0.92692
sg9
S'Back To Life'
p500
sg11
F169.93
sg12
F0.091328
sg13
S'b46cdd3c-a95b-3e71-9692-7f245e8467ee'
p501
sg15
F0.005407
sg16
I1
sg17
F0.378072
sg18
F4.0
sg19
F2011.0
sg20
F243.15955
sg21
F-4.791
sg22
S'Txph6oh2d2gmingz6b4vexlucem'
p502
sg24
F0.541407
sg25
L6L
sg26
F0.443568291148
sg27
F6.7e-05
sa(dp503
g3
F0.14014
sg4
g498
sg6
g499
sg8
F0.873222
sg9
S'Reflection'
p504
sg11
F181.08
sg12
F0.050934
sg13
S'39d7b02e-bf5b-305c-aec2-524164b0095d'
p505
sg15
F0.027784
sg16
I1
sg17
F0.541584
sg18
F4.0
sg19
F2011.0
sg20
F210.97288
sg21
F-5.065
sg22
S'Tvg6ndtrtfcj3zdg3rjn74hpzuu'
p506
sg24
F0.907587
sg25
L6L
sg26
F0.443568291148
sg27
F2e-06
sa(dp507
g3
F0.086177
sg4
S'The Alpine Treeline'
p508
sg6
S'http://lh4.ggpht.com/ln60X0Gp3CSbt8b-AtVzMPiFNj5BG0Be9VMAjHL9DaRi0jDc-I64kkYY32VYuHUY-aegE3Y'
p509
sg8
F0.964726
sg9
S'Show Me'
p510
sg11
F172.02
sg12
F0.082709
sg13
S'f6a800b1-2217-38b4-bdc3-3d6381d7a22f'
p511
sg15
F0.025554
sg16
I1
sg17
F0.483706
sg18
F4.0
sg19
F2013.0
sg20
F191.39156
sg21
F-4.271
sg22
S'T3ld4mw6755sodthpc6jxhikh4m'
p512
sg24
F0.906115
sg25
L6L
sg26
F0.247097634462
sg27
F0.2659390501089325
sa(dp513
g3
F0.119209
sg4
g508
sg6
g509
sg8
F0.939545
sg9
S'Ordinary'
p514
sg11
F172.853
sg12
F0.117006
sg13
S'd63cfedb-2b24-323b-aa99-dc18c80106b5'
p515
sg15
F0.032334
sg16
I1
sg17
F0.373836
sg18
F4.0
sg19
F2013.0
sg20
F253.2049
sg21
F-4.537
sg22
S'Tswtrvfweenu7i4lkghqigx7xue'
p516
sg24
F0.590652
sg25
L6L
sg26
F0.247097634462
sg27
F0.2659390501089325
sa(dp517
g3
F0.168191
sg4
g323
sg6
g324
sg8
F0.696878
sg9
S'Honeycomb'
p518
sg11
F180.0
sg12
F0.02833
sg13
S'6d66c4b7-a4f7-3053-9881-76e61c3b2d19'
p519
sg15
F0.221253
sg16
I1
sg17
F0.508053
sg18
F4.0
sg19
F2014.0
sg20
F199.33288
sg21
F-7.383
sg22
S'Tiol3cnskqgmsm7fo6c6c7735qi'
p520
sg24
F0.230043
sg25
L6L
sg26
F0.386389068806
sg27
F0.929672
sa(dp521
g3
F0.157664
sg4
g89
sg6
g329
sg8
F0.199005
sg9
S'"I. Want. You." from Inversion'
p522
sg11
F170.025
sg12
F0.068377
sg13
S'59cb635c-a4b4-3b10-b009-b2f38661f6b4'
p523
sg15
F0.055656
sg16
I1
sg17
F0.542348
sg18
F5.0
sg19
F2008.0
sg20
F75.85288
sg21
F-27.096
sg22
S'Tvkaaixzofmsewzblo4eex7urwa'
p524
sg24
F0.053265
sg25
L6L
sg26
F0.273430095496
sg27
F0.928399
sa(dp525
g3
F0.132626
sg4
g89
sg6
g329
sg8
F0.432563
sg9
S'"Last Saturday Night" from Holding On'
p526
sg11
F168.053
sg12
F0.039019
sg13
S'c3ba1e16-6879-349f-8229-5149fc13ea0a'
p527
sg15
F0.184398
sg16
I1
sg17
F0.493656
sg18
F4.0
sg19
F2008.0
sg20
F77.34621
sg21
F-22.008
sg22
S'Ti4x3zd4t2xtce22t7oywcl7fem'
p528
sg24
F0.496654
sg25
L6L
sg26
F0.273430095496
sg27
F0.871063
sa(dp529
g3
F0.114764
sg4
g89
sg6
g329
sg8
F0.364186
sg9
S'A Short Portrait of Obsession'
p530
sg11
F179.779
sg12
F0.063368
sg13
S'05524e6a-3709-3283-9988-f654a5194602'
p531
sg15
F0.011292
sg16
I1
sg17
F0.557866
sg18
F4.0
sg19
F2008.0
sg20
F80.55955
sg21
F-19.864
sg22
S'Tcey4keb3lqzs7suduhz2ckt3tm'
p532
sg24
F0.077712
sg25
L6L
sg26
F0.273430095496
sg27
F0.885483
sa(dp533
g3
F0.11242
sg4
S'zYnthetic'
p534
sg6
S'http://lh5.ggpht.com/r81U3HqVM6MkNyNwY5x24mFiIE1tf_8UiuD8Yz7o3jtkscM2jEIZj4ikwemrgigPpo4YWMhKgQ'
p535
sg8
F0.018695
sg9
S'Act 1 - Synaptic Distortion'
p536
sg11
F179.415
sg12
F0.053815
sg13
S'cb3f4307-c45b-3227-88e1-c1bce77feb61'
p537
sg15
F0.921518
sg16
I1
sg17
F0.122614
sg18
F1.0
sg19
F2014.0
sg20
F97.99955
sg21
F-24.617
sg22
S'Te6er5g55okzjzvclyue3injcpe'
p538
sg24
F0.157654
sg25
L6L
sg26
F0.462929240542
sg27
F0.191778
sa(dp539
g3
F0.190038
sg4
S'Kushest'
p540
sg6
S'http://lh4.ggpht.com/R6YYEbXpmzOtPcczgRugDSW2KI0zDLuE9nicvxWNWCjYfl7A0jiW1lJ32HJ0GKRZ3Ry3RjulaW4'
p541
sg8
F0.935409
sg9
S'Survival Of The Fittest'
p542
sg11
F180.394
sg12
F0.246168
sg13
S'df07c6ea-e6e2-3109-b1e6-2082646e94f5'
p543
sg15
F0.001484
sg16
I1
sg17
F0.238115
sg18
F5.0
sg19
F2013.0
sg20
F565.66966
sg21
F-9.07
sg22
S'T32rcij64utb5f3ihtrxnflwgjy'
p544
sg24
F0.370309
sg25
L6L
sg26
F0.252932913188
sg27
F0.538935
saa(lp545
(dp546
g3
F0.062257
sg4
S'Jojo'
p547
sg6
S'http://lh6.ggpht.com/vhuIXpA-hp93xbIfLlsGmCyBwxSI0Wek-6VLPHZ38RT-qdQ8yotPEQWQ0LbfVfkplL3XnUp4'
p548
sg8
F0.688574
sg9
g466
sg11
F125.016
sg12
F0.034213
sg13
S'31c86dd6-c188-3394-8b80-90a7579fdb13'
p549
sg15
F0.031144
sg16
I2
sg17
F0.739505
sg18
F4.0
sg19
F2014.0
sg20
F212.54594
sg21
F-6.417
sg22
S'Ts6nermmtoholg43vztehuyvfom'
p550
sg24
F0.881894
sg25
L6L
sg26
F0.453701273135
sg27
F0.2659390501089325
sa(dp551
g3
F0.2892
sg4
S'Natalie Howard'
p552
sg6
g58
sg8
F0.804726
sg9
S'Paradise - Country Album'
p553
sg11
F124.998
sg12
F0.042883
sg13
S'34a9566e-cea3-3edf-9389-895f69f7fed4'
p554
sg15
F0.000302
sg16
I2
sg17
F0.581093
sg18
F4.0
sg19
F2014.0
sg20
F255.58159
sg21
F-9.085
sg22
S'Trwylshzj3mrt5bjp2zypfkqvq4'
p555
sg24
F0.302652
sg25
L6L
sg26
F0.295212838718
sg27
F0.000871
sa(dp556
g3
F0.447561
sg4
S'Sultans Of String'
p557
sg6
g58
sg8
F0.278823
sg9
S'Josie - Instrumental Song'
p558
sg11
F132.004
sg12
F0.033259
sg13
S'dbdaca0f-e0ab-3656-a111-097a4c8ec9da'
p559
sg15
F0.870403
sg16
I2
sg17
F0.276762
sg18
F4.0
sg19
F2014.0
sg20
F370.52036
sg21
F-12.791
sg22
S'T2xc6mz4xte25syxzlmcjaur25y'
p560
sg24
F0.129893
sg25
L6L
sg26
F0.367688608638
sg27
F0.047702
sa(dp561
g3
F0.101057
sg4
S'Nancy Beaudette'
p562
sg6
g58
sg8
F0.277847
sg9
S'Silence Tonight - Holiday Song'
p563
sg11
F129.804
sg12
F0.0288
sg13
S'66420f56-3f91-304f-8069-28f62cff46d6'
p564
sg15
F0.82698
sg16
I2
sg17
F0.502441
sg18
F4.0
sg19
F2014.0
sg20
F241.84118
sg21
F-8.389
sg22
S'Tewg4ldddcdxamvpmx7k6x6h5oe'
p565
sg24
F0.11923
sg25
L6L
sg26
F0.258769149144
sg27
F0.2659390501089325
sa(dp566
g3
F0.363376
sg4
S'Darlene Koldenhoven'
p567
sg6
g58
sg8
F0.357322
sg9
S'Lucid See - New Age Album'
p568
sg11
F132.01
sg12
F0.037142
sg13
S'6dc4a566-b565-3009-9ded-dd078a337893'
p569
sg15
F0.944728
sg16
I2
sg17
F0.565485
sg18
F4.0
sg19
F2014.0
sg20
F250.33098
sg21
F-16.038
sg22
S'Tgt66mgc4c43o32aj5w5k5bakmy'
p570
sg24
F0.075995
sg25
L6L
sg26
F0.323816808351
sg27
F0.924659
sa(dp571
g3
F0.099163
sg4
S'Amusium'
p572
sg6
S'http://lh5.ggpht.com/dPXd9CI289BMHPSYdcsSnGFiU9eWEhtc_a4qRLgkLqPVvKV4KXs-pylUlh67jE126ZpCYR6LSQ'
p573
sg8
F0.509066
sg9
S'Kick Drum High Hat (Oscilot Remix)'
p574
sg11
F125.136
sg12
F0.176429
sg13
S'5a9bb070-cf7c-31b0-ad9e-e2f8f22aac42'
p575
sg15
F0.628131
sg16
I2
sg17
F0.69268
sg18
F4.0
sg19
F2012.0
sg20
F339.04281
sg21
F-10.049
sg22
S'Tlinptpafuhxcsro6xughqvtzs4'
p576
sg24
F0.269535
sg25
L6L
sg26
F0.309031421999
sg27
F0.029808
sa(dp577
g3
F0.723171
sg4
S'Free Bears'
p578
sg6
S'http://lh4.ggpht.com/usiMiiPvnw6B2bCRixvxb0Pjkuv5rjOTk6IGJOwOXPzDEgexRXSaAwaDowRmYvn4f244kJoY'
p579
sg8
F0.943235
sg9
S'Say What You Mean'
p580
sg11
F126.066
sg12
F0.036638
sg13
S'dc25e77c-3e4f-3586-94b8-a28afa1e3524'
p581
sg15
F0.044206
sg16
I2
sg17
F0.511998
sg18
F4.0
sg19
F2012.0
sg20
F202.13288
sg21
F-3.346
sg22
S'Tv5bv64fywfgzi7kqh36li3uaxm'
p582
sg24
F0.961883
sg25
L6L
sg26
F0.257350533155
sg27
F1.3e-05
sa(dp583
g3
F0.123024
sg4
S'Dregas'
p584
sg6
S'http://lh6.ggpht.com/mFZdS05sDxgUW4noMAxWHmOLFz4taUJUupOp194jLsrFSuq5NLO-vnPoj1bosVGM6PkiVqm8'
p585
sg8
F0.784997
sg9
S'Fall Back In'
p586
sg11
F129.99
sg12
F0.066059
sg13
S'350a9f5e-4fff-3164-b493-98c2586129e9'
p587
sg15
F0.029019
sg16
I2
sg17
F0.787743
sg18
F4.0
sg19
F2012.0
sg20
F247.63224
sg21
F-3.942
sg22
S'Tsvhkzebg24kinkahwjzesc5lne'
p588
sg24
F0.774422
sg25
L6L
sg26
F0.309731157687
sg27
F8.8e-05
sa(dp589
g3
F0.068646
sg4
S'Killer Mike'
p590
sg6
S'http://lh6.ggpht.com/AOk9KMPYgZvGn1sQ5T8UuprxvPiHFAa5nj4Fqrm7NGLADX7uwHxCI-6qY2MJIhqyLdTriTj8'
p591
sg8
F0.871067
sg9
S'Go Out On The Town'
p592
sg11
F126.014
sg12
F0.036651
sg13
S'ee406264-9cd6-3814-a062-1f8fb85b6643'
p593
sg15
F0.093019
sg16
I2
sg17
F0.773837
sg18
F4.0
sg19
F2011.0
sg20
F310.74621
sg21
F-4.128
sg22
S'Tkgoreocv3pf4ounujqi2tsigae'
p594
sg24
F0.596553
sg25
L6L
sg26
F0.421573562199
sg27
F0.2659390501089325
sa(dp595
g3
F0.098949
sg4
g117
sg6
S'http://lh4.ggpht.com/sqeLFogMoCJ9wVk-PTWaABFfkqjVZfiFGXpGbHQuTGZx_W1lE5z95Q8XiujwwOg3VzYpd07xj7I'
p596
sg8
F0.148782
sg9
S'Autumn - Dual Piano'
p597
sg11
F125.925
sg12
F0.038159
sg13
S'0e118798-e640-3d08-9bdc-f799480d7651'
p598
sg15
F0.978796
sg16
I2
sg17
F0.356202
sg18
F4.0
sg19
F2009.0
sg20
F265.46621
sg21
F-21.435
sg22
S'Ty2sfrtniriofkjs4lbojl64vsq'
p599
sg24
F0.151527
sg25
L6L
sg26
F0.553378844811
sg27
F0.892232
sa(dp600
g3
F0.024467
sg4
S'Blank & Jones'
p601
sg6
S'http://lh5.ggpht.com/1somRZh1Ms3xRLEWmW4xHydX-jQZqhtuN3luE74lTw_ppdmROWElFpNJedJaKW50PvIm0FQOAO0'
p602
sg8
F0.758711
sg9
S'Breakout'
p603
sg11
F129.941
sg12
F0.057676
sg13
S'41e23b1c-f736-3f13-a789-7bb8e5b8dba6'
p604
sg15
F0.001884
sg16
I2
sg17
F0.786752
sg18
F4.0
sg19
F2008.0
sg20
F384.49955
sg21
F-5.447
sg22
S'Tdga52o4rhaqxfp6qqj5rityjju'
p605
sg24
F0.780387
sg25
L6L
sg26
F0.451393701203
sg27
F0.850039
sa(dp606
g3
F0.084694
sg4
S'The Staves'
p607
sg6
S'http://lh5.ggpht.com/OWCT2xIeY41CXtYijVFje8GPlt-w3-VLBYuj5WsioTXpiYzq-k4MK-3XTf4AEjnvZpVPsVDE1A'
p608
sg8
F0.117221
sg9
S'Mexico'
p609
sg11
F131.847
sg12
F0.034454
sg13
S'bb90d234-a742-33ad-9326-6d4707c9663a'
p610
sg15
F0.964347
sg16
I2
sg17
F0.558383
sg18
F4.0
sg19
F2012.0
sg20
F246.41374
sg21
F-16.958
sg22
S'Tj35g2xsma5gqeach3h3h6vx3be'
p611
sg24
F0.171579
sg25
L6L
sg26
F0.49402576793
sg27
F0.000686
sa(dp612
g3
F0.084694
sg4
g607
sg6
S'http://lh6.ggpht.com/jNi1VOJQ652fI70r5uhsyOtxLaOCI0HxBS9lpgHDYjoLT_k7y0oBtswoUzl4FRoHmpaT6r9-Eg'
p613
sg8
F0.117221
sg9
g609
sg11
F131.847
sg12
F0.034454
sg13
S'3f73eece-5499-3608-81d0-adad439b2eea'
p614
sg15
F0.964347
sg16
I2
sg17
F0.558383
sg18
F4.0
sg19
F2011.0
sg20
F246.41374
sg21
F-16.958
sg22
S'Txzflomnxbdlhmmbnwjihwuhn3i'
p615
sg24
F0.171579
sg25
L6L
sg26
F0.49402576793
sg27
F0.000686
sa(dp616
g3
F0.13177
sg4
g123
sg6
g124
sg8
F0.443365
sg9
S'Jajunk>'
p617
sg11
F131.638
sg12
F0.03644
sg13
S'ee5cae07-3f6a-3e38-9066-d97f0e6ed394'
p618
sg15
F0.162648
sg16
I2
sg17
F0.455793
sg18
F3.0
sg19
F2011.0
sg20
F788.15447
sg21
F-18.827
sg22
S'Tgcmz362ble3n4uh52lxcnrntcu'
p619
sg24
F0.350895
sg25
L6L
sg26
F0.415381464026
sg27
F0.792072
sa(dp620
g3
F0.13177
sg4
g123
sg6
g124
sg8
F0.443365
sg9
g617
sg11
F131.638
sg12
F0.03644
sg13
S'a029190c-dcbf-3689-9c79-7b959d53ccb7'
p621
sg15
F0.162648
sg16
I2
sg17
F0.455793
sg18
F3.0
sg19
F2011.0
sg20
F788.15447
sg21
F-18.827
sg22
S'Tmrlfhqrf26q5eewzmkdgiquin4'
p622
sg24
F0.350895
sg25
L6L
sg26
F0.415381464026
sg27
F0.792072
sa(dp623
g3
F0.097418
sg4
S'Nick Lowe'
p624
sg6
S'http://lh6.ggpht.com/OXUI3_ccrbc2Q0yUzxlBzjZkTP8byUOVRIE5xF4Yws6_7LF4H6NeAx-d4viAZMT2A5Cfjvf0brw'
p625
sg8
F0.556249
sg9
S'Sensitive Man'
p626
sg11
F134.147
sg12
F0.039176
sg13
S'c887e9be-7c21-30dd-8508-f75ec6377a53'
p627
sg15
F0.450265
sg16
I2
sg17
F0.749502
sg18
F4.0
sg19
F2011.0
sg20
F172.34621
sg21
F-8.872
sg22
S'T55pcf6qvbflbbwirn5bryp6hwa'
p628
sg24
F0.668804
sg25
L6L
sg26
F0.3952684428
sg27
F0.225798
sa(dp629
g3
F0.751581
sg4
g123
sg6
g152
sg8
F0.921286
sg9
S'Come As Your Kids (10/29/11 Atlanta  Georgia)'
p630
sg11
F127.017
sg12
F0.056658
sg13
S'ecdec6fc-265b-32ae-aa8d-f695e76b1fd3'
p631
sg15
F0.049181
sg16
I2
sg17
F0.277751
sg18
F4.0
sg19
F2011.0
sg20
F606.54395
sg21
F-5.38
sg22
S'Ty33cht5rkgocao4a2bfr5jif5i'
p632
sg24
F0.314592
sg25
L6L
sg26
F0.415381464026
sg27
F0.009953
sa(dp633
g3
F0.119457
sg4
S'Hey Rosetta!'
p634
sg6
S'http://lh3.ggpht.com/XVb2dGKDxexLUPRMJFVHgxTqgtulZPWKmmqrCMKtCVepCgogEm64s7Pf0fWSDsqtZ65UyAmfMg'
p635
sg8
F0.866346
sg9
S'Soft Offering (For the Oft Suffering)'
p636
sg11
F126.022
sg12
F0.069092
sg13
S'b53be5fb-2efa-3b19-a376-50090b47dcc0'
p637
sg15
F0.072264
sg16
I2
sg17
F0.543584
sg18
F4.0
sg19
F2014.0
sg20
F237.84
sg21
F-6.424
sg22
S'Tshblfrfi5pzny2naradgzvust4'
p638
sg24
F0.241175
sg25
L6L
sg26
F0.496795028709
sg27
F1e-06
sa(dp639
g3
F0.324349
sg4
S'The 2 Bears'
p640
sg6
S'http://lh4.ggpht.com/s3KeCWE2yMDB1bdznnDXN3tgJwVhhg-Vso1qbGhvZidnry62rq6XpN_jnaSYjLaczfNc_hDZjg'
p641
sg8
F0.784877
sg9
S'Get Out'
p642
sg11
F122.914
sg12
F0.033861
sg13
S'591f7a68-492b-3d78-8547-1f4c3abf87ee'
p643
sg15
F0.065091
sg16
I2
sg17
F0.664173
sg18
F4.0
sg19
F2014.0
sg20
F352.77374
sg21
F-6.038
sg22
S'Ta7xb5zwqbmhys3alf76lkcy37e'
p644
sg24
F0.109534
sg25
L6L
sg26
F0.5358796057
sg27
F0.098508
sa(dp645
g3
F0.265918
sg4
g386
sg6
g387
sg8
F0.297802
sg9
S"Can't Escape"
p646
sg11
F125.398
sg12
F0.037694
sg13
S'81028750-4226-3e6a-9331-61d9162d6dbf'
p647
sg15
F0.349985
sg16
I2
sg17
F0.631881
sg18
F4.0
sg19
F2011.0
sg20
F173.19129
sg21
F-13.413
sg22
S'T3lod3mmqw7yjcjtj3etwiffniq'
p648
sg24
F0.540984
sg25
L6L
sg26
F0.261711676507
sg27
F0.001623
sa(dp649
g3
F0.885216
sg4
g386
sg6
g387
sg8
F0.197797
sg9
S"Just Can't Wait (Live)"
p650
sg11
F128.151
sg12
F0.034645
sg13
S'edc7ce72-6b18-347b-8a56-bc289111f3aa'
p651
sg15
F0.907841
sg16
I2
sg17
F0.433848
sg18
F4.0
sg19
F2011.0
sg20
F244.09347
sg21
F-15.937
sg22
S'T4ku5g5aifm7xvyr33b5dqrgdoe'
p652
sg24
F0.205249
sg25
L6L
sg26
F0.261711676507
sg27
F3.5e-05
sa(dp653
g3
F0.406711
sg4
g386
sg6
g387
sg8
F0.533658
sg9
S'Against the Grain'
p654
sg11
F134.162
sg12
F0.038611
sg13
S'36f68e0a-77c6-379e-b96d-256a2f454804'
p655
sg15
F0.309606
sg16
I2
sg17
F0.494467
sg18
F4.0
sg19
F2011.0
sg20
F180.23293
sg21
F-9.323
sg22
S'Tox3r7naj4pmc5a2gfdgyunsi6i'
p656
sg24
F0.465352
sg25
L6L
sg26
F0.261711676507
sg27
F0.2659390501089325
sa(dp657
g3
F0.386971
sg4
g223
sg6
g224
sg8
F0.752706
sg9
S"Joe Savio's New Age Blues Experience"
p658
sg11
F132.371
sg12
F0.045712
sg13
S'92987af5-3d8e-37e6-a893-f16522210e4f'
p659
sg15
F0.005333
sg16
I2
sg17
F0.478864
sg18
F4.0
sg19
F2011.0
sg20
F228.0361
sg21
F-7.048
sg22
S'Tlbwffnce653fgzrdamqq4katay'
p660
sg24
F0.642798
sg25
L6L
sg26
F0.269127343221
sg27
F0.843559
sa(dp661
g3
F0.107388
sg4
S'Peter Bradley Adams'
p662
sg6
S'http://lh4.ggpht.com/a8Fa9Q7i4rycLE1eM29s3bV7Gt3V2RzxukJomkC-iBLM5LWidzSXuKKtR_FlzwBgtPLuD_VZ'
p663
sg8
F0.252202
sg9
S'London Bridge Is Falling Down'
p664
sg11
F128.896
sg12
F0.033243
sg13
S'f1154113-3947-32dd-9f3d-a79c74cbe761'
p665
sg15
F0.865424
sg16
I2
sg17
F0.33118
sg18
F3.0
sg19
F2011.0
sg20
F257.61914
sg21
F-12.675
sg22
S'Tjjamuw5llvnmmfqkxjxjhbbjau'
p666
sg24
F0.282439
sg25
L6L
sg26
F0.5435561165
sg27
F0.050021
sa(dp667
g3
F0.222163
sg4
g396
sg6
S'http://lh3.ggpht.com/HVYxGmED2QlDV_hdb-QEnYwxwjlsgbN9E_wv8WP5DWWc_CyuiGUPD9mWf1tw_HkYS0VIXO9otz4'
p668
sg8
F0.982031
sg9
S'Mission of Destruction (Original Mix)'
p669
sg11
F127.98
sg12
F0.432763
sg13
S'8ee92632-4c13-3665-b5e5-3363b7dbf132'
p670
sg15
F4.5e-05
sg16
I2
sg17
F0.606073
sg18
F4.0
sg19
F2012.0
sg20
F324.23138
sg21
F-2.625
sg22
S'Teudykuszgkh4fzyfxtcs65rpvq'
p671
sg24
F0.112207
sg25
L6L
sg26
F0.536887447902
sg27
F0.143952
sa(dp672
g3
F0.24107
sg4
S'Terrace Martin'
p673
sg6
S'http://lh5.ggpht.com/H0TB_CBpNnpqMC3DGy5vBxtPyk3L-clvSkSyhjXjBUiR8cyE3htJxAkmn3rElUH64Bsj1xgPduM'
p674
sg8
F0.580064
sg9
S'Do It Again'
p675
sg11
F126.03
sg12
F0.230691
sg13
S'd18eaadf-7d04-3703-a346-a3103bfa270a'
p676
sg15
F0.154611
sg16
I2
sg17
F0.854924
sg18
F4.0
sg19
F2011.0
sg20
F251.23918
sg21
F-10.044
sg22
S'Tem6j7nkrgvs2gtxeelv7iqel2y'
p677
sg24
F0.796017
sg25
L6L
sg26
F0.486850656346
sg27
F0.2659390501089325
sa(dp678
g3
F0.051441
sg4
S'The Lighthouse and the Whaler'
p679
sg6
S'http://lh6.ggpht.com/6Y676aD9vvO24OmW1U9WyXCuLYicUFreOXORn4B66M7Pqk4JY8OuG_oktWilkX1-qY_1Js-5'
p680
sg8
F0.6701
sg9
S'Pioneers'
p681
sg11
F129.979
sg12
F0.029973
sg13
S'fd369b0c-bd74-358f-830f-368997c47af7'
p682
sg15
F0.155989
sg16
I2
sg17
F0.731601
sg18
F4.0
sg19
F2012.0
sg20
F198.13288
sg21
F-7.835
sg22
S'Tqkczeltfz2hniuholf2wxelzcu'
p683
sg24
F0.570496
sg25
L6L
sg26
F0.506836887611
sg27
F0.008245
sa(dp684
g3
F0.11330899999999999
sg4
S'Black Lab'
p685
sg6
S'http://lh3.ggpht.com/2CNH3MYiFockd_rFXzjGuIZqvsHb5dU2XbzAB6d7qKczxI_6C-JCyQlZYTMXRwdwQAp25zlhig'
p686
sg8
F0.491723
sg9
S'Remember'
p687
sg11
F123.909
sg12
F0.035347
sg13
S'2b60b6b3-29b2-3a54-9c20-c4f16b4f2a2f'
p688
sg15
F0.634829
sg16
I2
sg17
F0.558161
sg18
F4.0
sg19
F2011.0
sg20
F257.85637
sg21
F-8.667
sg22
S'Tanhsobxv3auczjwnghpithp22u'
p689
sg24
F0.187115
sg25
L6L
sg26
F0.495380891229
sg27
F8e-05
sa(dp690
g3
F0.360479
sg4
S'Sloss Minor'
p691
sg6
g236
sg8
F0.97957
sg9
S'Suburban Commando'
p692
sg11
F122.454
sg12
F0.061382
sg13
S'e840ff35-76ec-36e3-882e-aa1225b2e6cb'
p693
sg15
F0.068836
sg16
I2
sg17
F0.573885
sg18
F4.0
sg19
F2014.0
sg20
F135.04707
sg21
F-2.309
sg22
S'Txrys5qak52ruy5v6hsudqzrcci'
p694
sg24
F0.793716
sg25
L6L
sg26
F0.38653169619
sg27
F0.000178
sa(dp695
g3
F0.09451
sg4
S'Jonathan Wilson'
p696
sg6
S'http://lh3.ggpht.com/B-gLmlXRRj24J4LI-zn8ZfwADFYEsYloJ_jGo-tRZJWtzCuFV9bZnIHnV065aWpwLPaBJa13BQ'
p697
sg8
F0.752514
sg9
S'Love To Love'
p698
sg11
F129.758
sg12
F0.037746
sg13
S'4b1db0e6-9a91-396a-90f7-7ccb9832566e'
p699
sg15
F0.040937
sg16
I2
sg17
F0.595515
sg18
F4.0
sg19
F2013.0
sg20
F249.63955
sg21
F-7.492
sg22
S'To74rsizhh5tkfdryvwzvgh24fa'
p700
sg24
F0.78162
sg25
L6L
sg26
F0.53413194612
sg27
F0.000251
sa(dp701
g3
F0.10927
sg4
S'Amy Stroup'
p702
sg6
S'http://lh4.ggpht.com/HKMDmo2oT06iPylYMZ16YVASPB_5Pg-QIo8KBh_Iv0P09IY10YdAjmBuz-wNj9G2yAYBBAV3Gw'
p703
sg8
F0.460745
sg9
S'Love You Strongly'
p704
sg11
F130.005
sg12
F0.028483
sg13
S'91053808-43f6-3c23-8f06-b6163c8c5754'
p705
sg15
F0.888491
sg16
I2
sg17
F0.643734
sg18
F4.0
sg19
F2010.0
sg20
F219.14077
sg21
F-9.749
sg22
S'Tg2mbwgjjrbuwj4r63a3vgmtzui'
p706
sg24
F0.401846
sg25
L6L
sg26
F0.52000875725
sg27
F0.001917
sa(dp707
g3
F0.100063
sg4
g431
sg6
g432
sg8
F0.519067
sg9
S"I Won't Cry"
p708
sg11
F129.727
sg12
F0.028551
sg13
S'5c31e1bb-46a8-34eb-b987-dee436d4c7a6'
p709
sg15
F0.025822
sg16
I2
sg17
F0.372538
sg18
F4.0
sg19
F1996.0
sg20
F201.679
sg21
F-14.575
sg22
S'Tvv74bpzm7uargfyiqejikhwkeu'
p710
sg24
F0.683052
sg25
L6L
sg26
F0.250719795666
sg27
F0.053685
sa(dp711
g3
F0.156913
sg4
S'Matt Alber'
p712
sg6
S'http://lh5.ggpht.com/5yK4QuMnP6bTE6OMtN2xVvZI0D0iexVq8TDD3RheYXftWkDKmFm6TaH727TkKauVnO7jkFdG'
p713
sg8
F0.068355
sg9
S'The Stars'
p714
sg11
F129.199
sg12
F0.048055
sg13
S'17ff5efc-0778-3776-aba6-7e7ee22f7c29'
p715
sg15
F0.994858
sg16
I2
sg17
F0.414006
sg18
F4.0
sg19
F2014.0
sg20
F217.34621
sg21
F-25.168
sg22
S'Tvz2ruthdfi5dj6ycijsvumfscq'
p716
sg24
F0.287966
sg25
L6L
sg26
F0.487129948669
sg27
F0.942032
sa(dp717
g3
F0.244384
sg4
S'Staff Benda Bilili'
p718
sg6
S'http://lh5.ggpht.com/rYtd4B_jGP_6fS3ng7D4mKd8-XFQde2aw_2DGyQpIDJTnLGxsURVEgykvrSTlAv0UQ1vDZwwf_I'
p719
sg8
F0.817834
sg9
S'Osali Mabe'
p720
sg11
F127.021
sg12
F0.072031
sg13
S'104d8816-f39d-35f0-bbf2-5a312982d405'
p721
sg15
F0.079183
sg16
I2
sg17
F0.698875
sg18
F4.0
sg19
F2012.0
sg20
F232.03374
sg21
F-6.079
sg22
S'Tsws7vo2yimpsfzwcruisq7nnbu'
p722
sg24
F0.88097
sg25
L6L
sg26
F0.518222718283
sg27
F0.0002
sa(dp723
g3
F0.172881
sg4
S'Gemini Club'
p724
sg6
S'http://lh6.ggpht.com/wNFerksgy9fOHjUYnZ2c7UH30SaNlkEkZtFlAbs6kY0YoEGbRXV6NQkknS8L0anVO-lKlc8-Hzo'
p725
sg8
F0.654304
sg9
S'By Surprise'
p726
sg11
F127.018
sg12
F0.033182
sg13
S'c623f16e-ebc1-373b-b837-073814001865'
p727
sg15
F0.001323
sg16
I2
sg17
F0.568756
sg18
F4.0
sg19
F2012.0
sg20
F240.8224
sg21
F-8.959
sg22
S'Txc3glzhbpbgsuxgkpepuq2xcry'
p728
sg24
F0.5646
sg25
L6L
sg26
F0.490329923552
sg27
F3e-06
sa(dp729
g3
F0.124972
sg4
S'JC Brooks & the Uptown Sound'
p730
sg6
S'http://lh6.ggpht.com/kyNRnn3QDGKw_ZVzaOCu2t0LBBigpUlzMmINv54q2vzelcaHfdbA7IRC6Gmve21S6UBr9bJNfw'
p731
sg8
F0.750684
sg9
S"Don't Lock the Door"
p732
sg11
F128.184
sg12
F0.036437
sg13
S'b0487d03-09f5-3517-991d-823f0fe475b8'
p733
sg15
F0.35144
sg16
I2
sg17
F0.657892
sg18
F4.0
sg19
F2012.0
sg20
F204.99955
sg21
F-5.357
sg22
S'Tf5qadhnbiegsgwppouqfhc7qkm'
p734
sg24
F0.872422
sg25
L6L
sg26
F0.542871697728
sg27
F9e-06
sa(dp735
g3
F0.180382
sg4
S'Lanterns On the Lake'
p736
sg6
S'http://lh6.ggpht.com/oZIwHKyJOvPZUCHTT4W-Fmmr2v58zyaC4q-a_N5cT9Ck0jFuTlFXOs7gVncUqz92sdyeORF6'
p737
sg8
F0.517516
sg9
S'Until The Colours Run'
p738
sg11
F123.146
sg12
F0.081285
sg13
S'22c25a3b-2bd2-3eb1-ae53-2a6108320b65'
p739
sg15
F0.430214
sg16
I2
sg17
F0.20406
sg18
F4.0
sg19
F2013.0
sg20
F330.001
sg21
F-11.474
sg22
S'T5sdaapkwowt3qoht2fmpwq5wvu'
p740
sg24
F0.16192
sg25
L6L
sg26
F0.520956071682
sg27
F0.61899
sa(dp741
g3
F0.104199
sg4
g279
sg6
g280
sg8
F0.744624
sg9
S'Dancing with Lightning (feat. J. Glaze)'
p742
sg11
F132.011
sg12
F0.132774
sg13
S'b4094667-6d8a-3436-b855-a439fa006010'
p743
sg15
F0.006033
sg16
I2
sg17
F0.743242
sg18
F4.0
sg19
F2014.0
sg20
F222.9541
sg21
F-3.623
sg22
S'Twfk7uhvyabpxy4s6w75uhdjwca'
p744
sg24
F0.438774
sg25
L6L
sg26
F0.466890261436
sg27
F0.000418
sa(dp745
g3
F0.099028
sg4
S'G-Side'
p746
sg6
g286
sg8
F0.459731
sg9
S'Atmosphere (feat. P.H. The Vocal Beast)'
p747
sg11
F131.087
sg12
F0.30374
sg13
S'4ec87ed5-3d55-3752-bc1b-2713b5014ff9'
p748
sg15
F0.155778
sg16
I2
sg17
F0.826636
sg18
F4.0
sg19
F2012.0
sg20
F146.42866
sg21
F-11.399
sg22
S'Tafomtywtda6s5efdohj4lprdhq'
p749
sg24
F0.852593
sg25
L6L
sg26
F0.35271847675
sg27
F0.2659390501089325
sa(dp750
g3
F0.031517
sg4
S'Bad Rabbits'
p751
sg6
g286
sg8
F0.753183
sg9
S"Can't Back Down"
p752
sg11
F125.484
sg12
F0.084501
sg13
S'bb5375c2-22d9-3128-a9c9-221243b62933'
p753
sg15
F0.002128
sg16
I2
sg17
F0.701018
sg18
F4.0
sg19
F2012.0
sg20
F195.18621
sg21
F-6.231
sg22
S'Ti4fdiv3s7idtqhhkgq5a6o7ida'
p754
sg24
F0.616648
sg25
L6L
sg26
F0.488629260238
sg27
F0.2659390501089325
sa(dp755
g3
F0.221057
sg4
g470
sg6
g471
sg8
F0.783922
sg9
S'None Shall Sleep'
p756
sg11
F132.002
sg12
F0.038396
sg13
S'5a61cd74-20ae-371f-8a19-14abaebd25bf'
p757
sg15
F0.171774
sg16
I2
sg17
F0.478827
sg18
F4.0
sg19
F2011.0
sg20
F321.5912
sg21
F-7.642
sg22
S'T3ztcnmp7sm5d3e3dnmd3ptuv64'
p758
sg24
F0.117242
sg25
L6L
sg26
F0.529591888426
sg27
F0.045011
sa(dp759
g3
F0.099743
sg4
S'The Last Vegas'
p760
sg6
S'http://lh3.ggpht.com/JzDb6yUXMEl037YI_luJVbshsF2XEpzYCXLWLeVOaT7NDRVXFe4uMizqeTD0gJ_yMrJfVgJtcw'
p761
sg8
F0.867185
sg9
S'Other Side'
p762
sg11
F131.923
sg12
F0.067159
sg13
S'd72e32bb-017b-3aae-9083-17fd3188e756'
p763
sg15
F0.001513
sg16
I2
sg17
F0.537049
sg18
F4.0
sg19
F2011.0
sg20
F187.25333
sg21
F-6.479
sg22
S'Td2kx5scm3f4xgaa3nymtsrhbxi'
p764
sg24
F0.677895
sg25
L6L
sg26
F0.493533822468
sg27
F0.000108
sa(dp765
g3
F0.015867
sg4
S'Joe K'
p766
sg6
S'http://lh5.ggpht.com/sStRtu6sxGvQdmvCZu2TXqmAR8tPLZXKcQKDOHHB_ILFjl-Q30T8Hj6QceoJULTVso_rGkbRxw'
p767
sg8
F0.950909
sg9
S'Back to Salvador (Back to the 2003 original mix)'
p768
sg11
F128.0
sg12
F0.064321
sg13
S'f1bb0b10-cbd8-39a5-b106-3be6f1cc34bd'
p769
sg15
F0.000128
sg16
I2
sg17
F0.701111
sg18
F4.0
sg19
F2010.0
sg20
F377.41669
sg21
F-8.966
sg22
S'Ts4jqvlh7nktsfzafnoytakoikq'
p770
sg24
F0.469967
sg25
L6L
sg26
F0.431659383237
sg27
F0.867934
sa(dp771
g3
F0.138491
sg4
S'Icebird'
p772
sg6
S'http://lh3.ggpht.com/29JsN9XVfLVNExr9ggDSMZ-uLu5wxBbEa9LcMnkGjRDdQa43k1bpqp7Hnt8rDaHt2bPo233IYA'
p773
sg8
F0.820941
sg9
S'Going and Going. and Going. (Feat. rjd2 & Aaron Livingston)'
p774
sg11
F125.882
sg12
F0.096385
sg13
S'c036b465-74c9-3c3e-b15c-be59b7caad8f'
p775
sg15
F0.028226
sg16
I2
sg17
F0.586116
sg18
F4.0
sg19
F2011.0
sg20
F258.87955
sg21
F-7.261
sg22
S'Tv4ln7on3mknzkproqmdpu2r7q4'
p776
sg24
F0.157252
sg25
L6L
sg26
F0.460081479025
sg27
F0.00132
sa(dp777
g3
F0.687127
sg4
g297
sg6
g298
sg8
F0.892588
sg9
S'Big Waves'
p778
sg11
F130.982
sg12
F0.035805
sg13
S'6def7a01-dcfa-3acb-8a9c-4ceaf8f79bf1'
p779
sg15
F0.001438
sg16
I2
sg17
F0.536296
sg18
F4.0
sg19
F2011.0
sg20
F203.65288
sg21
F-4.903
sg22
S'Tmln7udllx5vg6y2jg2ixmjacri'
p780
sg24
F0.321535
sg25
L6L
sg26
F0.450018983089
sg27
F0.018707
sa(dp781
g3
F0.068422
sg4
g307
sg6
g308
sg8
F0.841297
sg9
S'Dc On Tha Rise'
p782
sg11
F130.024
sg12
F0.162462
sg13
S'215d9561-02ec-383d-9413-7e4ebf3a34d9'
p783
sg15
F0.011345
sg16
I2
sg17
F0.822194
sg18
F4.0
sg19
F2013.0
sg20
F313.92762
sg21
F-4.731
sg22
S'Ta42tigndexl6pwdql6ccaztd6e'
p784
sg24
F0.705009
sg25
L6L
sg26
F0.334559809193
sg27
F6e-06
sa(dp785
g3
F0.28922
sg4
S'Borntrippy'
p786
sg6
S'http://lh6.ggpht.com/M5j79Pfi7HTUiFyVpbt72uAVs9Ol4X2lrRvF4BkmVHKLhqqsWVXL1sx7yUC4K4lg9d6kgkiT_A'
p787
sg8
F0.355618
sg9
S'Gift for the Aliens (Musicbox On Mars Mix)'
p788
sg11
F130.011
sg12
F0.049048
sg13
S'dde5d8fa-fa9d-3295-95f6-aa559b968df8'
p789
sg15
F0.501348
sg16
I2
sg17
F0.484562
sg18
F4.0
sg19
F2007.0
sg20
F373.02812
sg21
F-16.241
sg22
S'Tuukg76pstwbjxr2sydu4s4pgze'
p790
sg24
F0.047855
sg25
L6L
sg26
F0.275994516708
sg27
F0.355826
sa(dp791
g3
F0.045368
sg4
S'No Sports'
p792
sg6
S'http://lh6.ggpht.com/D3b5GOPzF3g79PeTOw4JfGdMU38SdZzzKcnoIcTjbaOsVxPWP3768UXHnzLiFfrvIr1idGjblg'
p793
sg8
F0.803217
sg9
S'Five'
p794
sg11
F126.114
sg12
F0.05286
sg13
S'ae0d13c2-3967-3319-9888-129386df69a5'
p795
sg15
F0.239295
sg16
I2
sg17
F0.808899
sg18
F4.0
sg19
F2014.0
sg20
F224.09288
sg21
F-11.22
sg22
S'Twh6xjl2eu3csylwg6ienmzm5tq'
p796
sg24
F0.583269
sg25
L6L
sg26
F0.450211472637
sg27
F0.00018
sa(dp797
g3
F0.09374
sg4
S'Junior Astronomers'
p798
sg6
S'http://lh5.ggpht.com/thw_LycE-nJZT0ZN1hv_JihPmRV9Iio6iJvM1y4aHQgtxPJLJYx_uCMm905z9fG_ZMzZnpfXtw'
p799
sg8
F0.872174
sg9
S'Settle Down'
p800
sg11
F133.418
sg12
F0.099492
sg13
S'09179a3a-7b98-3090-8802-b6235b95a5fc'
p801
sg15
F0.004322
sg16
I2
sg17
F0.307852
sg18
F4.0
sg19
F2010.0
sg20
F277.81179
sg21
F-5.954
sg22
S'Tb3py4hmwfsbkaoqxtx3sywys3u'
p802
sg24
F0.486609
sg25
L6L
sg26
F0.447664281579
sg27
F0.782821
sa(dp803
g3
F0.685193
sg4
S'Bonerama'
p804
sg6
S'http://lh5.ggpht.com/ntFar6ATXT5yRVkyrVvZmWIZpTjx3TyamAeL_I_jJ4M_162NewRECob5ZeXfT2zVBbZXz1gh'
p805
sg8
F0.690845
sg9
S'Hard Times'
p806
sg11
F123.007
sg12
F0.162502
sg13
S'f9f97e09-6b7b-36a6-8e39-aab7189e0e5a'
p807
sg15
F0.445683
sg16
I2
sg17
F0.749506
sg18
F4.0
sg19
F2009.0
sg20
F247.06667
sg21
F-6.734
sg22
S'Tsx4bovxtl7if3t2vo2hb7ycrc4'
p808
sg24
F0.833464
sg25
L6L
sg26
F0.473311153183
sg27
F0.2659390501089325
sa(dp809
g3
F0.101975
sg4
g323
sg6
g324
sg8
F0.362561
sg9
S'Cupcake'
p810
sg11
F130.01
sg12
F0.054822
sg13
S'16b35adf-e507-3c00-817f-715436a8a545'
p811
sg15
F0.806342
sg16
I2
sg17
F0.796049
sg18
F4.0
sg19
F2014.0
sg20
F275.23029
sg21
F-11.97
sg22
S'Tnekbprtg2if7aiy7a3q45bpqzu'
p812
sg24
F0.115483
sg25
L6L
sg26
F0.386389068806
sg27
F0.92179
sa(dp813
g3
F0.111478
sg4
g534
sg6
g535
sg8
F0.23169
sg9
S'Act 1 - Interference'
p814
sg11
F125.54
sg12
F0.049151
sg13
S'b89de755-1283-316c-80a9-c0ddd855504c'
p815
sg15
F0.013066
sg16
I2
sg17
F0.234742
sg18
F4.0
sg19
F2014.0
sg20
F192.63855
sg21
F-21.163
sg22
S'Tg67qyqstt367r2xjljgjmykw2q'
p816
sg24
F0.039386
sg25
L6L
sg26
F0.462929240542
sg27
F0.836778
sa(dp817
g3
F0.286727
sg4
g540
sg6
g541
sg8
F0.7389
sg9
S'Beat Hack'
p818
sg11
F130.08
sg12
F0.282979
sg13
S'19917937-8961-3eb0-b41d-025d18b48011'
p819
sg15
F0.188703
sg16
I2
sg17
F0.821577
sg18
F4.0
sg19
F2013.0
sg20
F265.78395
sg21
F-8.239
sg22
S'Ttjfulzjpnoacsrftih7zbrknci'
p820
sg24
F0.728783
sg25
L6L
sg26
F0.252932913188
sg27
F0.065271
saa(lp821
(dp822
g3
F0.079599
sg4
S'Billy Woodward'
p823
sg6
g58
sg8
F0.267588
sg9
S'Backslider - Roots / Country EP'
p824
sg11
F75.441
sg12
F0.052888
sg13
S'c8ea7955-e984-3761-b3a2-b17bdf46817b'
p825
sg15
F0.74998
sg16
I3
sg17
F0.7144
sg18
F4.0
sg19
F2014.0
sg20
F209.6322
sg21
F-8.643
sg22
S'Tgnr6nb6bik5xfqcmrpctp62uhi'
p826
sg24
F0.520625
sg25
L6L
sg26
F0.288794606458
sg27
F0.2659390501089325
sa(dp827
g3
F0.102569
sg4
S'Rozina P\xc3\xa1tkai'
p828
sg6
g58
sg8
F0.202763
sg9
S'El Hombre Que Yo Ame (The Man I Love) - Jazz With Vocals Song'
p829
sg11
F85.308
sg12
F0.03079
sg13
S'b6b5782c-25ee-3c69-aa1d-ac6ddd99644e'
p830
sg15
F0.783143
sg16
I3
sg17
F0.301503
sg18
F3.0
sg19
F2014.0
sg20
F349.67465
sg21
F-12.222
sg22
S'T74s5lc6b4666zcrxfb2z4bpivq'
p831
sg24
F0.18832
sg25
L6L
sg26
F0.377197739029
sg27
F0.000201
sa(dp832
g3
F0.080997
sg4
S'Chris Kelsey & What I Say'
p833
sg6
g58
sg8
F0.534603
sg9
S'Sivad - Tribute Album'
p834
sg11
F81.207
sg12
F0.107646
sg13
S'6eeee237-ef73-3475-880a-392a9ad7b9fc'
p835
sg15
F0.099222
sg16
I3
sg17
F0.448401
sg18
F4.0
sg19
F2014.0
sg20
F1074.20689
sg21
F-10.038
sg22
S'Thjlpiqx2a5sj7cjw7o5iuobwfu'
p836
sg24
F0.75994
sg25
L6L
sg26
F0.243608528334
sg27
F0.120631
sa(dp837
g3
F0.079365
sg4
S'Rabbit Rabbit'
p838
sg6
g58
sg8
F0.140309
sg9
S'After the Storm - Eclectic Song'
p839
sg11
F83.415
sg12
F0.0323
sg13
S'737d6d7c-09de-31b8-a8e7-a00cbeee32bc'
p840
sg15
F0.913889
sg16
I3
sg17
F0.452551
sg18
F4.0
sg19
F2014.0
sg20
F167.47057
sg21
F-12.968
sg22
S'Tdejvs6seonvxhdilfrt5v2zpqy'
p841
sg24
F0.137714
sg25
L6L
sg26
F0.426769848505
sg27
F0.000725
sa(dp842
g3
F0.107491
sg4
S'Los Aldeanos'
p843
sg6
S'http://lh3.ggpht.com/SW1W0XSA5T21MI0mEKb9an-Nib45Mk1MsMzINt5MDa1_qtVgTk8GnpyjgxAcfZQYxplV4Qll'
p844
sg8
F0.484304
sg9
S'Fue un Placer'
p845
sg11
F82.741
sg12
F0.522663
sg13
S'b9093ef8-dc7a-3253-9160-1e88719fa6df'
p846
sg15
F0.710402
sg16
I3
sg17
F0.660847
sg18
F4.0
sg19
F2014.0
sg20
F344.62667
sg21
F-10.982
sg22
S'Tc5ag5v336vnafcs7lhko62p2te'
p847
sg24
F0.737358
sg25
L6L
sg26
F0.494336489301
sg27
F0.2659390501089325
sa(dp848
g3
F0.065932
sg4
S'Rimes'
p849
sg6
S'http://lh4.ggpht.com/lf0N2Zku-ns5DiaVkKwSj7v36mQ5fWB2B4P5dAcfX4Ix0XY02sVkvP3Tovtj7chPIdTTa7-Xgw'
p850
sg8
F0.533767
sg9
S'Wasted Days And Wasted Nights'
p851
sg11
F82.418
sg12
F0.023963
sg13
S'131fdeef-c2f1-30c7-a816-79069193af9a'
p852
sg15
F0.20243
sg16
I3
sg17
F0.633677
sg18
F4.0
sg19
F2012.0
sg20
F246.93288
sg21
F-6.097
sg22
S'Thuht253jo2nkuoxjjauplfn5zi'
p853
sg24
F0.401249
sg25
L6L
sg26
F0.40997164097
sg27
F1.6e-05
sa(dp854
g3
F0.073908
sg4
S'Valentina Lisitsa'
p855
sg6
S'http://lh5.ggpht.com/BFO4tfaAvTI_lRpHONPZeng3gPXOO8-rqYcTQcoLgxAfpuj4vFo31HpXh58G82fz4kUhQdQuzQo'
p856
sg8
F0.017179
sg9
S'Ellens Gesang III (Ave Maria)  S558 no.12 (after Schubert\xe2\x80\x99s D839)'
p857
sg11
F81.851
sg12
F0.036504
sg13
S'b2f22c1c-b12f-3125-a86c-696f12950412'
p858
sg15
F0.992143
sg16
I3
sg17
F0.198088
sg18
F3.0
sg19
F2011.0
sg20
F331.81288
sg21
F-29.981
sg22
S'Tbvamxp53ufufmnhqlzduqggfz4'
p859
sg24
F0.038902
sg25
L6L
sg26
F0.559777263004
sg27
F0.926795
sa(dp860
g3
F0.150731
sg4
g101
sg6
g102
sg8
F0.858754
sg9
S'To The Beat Of Our Noisy Hearts'
p861
sg11
F76.02
sg12
F0.061065
sg13
S'7c55df05-3cf5-3269-a6c4-9d1004b4a2e5'
p862
sg15
F0.000719
sg16
I3
sg17
F0.588833
sg18
F4.0
sg19
F2011.0
sg20
F181.89288
sg21
F-4.465
sg22
S'T3ft2zqjexcsg4n6cpdpwqlj4aa'
p863
sg24
F0.659838
sg25
L6L
sg26
F0.499727972349
sg27
F7e-06
sa(dp864
g3
F0.126078
sg4
g101
sg6
g102
sg8
F0.465141
sg9
S'Still'
p865
sg11
F85.994
sg12
F0.024424
sg13
S'e5cafe5e-d38f-393b-9e55-d772e1d25680'
p866
sg15
F0.026345
sg16
I3
sg17
F0.679692
sg18
F4.0
sg19
F2011.0
sg20
F231.59955
sg21
F-6.545
sg22
S'Tfuztm6wjhsulzswup7drivscea'
p867
sg24
F0.394214
sg25
L6L
sg26
F0.499727972349
sg27
F0.2659390501089325
sa(dp868
g3
F0.075545
sg4
S'San Fermin'
p869
sg6
S'http://lh6.ggpht.com/RGT_JMEK5jFKzFsXPX0Ox5Hqk-3f8AEwnXBUZwOHHv8mLWMVwF0cUMiqcYv-_TiHfsZ5I76_'
p870
sg8
F0.616872
sg9
S'Sonsick'
p871
sg11
F74.029
sg12
F0.064726
sg13
S'd3bdcf44-ea5d-33b7-be84-de42ecd8e60d'
p872
sg15
F0.017306
sg16
I3
sg17
F0.462577
sg18
F4.0
sg19
F2013.0
sg20
F273.37601
sg21
F-8.593
sg22
S'Tklm4dcphrupovws5kyeseyzvka'
p873
sg24
F0.527527
sg25
L6L
sg26
F0.50060709663
sg27
F2.9e-05
sa(dp874
g3
F0.089518
sg4
g123
sg6
g124
sg8
F0.260017
sg9
S'Deeper'
p875
sg11
F88.036
sg12
F0.057939
sg13
S'f77b2a20-fddb-36b5-aa09-142cbf5390b1'
p876
sg15
F0.106969
sg16
I3
sg17
F0.773756
sg18
F4.0
sg19
F2011.0
sg20
F225.17506
sg21
F-18.455
sg22
S'Tnqlagmnu2behg4olm5hkjo7awu'
p877
sg24
F0.769306
sg25
L6L
sg26
F0.415381464026
sg27
F0.006053
sa(dp878
g3
F0.830528
sg4
g123
sg6
g175
sg8
F0.419735
sg9
S"Can't You Hear Me Knocking"
p879
sg11
F76.738
sg12
F0.033052
sg13
S'895b8022-36dc-3731-b695-f01af7f175cf'
p880
sg15
F0.600867
sg16
I3
sg17
F0.502976
sg18
F4.0
sg19
F2010.0
sg20
F598.04689
sg21
F-18.35
sg22
S'Ttujmvyh3wr3oum7vfuuxpl7fiy'
p881
sg24
F0.764377
sg25
L6L
sg26
F0.415381464026
sg27
F0.413587
sa(dp882
g3
F0.28978
sg4
S'J.Reu'
p883
sg6
S'http://lh6.ggpht.com/CKgHwKH-bzhbtVLpmhLhkO1BlKpnJxCWp237mYYi1CBIf41hV3YzJ3qbg24E5D4nGyj9h3n8'
p884
sg8
F0.69156
sg9
S'Straight To The Bank'
p885
sg11
F83.935
sg12
F0.255907
sg13
S'41b008bd-3a3e-3621-a56e-a2326e47b315'
p886
sg15
F0.293137
sg16
I3
sg17
F0.741424
sg18
F4.0
sg19
F2012.0
sg20
F264.09556
sg21
F-8.591
sg22
S'Tkrad62edhlk57dwe5634wiokbi'
p887
sg24
F0.23216
sg25
L6L
sg26
F0.252968330726
sg27
F0.2659390501089325
sa(dp888
g3
F0.045516
sg4
g196
sg6
g197
sg8
F0.285891
sg9
S'Jeans'
p889
sg11
F85.915
sg12
F0.146776
sg13
S'de13eb15-96b2-3685-ab57-4f8a3ca1d024'
p890
sg15
F0.58492
sg16
I3
sg17
F0.598226
sg18
F4.0
sg19
F2011.0
sg20
F205.05288
sg21
F-10.48
sg22
S'Tscwudgti7z65qnkwlanepni4hy'
p891
sg24
F0.836654
sg25
L6L
sg26
F0.491559266938
sg27
F5e-06
sa(dp892
g3
F0.04213
sg4
g202
sg6
Fnan
sg8
F0.421439
sg9
S'Careless Love'
p893
sg11
F87.029
sg12
F0.026144
sg13
S'c2d5a4db-5e10-3baf-a355-946e96c8142d'
p894
sg15
F0.114678
sg16
I3
sg17
F0.571095
sg18
F4.0
sg19
F2009.0
sg20
F212.19955
sg21
F-12.277
sg22
S'T6k3r2qfum3rnim7b5twjtrbpvq'
p895
sg24
F0.381393
sg25
L6L
sg26
F0.259683304522
sg27
F0.424984
sa(dp896
g3
F0.239625
sg4
g223
sg6
g224
sg8
F0.096786
sg9
S"Jaco's Serenade"
p897
sg11
F81.016
sg12
F0.032607
sg13
S'6c1136c6-087e-34d9-b46e-e974cecc1e8f'
p898
sg15
F0.844797
sg16
I3
sg17
F0.239031
sg18
F4.0
sg19
F2011.0
sg20
F255.99955
sg21
F-21.513
sg22
S'Tqwu2ucdi326baifzel3n37dptm'
p899
sg24
F0.130409
sg25
L6L
sg26
F0.269127343221
sg27
F0.864139
sa(dp900
g3
F0.121055
sg4
S'Wake Owl'
p901
sg6
S'http://lh5.ggpht.com/EsL-UDWxMdD-c2P0UjqVCzWyfLzwhkhk5DHK0jQtG2zfIEgL2z1qKH7gyv4sqUaDgJCphw-0'
p902
sg8
F0.590055
sg9
S'Gold'
p903
sg11
F86.042
sg12
F0.029587
sg13
S'9dcc9b10-1f9a-3ec7-8881-747fea019678'
p904
sg15
F0.111321
sg16
I3
sg17
F0.484962
sg18
F4.0
sg19
F2013.0
sg20
F224.04027
sg21
F-9.021
sg22
S'Txjgdniq6kftbjc2ltl6jhezt7i'
p905
sg24
F0.439051
sg25
L6L
sg26
F0.52529093909
sg27
F0.000866
sa(dp906
g3
F0.061049
sg4
S'Blaxy Girls'
p907
sg6
S'http://lh5.ggpht.com/MbNGczpvDfqg4Ifgq65yA0M5o6SCgjb8ts4hqgGUDoZijP4lYYe1GaJK88ti3MLL855oZ_A6NA'
p908
sg8
F0.824839
sg9
S'Leaga-Ma la ochi'
p909
sg11
F83.059
sg12
F0.033386
sg13
S'b50d440a-62b5-3b23-abee-cf675ebe7469'
p910
sg15
F0.084896
sg16
I3
sg17
F0.654004
sg18
F4.0
sg19
F2014.0
sg20
F187.06671
sg21
F-5.631
sg22
S'T7ylkvri4ieigroidplqajhg7jq'
p911
sg24
F0.946057
sg25
L6L
sg26
F0.508299106973
sg27
F0.000315
sa(dp912
g3
F0.213055
sg4
S'Chris Stowe'
p913
sg6
g236
sg8
F0.208904
sg9
S'Blood Drinkers'
p914
sg11
F82.709
sg12
F0.037317
sg13
S'1cf4c851-b7e5-3687-a3f3-29e081e75395'
p915
sg15
F0.245326
sg16
I3
sg17
F0.502858
sg18
F4.0
sg19
F2014.0
sg20
F202.42726
sg21
F-13.449
sg22
S'Twikqrkkrurt7cj25qjmtu7ausu'
p916
sg24
F0.143724
sg25
L6L
sg26
F0.349826682618
sg27
F3e-05
sa(dp917
g3
F0.106684
sg4
S'Major Games'
p918
sg6
g236
sg8
F0.777194
sg9
S'Life'
p919
sg11
F77.593
sg12
F0.097669
sg13
S'8a3cd20d-9700-394b-9d3c-e599d88ad968'
p920
sg15
F0.001128
sg16
I3
sg17
F0.156996
sg18
F4.0
sg19
F2014.0
sg20
F245.77429
sg21
F-7.261
sg22
S'Tntrw23gxfkn3vvzzo4rlah6vbi'
p921
sg24
F0.041745
sg25
L6L
sg26
F0.292518234123
sg27
F0.859897
sa(dp922
g3
F0.122065
sg4
S'Field Report'
p923
sg6
S'http://lh5.ggpht.com/DDBu-BnvXtAHkla-hSSOYE__QPeHRLGBehShAeSWKa1F30B809-B1jzqEcH3AjSLsAErV_DwKDo'
p924
sg8
F0.26371
sg9
S'I Am Not Waiting Anymore'
p925
sg11
F81.113
sg12
F0.03504
sg13
S'9ea0da72-a943-306b-a835-6cb80ffb6658'
p926
sg15
F0.769379
sg16
I3
sg17
F0.446855
sg18
F3.0
sg19
F2012.0
sg20
F208.18621
sg21
F-9.256
sg22
S'Tjwfjhj7kv2m4lh3nvq54vvx72e'
p927
sg24
F0.157976
sg25
L6L
sg26
F0.509141139785
sg27
F0.000254
sa(dp928
g3
F0.10889
sg4
S'Chase Fire'
p929
sg6
S'http://lh5.ggpht.com/gI-QG2QEM2lm6sduuOVfEclOq8OhOb4_7l6a8U0pB0H61SjacUYGg3upJ_M7ljm20jWlwwn6'
p930
sg8
F0.797145
sg9
S'Straight To The Top'
p931
sg11
F85.844
sg12
F0.30875
sg13
S'40026e6f-c916-3998-9568-e279403b857b'
p932
sg15
F0.166537
sg16
I3
sg17
F0.359347
sg18
F4.0
sg19
F2011.0
sg20
F285.37288
sg21
F-5.875
sg22
S'Tshmri3hcyt4ypy5g6xj6ajhmba'
p933
sg24
F0.470509
sg25
L6L
sg26
F0.164109556313
sg27
F0.2659390501089325
sa(dp934
g3
F0.265032
sg4
g279
sg6
g280
sg8
F0.72323
sg9
S'Frack Track (feat. Nice Nate)'
p935
sg11
F81.847
sg12
F0.13143
sg13
S'd1fe0ef6-fbec-33c8-9e8b-72e0787bcf01'
p936
sg15
F0.079133
sg16
I3
sg17
F0.354819
sg18
F4.0
sg19
F2014.0
sg20
F330.78844
sg21
F-4.394
sg22
S'Tvo34ygcldrjzrmtzjmue5qcjd4'
p937
sg24
F0.536707
sg25
L6L
sg26
F0.466890261436
sg27
F0.038351
sa(dp938
g3
F0.394031
sg4
g279
sg6
g280
sg8
F0.962408
sg9
S'I Know You (feat. Charlton Samuels)'
p939
sg11
F80.0
sg12
F0.331392
sg13
S'02fc44b1-d4d2-3a79-be0e-4e556939dc19'
p940
sg15
F0.05584
sg16
I3
sg17
F0.28228
sg18
F4.0
sg19
F2014.0
sg20
F283.49955
sg21
F-2.324
sg22
S'Tmqjuf2e7cd4tuwez53x3vh3afe'
p941
sg24
F0.577203
sg25
L6L
sg26
F0.466890261436
sg27
F0.2659390501089325
sa(dp942
g3
F0.129138
sg4
S'Tre Ace'
p943
sg6
S'http://lh6.ggpht.com/ynwmkuRhqOCM3aiBhClmscjAXZWup1BblHSIfE5fs26nvgLXhrBNLXjPlil4F31P7X9LyMIi'
p944
sg8
F0.361399
sg9
S'I Will'
p945
sg11
F75.091
sg12
F0.148545
sg13
S'6826aab3-e154-3952-84cb-13f562573284'
p946
sg15
F0.540319
sg16
I3
sg17
F0.838701
sg18
F4.0
sg19
F2014.0
sg20
F248.00717
sg21
F-11.587
sg22
S'Tjglarhnxzr2nqer5z77bqghzmy'
p947
sg24
F0.247653
sg25
L6L
sg26
F0.245935556317
sg27
F2.1e-05
sa(dp948
g3
F0.108596
sg4
S'Marc Enfroy'
p949
sg6
S'http://lh4.ggpht.com/XNUteZBmRpFNQlyrNqvVUU-mFkYTwhvMkJKwbRpbVWfZow_-ofoTG-YQp7ZSNeZRg5at7Fbo'
p950
sg8
F0.27134
sg9
S'Uniqueness'
p951
sg11
F79.986
sg12
F0.028856
sg13
S'63e716a3-15ea-307f-9050-9c655039ea71'
p952
sg15
F0.931002
sg16
I3
sg17
F0.371784
sg18
F3.0
sg19
F2011.0
sg20
F284.89098
sg21
F-11.96
sg22
S'Tntuojxikhehszrhtfgrdjann2u'
p953
sg24
F0.084018
sg25
L6L
sg26
F0.457844430734
sg27
F0.563804
sa(dp954
g3
F0.078044
sg4
g307
sg6
g308
sg8
F0.821432
sg9
S'Nightmares of a Lonely Heart'
p955
sg11
F72.959
sg12
F0.353064
sg13
S'05cd5dde-6ef2-3693-997f-9cc0dad9ca2a'
p956
sg15
F0.047104
sg16
I3
sg17
F0.732282
sg18
F4.0
sg19
F2013.0
sg20
F197.31701
sg21
F-7.063
sg22
S'Tydn7rmifhbt5iz7adt3vkcxicy'
p957
sg24
F0.409954
sg25
L6L
sg26
F0.334559809193
sg27
F0.2659390501089325
sa(dp958
g3
F0.057162
sg4
g786
sg6
g787
sg8
F0.385495
sg9
S'Sun Through Cloud Through Rain'
p959
sg11
F74.914
sg12
F0.034653
sg13
S'323a0677-d54f-34c4-b6e4-a68f30dfff7e'
p960
sg15
F0.364223
sg16
I3
sg17
F0.315789
sg18
F5.0
sg19
F2007.0
sg20
F313.53156
sg21
F-13.866
sg22
S'Thw3kdrivcs6iaxkchaghig76sq'
p961
sg24
F0.126843
sg25
L6L
sg26
F0.275994516708
sg27
F9.1e-05
sa(dp962
g3
F0.162376
sg4
S'The Rocketboys'
p963
sg6
S'http://lh6.ggpht.com/cQCXD1e-GQWC3syjKGom5TCREFUoPb4aDSdzw4MZyfEU2x5M0sQl-54GH6863TQe8JIPTT7WCg'
p964
sg8
F0.911985
sg9
S'The Best'
p965
sg11
F77.555
sg12
F0.071185
sg13
S'b8b8dab6-4a31-33ff-bd19-d6129e5bae7b'
p966
sg15
F0.000183
sg16
I3
sg17
F0.269094
sg18
F4.0
sg19
F2012.0
sg20
F233.45297
sg21
F-5.364
sg22
S'Tcrtjmtmzl6i6qtxxhkem4ktdcy'
p967
sg24
F0.047969
sg25
L6L
sg26
F0.518732266431
sg27
F0.048615
sa(dp968
g3
F0.113055
sg4
g508
sg6
g509
sg8
F0.2653
sg9
S'Song I Will Always Sing'
p969
sg11
F77.987
sg12
F0.031234
sg13
S'e0064cff-1873-3ab7-b27b-197b6ccc72ff'
p970
sg15
F0.914477
sg16
I3
sg17
F0.554319
sg18
F4.0
sg19
F2013.0
sg20
F248.21751
sg21
F-11.218
sg22
S'T6uhc6cxemws6wu3wmj4rk4h7cq'
p971
sg24
F0.183729
sg25
L6L
sg26
F0.247097634462
sg27
F0.000665
sa(dp972
g3
F0.114922
sg4
g89
sg6
g329
sg8
F0.100066
sg9
S'Utopia End Credits'
p973
sg11
F83.679
sg12
F0.030529
sg13
S'1bb35d5d-b126-3e09-9cc5-cb033381140b'
p974
sg15
F0.563338
sg16
I3
sg17
F0.195832
sg18
F4.0
sg19
F2008.0
sg20
F121.41288
sg21
F-23.41
sg22
S'Taocijsfz52asqhvuwycpvsccjy'
p975
sg24
F0.074222
sg25
L6L
sg26
F0.273430095496
sg27
F0.07704
sa(dp976
g3
F0.158559
sg4
g89
sg6
g329
sg8
F0.155116
sg9
S'"Bush Theme" from Utopia'
p977
sg11
F85.765
sg12
F0.036016
sg13
S'71b39b08-397a-3eed-b804-059ee07a763c'
p978
sg15
F0.305868
sg16
I3
sg17
F0.190487
sg18
F4.0
sg19
F2008.0
sg20
F113.67955
sg21
F-18.905
sg22
S'T4o2bisuatnnaajbvdxijqwz5ce'
p979
sg24
F0.038559
sg25
L6L
sg26
F0.273430095496
sg27
F0.521995
sa(dp980
g3
F0.134635
sg4
g534
sg6
g535
sg8
F0.697972
sg9
S'Act 1 - Narcotic'
p981
sg11
F81.992
sg12
F0.035628
sg13
S'1dd990ce-a4c1-37e3-a414-6ac874186cf7'
p982
sg15
F0.787047
sg16
I3
sg17
F0.643535
sg18
F4.0
sg19
F2014.0
sg20
F358.19057
sg21
F-13.322
sg22
S'T5ermklnfhyiv6pubtvqd42lxya'
p983
sg24
F0.361979
sg25
L6L
sg26
F0.462929240542
sg27
F0.962276
saa(lp984
(dp985
g3
F0.219712
sg4
S'I See Stars'
p986
sg6
g58
sg8
F0.330485
sg9
S'Ten Thousand Feet - Metal / Hardcore Album'
p987
sg11
F139.855
sg12
F0.056755
sg13
S'c399f57d-032b-3d86-9c7b-5c8dec771928'
p988
sg15
F0.000569
sg16
I4
sg17
F0.391643
sg18
F4.0
sg19
F2014.0
sg20
F343.97995
sg21
F-29.055
sg22
S'Tq2c72maawqbbuksampq4feohsq'
p989
sg24
F0.258227
sg25
L6L
sg26
F0.50262695251
sg27
F0.005218
sa(dp990
g3
F0.881793
sg4
S"San Francisco Gay Men's Chorus"
p991
sg6
g58
sg8
F0.669292
sg9
S'Friday Night in the Castro - Soundtrack / Cast Recording Album'
p992
sg11
F138.059
sg12
F0.308917
sg13
S'8f6acdb6-249a-3778-b5fb-0e39bd5834ef'
p993
sg15
F0.56166
sg16
I4
sg17
F0.363751
sg18
F4.0
sg19
F2014.0
sg20
F286.17098
sg21
F-13.189
sg22
S'Tarjnvlwcdwoelugselfuofcsfy'
p994
sg24
F0.136332
sg25
L6L
sg26
F0.355862979804
sg27
F0.2659390501089325
sa(dp995
g3
F0.111209
sg4
S'Metric'
p996
sg6
S'http://lh5.ggpht.com/MWze-VfT6JHYtGv9bCxa5xCmts_tnyAwgzaXV03p4Yj8-rtcF4e3p0zqT8X2k8lpZSkLib317RU'
p997
sg8
F0.87687
sg9
S'Gimme Sympathy'
p998
sg11
F139.028
sg12
F0.083271
sg13
S'be1d0f78-a960-3868-8a32-627f276e2272'
p999
sg15
F0.007975
sg16
I4
sg17
F0.449014
sg18
F4.0
sg19
F2009.0
sg20
F234.21288
sg21
F-6.496
sg22
S'Tgbto5kph4feg7znfwdknu3o3ne'
p1000
sg24
F0.120814
sg25
L6L
sg26
F0.432251555576
sg27
F0.00125
sa(dp1001
g3
F0.233171
sg4
S'Chamber of Noize'
p1002
sg6
S'http://lh6.ggpht.com/bZuyBCojBZvUjJzGIf1KRGq-nFysxa2KbEZ1MZxlzTQBZGPmKQ2rPJPnblChy8knKz2_YSpxoI8'
p1003
sg8
F0.705751
sg9
S'Dead Pinky'
p1004
sg11
F140.03
sg12
F0.082625
sg13
S'04b33997-2081-39a6-8738-6ec26f33f2db'
p1005
sg15
F0.071466
sg16
I4
sg17
F0.438953
sg18
F4.0
sg19
F2011.0
sg20
F125.99955
sg21
F-9.631
sg22
S'Termcpw4rngjjdgp5v36ck6od3m'
p1006
sg24
F0.198898
sg25
L6L
sg26
F0.254321855023
sg27
F0.902654
sa(dp1007
g3
F0.093374
sg4
S'Trampled by Turtles'
p1008
sg6
S'http://lh3.ggpht.com/uuozqrfkyjv_zbD9syuHA4EEeCUK7QJN1Wtqg7Nn8xFm-bfsrfLCSQd7GO1JNUektY216jfO'
p1009
sg8
F0.421042
sg9
S'Alone'
p1010
sg11
F141.076
sg12
F0.030858
sg13
S'41095070-d713-3b0d-9445-edd7d3591b60'
p1011
sg15
F0.775325
sg16
I4
sg17
F0.551884
sg18
F4.0
sg19
F2012.0
sg20
F266.79955
sg21
F-10.505
sg22
S'Tkrm2upw3cd5ticlomgqojqe5ma'
p1012
sg24
F0.34217
sg25
L6L
sg26
F0.462073569169
sg27
F0.504282
sa(dp1013
g3
F0.17607
sg4
S'Mia Martini'
p1014
sg6
S'http://lh4.ggpht.com/l-Mic_YbVwrNVI-0i1B5oQPLunBVbaR0vkBoLuUNfQdzZPTWpKj0SARq8rgWpbGaZqLZWyI76A'
p1015
sg8
F0.617277
sg9
S'Donna'
p1016
sg11
F136.144
sg12
F0.028122
sg13
S'd59ead91-44ac-3fc6-9d25-f099529a0a0b'
p1017
sg15
F0.618205
sg16
I4
sg17
F0.523574
sg18
F4.0
sg19
F1989.0
sg20
F242.85995
sg21
F-7.697
sg22
S'Tijw5yxxqg4iuygtqc7e2hhco5a'
p1018
sg24
F0.276643
sg25
L6L
sg26
F0.472619405113
sg27
F6.3e-05
sa(dp1019
g3
F0.302008
sg4
S'Katie Sky'
p1020
sg6
S'http://lh3.ggpht.com/uFV67xkYczYSsM814M6oiNdFLveWy4wkTEIvzwfIeDrREcLpn8plyAuI1q5V8NjoPUHBLjzqm48'
p1021
sg8
F0.82051
sg9
S'Right Words'
p1022
sg11
F135.0
sg12
F0.074995
sg13
S'4de0065f-8690-33ea-b8e8-6d8d6effe370'
p1023
sg15
F0.0568
sg16
I4
sg17
F0.723309
sg18
F4.0
sg19
F2011.0
sg20
F206.72218
sg21
F-4.958
sg22
S'Tssksrds3zr7nbtjkrx52vpgjua'
p1024
sg24
F0.559721
sg25
L6L
sg26
F0.489884858802
sg27
F1e-06
sa(dp1025
g3
F0.889599
sg4
S'Dr. Dog'
p1026
sg6
S'http://lh3.ggpht.com/1h1bCAf0m-xshobe-sYh_1oOzoB7ccNotIyLZkwUZRlT9sBC0Bs-ZbpkrfoC3n1RMTAztVdLSg'
p1027
sg8
F0.844234
sg9
S'Lonesome'
p1028
sg11
F140.127
sg12
F0.136575
sg13
S'0b1d22a2-59fd-3a6f-b1c1-b68ec2fc8e49'
p1029
sg15
F0.01839
sg16
I4
sg17
F0.423804
sg18
F4.0
sg19
F2012.0
sg20
F264.13188
sg21
F-7.082
sg22
S'Tn4uzj5akxqh3ubhm4nom3bkefu'
p1030
sg24
F0.330515
sg25
L6L
sg26
F0.44277217852
sg27
F2.9e-05
sa(dp1031
g3
F0.735992
sg4
g1026
sg6
g1027
sg8
F0.920479
sg9
S'Vampire'
p1032
sg11
F145.645
sg12
F0.052382
sg13
S'57fa4aa3-0d8a-37e7-8b9e-19870f0f8caa'
p1033
sg15
F0.172498
sg16
I4
sg17
F0.411746
sg18
F4.0
sg19
F2012.0
sg20
F266.69823
sg21
F-3.641
sg22
S'Thxtkgpyqu5fncfgp6lltucrxli'
p1034
sg24
F0.557554
sg25
L6L
sg26
F0.44277217852
sg27
F0.000166
sa(dp1035
g3
F0.89807
sg4
g123
sg6
g124
sg8
F0.573315
sg9
S'All In Time LIVE'
p1036
sg11
F143.616
sg12
F0.067211
sg13
S'103e768a-f78d-336b-ae49-dac53dc431ac'
p1037
sg15
F0.020146
sg16
I4
sg17
F0.356015
sg18
F4.0
sg19
F2011.0
sg20
F1061.48526
sg21
F-17.274
sg22
S'Tley2hr2t6pfw56uxy7d7elmqle'
p1038
sg24
F0.471832
sg25
L6L
sg26
F0.415381464026
sg27
F0.693941
sa(dp1039
g3
F0.89807
sg4
g123
sg6
g124
sg8
F0.573315
sg9
g1036
sg11
F143.616
sg12
F0.067211
sg13
S'014095ed-48c9-3347-a472-2a3e5938b1ee'
p1040
sg15
F0.020146
sg16
I4
sg17
F0.356015
sg18
F4.0
sg19
F2011.0
sg20
F1061.48526
sg21
F-17.274
sg22
S'Tgvdb3uyeqcfkwyi3rcgrizbcdq'
p1041
sg24
F0.471832
sg25
L6L
sg26
F0.415381464026
sg27
F0.693941
sa(dp1042
g3
F0.176144
sg4
g123
sg6
g152
sg8
F0.548299
sg9
S'Hurt Bird Bath'
p1043
sg11
F137.597
sg12
F0.041686
sg13
S'13459492-7de0-3d5f-965a-8f122f26cf27'
p1044
sg15
F0.483828
sg16
I4
sg17
F0.426143
sg18
F4.0
sg19
F2011.0
sg20
F1034.40209
sg21
F-17.829
sg22
S'T5f5m5lqxq7l3m77ouvkiheqsri'
p1045
sg24
F0.602635
sg25
L6L
sg26
F0.415381464026
sg27
F0.804425
sa(dp1046
g3
F0.89807
sg4
g123
sg6
g152
sg8
F0.573315
sg9
g1036
sg11
F143.616
sg12
F0.067211
sg13
S'bfdb686b-b677-38fc-abc7-745fecfd55f2'
p1047
sg15
F0.020146
sg16
I4
sg17
F0.356015
sg18
F4.0
sg19
F2011.0
sg20
F1061.48526
sg21
F-17.274
sg22
S'Tvotbk2m27ndxticwwxakcdz5nu'
p1048
sg24
F0.471832
sg25
L6L
sg26
F0.415381464026
sg27
F0.693941
sa(dp1049
g3
F0.89807
sg4
g123
sg6
g152
sg8
F0.573315
sg9
g1036
sg11
F143.616
sg12
F0.067211
sg13
S'06be1140-39ba-321a-8fca-5a8a504ff5d9'
p1050
sg15
F0.020146
sg16
I4
sg17
F0.356015
sg18
F4.0
sg19
F2011.0
sg20
F1061.48526
sg21
F-17.274
sg22
S'Trfin643yfv4vfntbl2fbfog4d4'
p1051
sg24
F0.471832
sg25
L6L
sg26
F0.415381464026
sg27
F0.693941
sa(dp1052
g3
F0.38418
sg4
g123
sg6
g175
sg8
F0.600401
sg9
S"Phil's Farm>"
p1053
sg11
F140.263
sg12
F0.039546
sg13
S'9643ae14-ae6a-3f6f-b901-e8bb946adac1'
p1054
sg15
F0.03341
sg16
I4
sg17
F0.412459
sg18
F4.0
sg19
F2010.0
sg20
F768.06921
sg21
F-20.44
sg22
S'T44nmjmm4pexhyf6sfonx3nzjdq'
p1055
sg24
F0.424761
sg25
L6L
sg26
F0.415381464026
sg27
F0.773308
sa(dp1056
g3
F0.305397
sg4
g123
sg6
g175
sg8
F0.838886
sg9
S"Mulche's Odyssey"
p1057
sg11
F142.801
sg12
F0.04373
sg13
S'8cfaa0a0-b10c-325d-bf3a-8e667e76ea49'
p1058
sg15
F0.094172
sg16
I4
sg17
F0.435973
sg18
F4.0
sg19
F2010.0
sg20
F298.49288
sg21
F-7.342
sg22
S'Tox2getzjcpixegxbzjhs64cxeu'
p1059
sg24
F0.574904
sg25
L6L
sg26
F0.415381464026
sg27
F0.025991
sa(dp1060
g3
F0.07632
sg4
g123
sg6
g175
sg8
F0.94506
sg9
S'The Floor'
p1061
sg11
F143.236
sg12
F0.062742
sg13
S'7e270619-88c4-314e-8fc1-22f3a3ded1bc'
p1062
sg15
F0.00375
sg16
I4
sg17
F0.413496
sg18
F4.0
sg19
F2010.0
sg20
F330.10621
sg21
F-7.179
sg22
S'Txsye3fbydhws7ki2wipcpevivm'
p1063
sg24
F0.437949
sg25
L6L
sg26
F0.415381464026
sg27
F0.284784
sa(dp1064
g3
F0.354246
sg4
g386
sg6
g387
sg8
F0.243803
sg9
S'Searching'
p1065
sg11
F138.3
sg12
F0.028643
sg13
S'66608cce-57f5-30ec-8b4d-4b57867da814'
p1066
sg15
F0.250819
sg16
I4
sg17
F0.498685
sg18
F4.0
sg19
F2011.0
sg20
F229.54685
sg21
F-14.678
sg22
S'Tb5mi4qy62sugepaq3od7geml4y'
p1067
sg24
F0.245883
sg25
L6L
sg26
F0.261711676507
sg27
F0.000669
sa(dp1068
g3
F0.092598
sg4
g396
sg6
S'http://lh4.ggpht.com/_GtPyX94bhTri6oPEcxK3lRPhEpTkT3nUK1-DOB8ar4MHwnx-xlzAPqcRPZmo6iqYMxxmk2C5w'
p1069
sg8
F0.966646
sg9
S'The Brink (Original Mix)'
p1070
sg11
F139.952
sg12
F0.100236
sg13
S'4987cf57-3803-3871-9bbb-bfb5c5df88c6'
p1071
sg15
F4.6e-05
sg16
I4
sg17
F0.581791
sg18
F4.0
sg19
F2012.0
sg20
F240.06485
sg21
F-4.19
sg22
S'Twnjfkru54zriosobjxknydy7fe'
p1072
sg24
F0.103379
sg25
L6L
sg26
F0.536887447902
sg27
F0.269971
sa(dp1073
g3
F0.094226
sg4
g229
sg6
g230
sg8
F0.879636
sg9
S"The Witness' Dull Surprise"
p1074
sg11
F139.591
sg12
F0.056309
sg13
S'b2fc63c2-51f3-331a-b5b9-e1dad2440c55'
p1075
sg15
F0.000521
sg16
I4
sg17
F0.290932
sg18
F4.0
sg19
F2011.0
sg20
F248.95955
sg21
F-4.73
sg22
S'Ticqgj3ygcc7kuhjwurvprvzprq'
p1076
sg24
F0.25132
sg25
L6L
sg26
F0.418719856012
sg27
F0.012586
sa(dp1077
g3
F0.131383
sg4
g229
sg6
g230
sg8
F0.666081
sg9
S'Over And Over Again (Lost And Found)'
p1078
sg11
F139.684
sg12
F0.02737
sg13
S'553b3b7e-115f-3cad-9517-270bb5fb3ab1'
p1079
sg15
F0.000185
sg16
I4
sg17
F0.576859
sg18
F4.0
sg19
F2011.0
sg20
F189.31955
sg21
F-8.25
sg22
S'Tmcmn4z4cg6sjqqegklrnzfr33e'
p1080
sg24
F0.87206
sg25
L6L
sg26
F0.418719856012
sg27
F0.015535
sa(dp1081
g3
F0.233034
sg4
S'Ess Vee'
p1082
sg6
S'http://lh5.ggpht.com/GfxHOb3v5ZOEbIZ8W3RIr3WM5KELrsTeerxbCdifLCNttn8cpscm2XUCpn_YAI4U0oLCIU2q'
p1083
sg8
F0.680768
sg9
S"Backyard Sippin'"
p1084
sg11
F138.307
sg12
F0.094309
sg13
S'072279af-25fc-3c1c-81f4-fa7698b55710'
p1085
sg15
F0.032455
sg16
I4
sg17
F0.430962
sg18
F4.0
sg19
F2011.0
sg20
F194.30354
sg21
F-9.493
sg22
S'Tmnwq22tyckf3qvch7e3dkngfjm'
p1086
sg24
F0.695029
sg25
L6L
sg26
F0.341315943912
sg27
F6.7e-05
sa(dp1087
g3
F0.117501
sg4
S'Austin Lucas'
p1088
sg6
g236
sg8
F0.783913
sg9
S'Alone In Memphis'
p1089
sg11
F139.738
sg12
F0.041241
sg13
S'0cf28ca4-8624-3e88-821f-c745d2822eca'
p1090
sg15
F0.170387
sg16
I4
sg17
F0.474743
sg18
F4.0
sg19
F2014.0
sg20
F219.34621
sg21
F-5.591
sg22
S'Tbox3qf6l5je7lxj37qz6tfdhoq'
p1091
sg24
F0.31956
sg25
L6L
sg26
F0.474687038208
sg27
F1e-06
sa(dp1092
g3
F0.114539
sg4
S'American Football'
p1093
sg6
g236
sg8
F0.796616
sg9
S'Never Meant'
p1094
sg11
F144.452
sg12
F0.03763
sg13
S'9a480466-6cc6-3d11-a168-f341f56e8305'
p1095
sg15
F0.020761
sg16
I4
sg17
F0.432618
sg18
F4.0
sg19
F2014.0
sg20
F268.37578
sg21
F-6.708
sg22
S'Ti5bqdzidtjwjoccyomjzvgum7e'
p1096
sg24
F0.395821
sg25
L6L
sg26
F0.416711371683
sg27
F0.016724
sa(dp1097
g3
F0.309105
sg4
S"'68"
p1098
sg6
g236
sg8
F0.891755
sg9
S'Three Is a Crowd (QCA Session)'
p1099
sg11
F135.204
sg12
F0.098863
sg13
S'73446205-c456-35e9-b1d5-fb85ab34ac7c'
p1100
sg15
F0.000133
sg16
I4
sg17
F0.476061
sg18
F3.0
sg19
F2014.0
sg20
F238.00213
sg21
F-6.683
sg22
S'Tn2py5vsdxl76q4lzeg6lc72k74'
p1101
sg24
F0.30177
sg25
L6L
sg26
F0.476866094486
sg27
F0.00458
sa(dp1102
g3
F0.050622
sg4
S'Toe'
p1103
sg6
g236
sg8
F0.499801
sg9
S'Goodbye'
p1104
sg11
F135.019
sg12
F0.03327
sg13
S'86456a9c-1732-30d5-b6e9-16a133bf9d1a'
p1105
sg15
F0.657528
sg16
I4
sg17
F0.545799
sg18
F4.0
sg19
F2014.0
sg20
F454.1122
sg21
F-13.315
sg22
S'Tbp4ey2c5wnun45kej344zqsmhq'
p1106
sg24
F0.105964
sg25
L6L
sg26
F0.424985907871
sg27
F0.590903
sa(dp1107
g3
F0.061566
sg4
S'Weatherbox'
p1108
sg6
g236
sg8
F0.592468
sg9
S'Radio Hive'
p1109
sg11
F147.044
sg12
F0.040715
sg13
S'a7fd2838-b467-338b-b454-dfeed8fd77e0'
p1110
sg15
F0.320823
sg16
I4
sg17
F0.539743
sg18
F4.0
sg19
F2014.0
sg20
F225.96154
sg21
F-6.503
sg22
S'T7ce3jwyk7ugtetyqdxv4sgobkm'
p1111
sg24
F0.757234
sg25
L6L
sg26
F0.449362667055
sg27
F1e-06
sa(dp1112
g3
F0.363995
sg4
S'Pray for Sound'
p1113
sg6
g236
sg8
F0.856859
sg9
S'Decayer'
p1114
sg11
F146.074
sg12
F0.075694
sg13
S'640624f8-80c3-3173-89b7-ab8da06e8937'
p1115
sg15
F0.001408
sg16
I4
sg17
F0.384487
sg18
F4.0
sg19
F2014.0
sg20
F286.07955
sg21
F-4.347
sg22
S'T7ln4jlmhcqzqdgyylby6qqcjhe'
p1116
sg24
F0.370987
sg25
L6L
sg26
F0.487989541894
sg27
F0.914685
sa(dp1117
g3
F0.603928
sg4
S'Sundiver'
p1118
sg6
g236
sg8
F0.894892
sg9
S'Photography'
p1119
sg11
F145.03
sg12
F0.045063
sg13
S'b3afc110-af0e-384f-acc4-2b6c6f6a5fcb'
p1120
sg15
F6.7e-05
sg16
I4
sg17
F0.298504
sg18
F5.0
sg19
F2014.0
sg20
F300.98621
sg21
F-6.635
sg22
S'Tiddof6ivsihujyzq24vekeutp4'
p1121
sg24
F0.429734
sg25
L6L
sg26
F0.280862992364
sg27
F0.371916
sa(dp1122
g3
F0.09517
sg4
g431
sg6
g432
sg8
F0.620842
sg9
S'Collateral Damage'
p1123
sg11
F144.577
sg12
F0.028845
sg13
S'44e49cbd-4d79-3ecd-a6cd-5872a25dc6f1'
p1124
sg15
F0.118241
sg16
I4
sg17
F0.415613
sg18
F4.0
sg19
F1996.0
sg20
F253.34921
sg21
F-10.927
sg22
S'Thjlntfxrcffzidxteii623ck5a'
p1125
sg24
F0.665074
sg25
L6L
sg26
F0.250719795666
sg27
F0.404525
sa(dp1126
g3
F0.135786
sg4
g431
sg6
g432
sg8
F0.750004
sg9
S'In My World'
p1127
sg11
F144.473
sg12
F0.029054
sg13
S'dd2aa1ee-5497-3184-be0c-c468dc6c21e5'
p1128
sg15
F0.059512
sg16
I4
sg17
F0.379865
sg18
F4.0
sg19
F1996.0
sg20
F196.74186
sg21
F-11.823
sg22
S'Tsgu4jl2qnkp5px6awpb65wjshu'
p1129
sg24
F0.931841
sg25
L6L
sg26
F0.250719795666
sg27
F0.158753
sa(dp1130
g3
F0.163357
sg4
S'Tim Halperin'
p1131
sg6
S'http://lh4.ggpht.com/s0LhXUzUrnm6VKbZd3A9MI0lJ-4Xd5eoJXcgS3CdmCg163qJ1_SkZ8O9AOhvekkR28QbYmV6lQ'
p1132
sg8
F0.707916
sg9
S'I Wanna Fall in Love'
p1133
sg11
F136.009
sg12
F0.028838
sg13
S'ef43f660-d0a8-367a-a198-9a729adaea5d'
p1134
sg15
F0.264176
sg16
I4
sg17
F0.530158
sg18
F4.0
sg19
F2011.0
sg20
F215.59859
sg21
F-5.367
sg22
S'T6t6vbonngq3lhysjgcaednkhry'
p1135
sg24
F0.589864
sg25
L6L
sg26
F0.473572689386
sg27
F1e-06
sa(dp1136
g3
F0.243577
sg4
g279
sg6
g280
sg8
F0.679476
sg9
S'Belong (feat. Headphone Activist)'
p1137
sg11
F140.024
sg12
F0.044644
sg13
S'a4d9339a-a86b-3273-bcad-98ef1e66bf6f'
p1138
sg15
F0.182759
sg16
I4
sg17
F0.52916
sg18
F4.0
sg19
F2014.0
sg20
F306.03079
sg21
F-6.793
sg22
S'T5brtwljmyu4xzjixyhs62ky57i'
p1139
sg24
F0.115253
sg25
L6L
sg26
F0.466890261436
sg27
F3.8e-05
sa(dp1140
g3
F0.208071
sg4
g461
sg6
g286
sg8
F0.865466
sg9
S'Black Lotus'
p1141
sg11
F140.894
sg12
F0.034981
sg13
S'50b5f1ef-7fa9-39f1-a9b5-f3709eae40ac'
p1142
sg15
F5.4e-05
sg16
I4
sg17
F0.41383
sg18
F4.0
sg19
F2012.0
sg20
F216.74621
sg21
F-5.168
sg22
S'Tnwppfahqdem5pwcmk7gj6wwwv4'
p1143
sg24
F0.364126
sg25
L6L
sg26
F0.418299168636
sg27
F1e-06
sa(dp1144
g3
F0.177694
sg4
S'Chancellor Warhol'
p1145
sg6
g286
sg8
F0.90722
sg9
S'Dope.Fly.Fresh Feat. Boss Of Nova'
p1146
sg11
F135.108
sg12
F0.181556
sg13
S'6f52fbcc-6f11-3880-bd10-c9fd9e37a802'
p1147
sg15
F0.126564
sg16
I4
sg17
F0.653527
sg18
F4.0
sg19
F2012.0
sg20
F197.15955
sg21
F-4.621
sg22
S'Ticlzce7ivit2za2gsdo323a2re'
p1148
sg24
F0.515755
sg25
L6L
sg26
F0.446822875739
sg27
F0.2659390501089325
sa(dp1149
g3
F0.208833
sg4
g943
sg6
g944
sg8
F0.72856
sg9
S'So Into You'
p1150
sg11
F139.932
sg12
F0.068888
sg13
S'3880f4d7-5765-3582-8ba4-3295f4869c4b'
p1151
sg15
F0.01052
sg16
I4
sg17
F0.524872
sg18
F4.0
sg19
F2014.0
sg20
F111.46512
sg21
F-9.617
sg22
S'Tqa44l6daottc2q6pbnwollwwku'
p1152
sg24
F0.406386
sg25
L6L
sg26
F0.245935556317
sg27
F0.000352
sa(dp1153
g3
F0.379013
sg4
S'Sirion'
p1154
sg6
S'http://lh4.ggpht.com/gREGNOMAWC_l2opZxVtnbMDZ5hZzWCOsR9UbDaNwP_mDLxY0HeiywbnCyxtCgxIT6xKHRRUN1g'
p1155
sg8
F0.801005
sg9
S'Intro'
p1156
sg11
F144.049
sg12
F0.069896
sg13
S'268a8c1d-6c03-37d8-9d3c-c332bb06a19d'
p1157
sg15
F0.018552
sg16
I4
sg17
F0.472562
sg18
F4.0
sg19
F2010.0
sg20
F171.22621
sg21
F-12.649
sg22
S'Tqzogvffak5muwxwyjyofvv5m54'
p1158
sg24
F0.128958
sg25
L6L
sg26
F0.466138835288
sg27
F0.917457
sa(dp1159
g3
F0.096424
sg4
S'A*S*Y*S'
p1160
sg6
S'http://lh5.ggpht.com/R2AmPKqs3jV_NOVDaZKDGO2qgZLc9nogUNaC9hN9nzEbIJ6gVSvkS3xfse3BaqmWIzIUAHylrg'
p1161
sg8
F0.592717
sg9
S'Bassturbation - Oyaebu Break Cut'
p1162
sg11
F140.012
sg12
F0.262772
sg13
S'180e63d2-9091-33bc-b948-6613a187a8b9'
p1163
sg15
F0.000393
sg16
I4
sg17
F0.722479
sg18
F4.0
sg19
F2012.0
sg20
F373.71383
sg21
F-7.398
sg22
S'Tntfzpsfkhpxt4hqhvjhs6n6lza'
p1164
sg24
F0.282421
sg25
L6L
sg26
F0.488779257272
sg27
F0.778127
sa(dp1165
g3
F0.11303
sg4
S'Jesse Harris'
p1166
sg6
S'http://lh3.ggpht.com/rAxF4ennzxQkGOlJuOfa62kTCjdfJcjdu0CDORxkd_3cyKU_VyTwbb0QoMm7sFImPB3jV4jAbLo'
p1167
sg8
F0.49506
sg9
S"I Won't Wait (feat. Conor Oberst)"
p1168
sg11
F138.979
sg12
F0.029786
sg13
S'1a526d92-7d4e-3595-ad6c-8a20fc791be4'
p1169
sg15
F0.486549
sg16
I4
sg17
F0.605496
sg18
F4.0
sg19
F2012.0
sg20
F164.67982
sg21
F-9.455
sg22
S'Typfrbfpcplfa3oso33ztcstw5e'
p1170
sg24
F0.618432
sg25
L6L
sg26
F0.439061034445
sg27
F0.054106
sa(dp1171
g3
F0.249077
sg4
S'Kelley Stoltz'
p1172
sg6
S'http://lh3.ggpht.com/h3N48N_f_4Ehg4AqGwcTolRzMHnzlok_dnv2ZM79xs6n3QfHE-_mDrE-Kllbr4dFxIcxdm0TWw'
p1173
sg8
F0.804271
sg9
S'Double Exposure'
p1174
sg11
F136.477
sg12
F0.037397
sg13
S'6f01aabb-7219-39a3-bed6-47982681e6f0'
p1175
sg15
F0.001577
sg16
I4
sg17
F0.509203
sg18
F4.0
sg19
F2013.0
sg20
F163.97288
sg21
F-6.304
sg22
S'T4bbxwlqoohj4e36stnbl5uzbcm'
p1176
sg24
F0.897084
sg25
L6L
sg26
F0.47170933954
sg27
F0.126835
sa(dp1177
g3
F0.116427
sg4
g1172
sg6
S'http://lh6.ggpht.com/RMejJDj4DFaD7tUfHxsPUq13ioFaP9xYaZfWY0E8Oorelr9yDArlqJXvT3uiJ-K-plNitcSDIw'
p1178
sg8
F0.906481
sg9
S"I Don't Get That"
p1179
sg11
F134.946
sg12
F0.105903
sg13
S'12dd6fce-3ef5-3163-a669-581ab8571111'
p1180
sg15
F0.30592
sg16
I4
sg17
F0.486344
sg18
F4.0
sg19
F2010.0
sg20
F144.54621
sg21
F-2.98
sg22
S'Tsoabirmmf2kdfjuwfmhzet5h2y'
p1181
sg24
F0.528367
sg25
L6L
sg26
F0.47170933954
sg27
F0.2659390501089325
sa(dp1182
g3
F0.083497
sg4
g307
sg6
g308
sg8
F0.882658
sg9
S'B-N-M'
p1183
sg11
F146.003
sg12
F0.304427
sg13
S'a1c6adba-c5aa-3f6a-8c8b-4f129741605f'
p1184
sg15
F0.002205
sg16
I4
sg17
F0.902268
sg18
F4.0
sg19
F2013.0
sg20
F288.87619
sg21
F-4.822
sg22
S'Trvo7b4gcliamfff44wzrwmkb54'
p1185
sg24
F0.868148
sg25
L6L
sg26
F0.334559809193
sg27
F0.2659390501089325
sa(dp1186
g3
F0.072402
sg4
g307
sg6
g308
sg8
F0.85191
sg9
S'Respect for My City'
p1187
sg11
F140.006
sg12
F0.109529
sg13
S'a69f798a-ce69-3aba-be0e-867a6eda83c5'
p1188
sg15
F0.000185
sg16
I4
sg17
F0.805651
sg18
F4.0
sg19
F2013.0
sg20
F261.57823
sg21
F-6.185
sg22
S'Tixestvqiwnrlqf5sur4fydysoq'
p1189
sg24
F0.389966
sg25
L6L
sg26
F0.334559809193
sg27
F0.2659390501089325
sa(dp1190
g3
F0.069058
sg4
g307
sg6
g308
sg8
F0.691697
sg9
S"It's Just Us"
p1191
sg11
F139.963
sg12
F0.279152
sg13
S'1f04a27e-faf4-326b-9954-ded26579c678'
p1192
sg15
F0.001001
sg16
I4
sg17
F0.80204
sg18
F4.0
sg19
F2013.0
sg20
F195.3317
sg21
F-6.416
sg22
S'Twmpab7uikmdnw6nzk5qfdsvuia'
p1193
sg24
F0.746087
sg25
L6L
sg26
F0.334559809193
sg27
F2e-06
sa(dp1194
g3
F0.245495
sg4
g786
sg6
g787
sg8
F0.809897
sg9
S"I'll Go to My Helix"
p1195
sg11
F140.027
sg12
F0.034914
sg13
S'f196516c-0c50-3b13-b58d-f74398663efb'
p1196
sg15
F0.885055
sg16
I4
sg17
F0.635373
sg18
F4.0
sg19
F2007.0
sg20
F203.13156
sg21
F-10.394
sg22
S'Tnjwbym5imlshjnksaf7i4hn2vy'
p1197
sg24
F0.500484
sg25
L6L
sg26
F0.275994516708
sg27
F0.896825
sa(dp1198
g3
F0.155824
sg4
g786
sg6
g787
sg8
F0.337295
sg9
S'As I Open the Door'
p1199
sg11
F139.954
sg12
F0.153615
sg13
S'ef9b3488-9b51-34c3-a481-48614ce3ad7c'
p1200
sg15
F0.042726
sg16
I4
sg17
F0.40641
sg18
F4.0
sg19
F2007.0
sg20
F360.76354
sg21
F-15.458
sg22
S'Ti47omzfdog7qdxp44h73d7frym'
p1201
sg24
F0.054957
sg25
L6L
sg26
F0.275994516708
sg27
F0.624006
sa(dp1202
g3
F0.092621
sg4
g498
sg6
S'http://lh6.ggpht.com/N1VwVId-d7Poh0dtbMp0lkBpgf0YCXVGzYeIZ5ZeGi403kLwvuCpk6ypnaTWoF5RwSnwA_9h'
p1203
sg8
F0.625709
sg9
S'One More Song'
p1204
sg11
F137.067
sg12
F0.029579
sg13
S'8f0fe8bf-ce91-3826-9a37-bf8a6fc4197c'
p1205
sg15
F0.267624
sg16
I4
sg17
F0.632815
sg18
F4.0
sg19
F2008.0
sg20
F222.45941
sg21
F-4.952
sg22
S'Tlsqezspzuvtxmhyatxlwid4ey4'
p1206
sg24
F0.519031
sg25
L6L
sg26
F0.443568291148
sg27
F0.2659390501089325
sa(dp1207
g3
F0.052999
sg4
g323
sg6
g324
sg8
F0.444343
sg9
S'Queue'
p1208
sg11
F139.99
sg12
F0.05773
sg13
S'29358bc9-db43-380e-a606-a95f2ffb68d1'
p1209
sg15
F0.007049
sg16
I4
sg17
F0.720337
sg18
F4.0
sg19
F2014.0
sg20
F253.99955
sg21
F-15.334
sg22
S'Teroetdciqnlicpxktgkrzeflky'
p1210
sg24
F0.380232
sg25
L6L
sg26
F0.386389068806
sg27
F0.776641
sa(dp1211
g3
F0.370365
sg4
g323
sg6
g324
sg8
F0.500344
sg9
S'Stack'
p1212
sg11
F140.03
sg12
F0.131029
sg13
S'4175a2d6-0c7a-307d-b295-63aca3dbc39a'
p1213
sg15
F0.072819
sg16
I4
sg17
F0.762336
sg18
F4.0
sg19
F2014.0
sg20
F163.14231
sg21
F-10.734
sg22
S'Tj76y6sw2djcnroavftny6lncxi'
p1214
sg24
F0.332579
sg25
L6L
sg26
F0.386389068806
sg27
F0.86675
sa(dp1215
g3
F0.057878
sg4
g323
sg6
g324
sg8
F0.562391
sg9
S'Vector'
p1216
sg11
F144.971
sg12
F0.078672
sg13
S'2f420b84-35b0-3139-ae9c-197d55c0689a'
p1217
sg15
F0.028009
sg16
I4
sg17
F0.747926
sg18
F4.0
sg19
F2014.0
sg20
F228.7581
sg21
F-14.278
sg22
S'Tougteh4oyhm7rx7qx45lktvqr4'
p1218
sg24
F0.571001
sg25
L6L
sg26
F0.386389068806
sg27
F0.757287
sa(dp1219
g3
F0.117991
sg4
g323
sg6
g324
sg8
F0.47591
sg9
S'Tree'
p1220
sg11
F135.0
sg12
F0.049734
sg13
S'b453fe99-1a99-338d-9797-0d29b35c7011'
p1221
sg15
F0.820178
sg16
I4
sg17
F0.682168
sg18
F4.0
sg19
F2014.0
sg20
F190.44399
sg21
F-14.316
sg22
S'T5vdry6faweqgsvwstrfq5ltq2q'
p1222
sg24
F0.075558
sg25
L6L
sg26
F0.386389068806
sg27
F0.917369
sa(dp1223
g3
F0.127881
sg4
g89
sg6
g329
sg8
F0.1099
sg9
S'"Tuesday" from Holding On'
p1224
sg11
F137.323
sg12
F0.034681
sg13
S'b1658821-852d-360e-be2b-24b56ae827e1'
p1225
sg15
F0.76527
sg16
I4
sg17
F0.291528
sg18
F5.0
sg19
F2008.0
sg20
F71.27955
sg21
F-19.455
sg22
S'Tyjbmltfj4j4e4aarnqldynspua'
p1226
sg24
F0.038062
sg25
L6L
sg26
F0.273430095496
sg27
F0.746841
sa(dp1227
g3
F0.096371
sg4
g89
sg6
g329
sg8
F0.11307
sg9
S'Unused End Credits'
p1228
sg11
F141.414
sg12
F0.042711
sg13
S'a57b5dcf-6559-39ae-a8fc-f6c7d0d76144'
p1229
sg15
F0.906275
sg16
I4
sg17
F0.189625
sg18
F3.0
sg19
F2008.0
sg20
F102.33288
sg21
F-21.281
sg22
S'Tsudbrpclw6jtoktowe7gnvdbey'
p1230
sg24
F0.108585
sg25
L6L
sg26
F0.273430095496
sg27
F0.988275
sa(dp1231
g3
F0.131369
sg4
g540
sg6
g541
sg8
F0.72793
sg9
S'Party Crash'
p1232
sg11
F139.96
sg12
F0.095229
sg13
S'34397001-6af4-3aee-a65a-24810ed135e0'
p1233
sg15
F0.005534
sg16
I4
sg17
F0.761185
sg18
F4.0
sg19
F2013.0
sg20
F275.37088
sg21
F-9.593
sg22
S'Tk73zf3juzhgyp63zqp4k6pkvgu'
p1234
sg24
F0.736806
sg25
L6L
sg26
F0.252932913188
sg27
F0.099891
sa(dp1235
g3
F0.076952
sg4
g540
sg6
g541
sg8
F0.874226
sg9
S'Dark Thoughts'
p1236
sg11
F139.232
sg12
F0.116169
sg13
S'3aca7094-0e90-3cc0-9f3f-c8c98af78613'
p1237
sg15
F0.051981
sg16
I4
sg17
F0.499547
sg18
F4.0
sg19
F2013.0
sg20
F255.46558
sg21
F-6.747
sg22
S'Tkcibsuonwrpn2lgkypld7wx4cm'
p1238
sg24
F0.664316
sg25
L6L
sg26
F0.252932913188
sg27
F0.002758
sa(dp1239
g3
F0.165514
sg4
g540
sg6
g541
sg8
F0.733137
sg9
S'Gangsta Snaps'
p1240
sg11
F140.0
sg12
F0.177883
sg13
S'e97b7585-5ace-33cf-a80a-1b158c55c9d0'
p1241
sg15
F0.074045
sg16
I4
sg17
F0.834044
sg18
F4.0
sg19
F2013.0
sg20
F281.0917
sg21
F-8.872
sg22
S'Tos6cxmxp4zgpaujwbr4sf3b66y'
p1242
sg24
F0.819311
sg25
L6L
sg26
F0.252932913188
sg27
F0.001471
sa(dp1243
g3
F0.10082
sg4
g540
sg6
g541
sg8
F0.590338
sg9
S'CrossBreed'
p1244
sg11
F139.914
sg12
F0.053822
sg13
S'2d656c70-67d8-3abf-a4aa-d6bd663a5ac1'
p1245
sg15
F0.000147
sg16
I4
sg17
F0.64293
sg18
F4.0
sg19
F2013.0
sg20
F301.75456
sg21
F-9.164
sg22
S'Tjjvcgfzlgyycclc2frlzl4225u'
p1246
sg24
F0.499096
sg25
L6L
sg26
F0.252932913188
sg27
F0.004984
sa(dp1247
g3
F0.053725
sg4
g540
sg6
g541
sg8
F0.666216
sg9
S'Game Change'
p1248
sg11
F135.914
sg12
F0.393745
sg13
S'fb131881-858e-3aff-8937-10d77251ae1a'
p1249
sg15
F0.08806
sg16
I4
sg17
F0.346995
sg18
F4.0
sg19
F2013.0
sg20
F205.75456
sg21
F-6.421
sg22
S'Tnmbhi7ite22cc4z4wi6hi6bpre'
p1250
sg24
F0.323407
sg25
L6L
sg26
F0.252932913188
sg27
F0.2659390501089325
saa(lp1251
(dp1252
g3
F0.132885
sg4
S'Rihanna'
p1253
sg6
S'http://lh5.ggpht.com/m6o9u8dBumvM9QMIJ5n4m7JRRRgVoA5be-jb55Z6aWKeA4bqIYxwdOf_U53CVe104ynV8WzXew'
p1254
sg8
F0.675974
sg9
S'Diamonds'
p1255
sg11
F91.979
sg12
F0.04044
sg13
S'dcee26a8-3b8b-3e75-ba0c-a8f1b61f2e8b'
p1256
sg15
F0.000943
sg16
I5
sg17
F0.552666
sg18
F4.0
sg19
F2012.0
sg20
F225.42667
sg21
F-6.039
sg22
S'T3guqoylajck2z64eiuzvlnnoci'
p1257
sg24
F0.394966
sg25
L4L
sg26
F0.382782321483
sg27
F0.2659390501089325
sa(dp1258
g3
F0.161075
sg4
S'Green Day'
p1259
sg6
S'http://lh3.ggpht.com/x6T-kjGmmi-twAuwpJhKaIgGA_zP5hEaJ0UVQ8m0FbGIZEzeO5lXZ5oniULMsWDb7G1UeLFFRQ'
p1260
sg8
F0.432139
sg9
S'Good Riddance [Time Of Your Life]'
p1261
sg11
F94.605
sg12
F0.03024
sg13
S'885e0138-aece-3341-b21f-9d72d2b3d448'
p1262
sg15
F0.183496
sg16
I5
sg17
F0.474671
sg18
F4.0
sg19
F1997.0
sg20
F153.46667
sg21
F-7.844
sg22
S'Tcboln2b2yiigpkv6w6be6unjre'
p1263
sg24
F0.652337
sg25
L4L
sg26
F0.335268357972
sg27
F0.2659390501089325
sa(dp1264
g3
F0.429997
sg4
S'Jason Aldean'
p1265
sg6
S'http://lh6.ggpht.com/7K4GSdTCVmkSTjKmlrkOEnkCDrcdnakx4ZLsyi5nkJhrbAlmJgohTUL9w6dKW9VBHd5Ug45mrA'
p1266
sg8
F0.297943
sg9
S"Just Gettin' Started (Commentary)"
p1267
sg11
F91.022
sg12
F0.527148
sg13
S'73850446-8813-3ba3-bf61-2c01a14a6fed'
p1268
sg15
F0.890567
sg16
I5
sg17
F0.654191
sg18
F1.0
sg19
F2014.0
sg20
F37.83478
sg21
F-21.707
sg22
S'Tmgddidqsggzwmigiosfbpcfeqy'
p1269
sg24
F0.860078
sg25
L4L
sg26
F0.479720260052
sg27
F0.2659390501089325
sa(dp1270
g3
F0.49226
sg4
g35
sg6
g36
sg8
F0.59431
sg9
S'Jimi Thing'
p1271
sg11
F96.232
sg12
F0.054819
sg13
S'df082f2e-8cb4-3a75-a1b3-ce473b2473d3'
p1272
sg15
F0.053667
sg16
I5
sg17
F0.480039
sg18
F4.0
sg19
F2011.0
sg20
F851.90485
sg21
F-15.76
sg22
S'Tfz7cofkhrhgnb7ivxq2vnwjjry'
p1273
sg24
F0.467242
sg25
L6L
sg26
F0.381223175296
sg27
F0.00036
sa(dp1274
g3
F0.493363
sg4
S'The Ramones'
p1275
sg6
S'http://lh3.ggpht.com/iSOHMYMrHbjGXcpdcjed1LP-5FBKmtY2jekLNVs_SD0TN-oOIKbW5smG1vdagpAswwHFCd2N'
p1276
sg8
F0.757064
sg9
S'Rockaway Beach'
p1277
sg11
F98.296
sg12
F0.050496
sg13
S'9dc5a186-5145-3615-b4c4-94daee5ce188'
p1278
sg15
F0.001155
sg16
I5
sg17
F0.342374
sg18
F4.0
sg19
F2009.0
sg20
F147.53333
sg21
F-11.727
sg22
S'Tfyaw5qvqp22ij4pwqtn4hegzga'
p1279
sg24
F0.737457
sg25
L6L
sg26
F0.29736985343
sg27
F0.000661
sa(dp1280
g3
F0.121774
sg4
S'Ararur'
p1281
sg6
g58
sg8
F0.297548
sg9
S'Archa\xc3\xafko - Jazz With Vocals Album'
p1282
sg11
F91.006
sg12
F0.049438
sg13
S'535fc3b5-577e-35f7-bb18-14b923750d8a'
p1283
sg15
F0.891406
sg16
I5
sg17
F0.504315
sg18
F1.0
sg19
F2014.0
sg20
F451.52608
sg21
F-13.144
sg22
S'Tinallpqlrcd5cn5nk6s4ugkvwe'
p1284
sg24
F0.393609
sg25
L6L
sg26
F0.308059832776
sg27
F0.009416
sa(dp1285
g3
F0.110004
sg4
S"Robert Walter's 20th Congress"
p1286
sg6
g58
sg8
F0.907972
sg9
S'Hunk - Funk / Fusion / Jam Album'
p1287
sg11
F95.788
sg12
F0.067495
sg13
S'9646c33f-985e-3a81-9deb-4690319dffed'
p1288
sg15
F0.017254
sg16
I5
sg17
F0.756042
sg18
F4.0
sg19
F2014.0
sg20
F241.26649
sg21
F-6.064
sg22
S'Tix6vghj2bbay7qwj3k6ah2rhdy'
p1289
sg24
F0.906728
sg25
L6L
sg26
F0.428165490956
sg27
F0.371074
sa(dp1290
g3
F0.087666
sg4
S'Scarecrow'
p1291
sg6
g58
sg8
F0.29466
sg9
S'Evil and Crossroads - Blues Album'
p1292
sg11
F97.061
sg12
F0.211026
sg13
S'f03cb5dc-ca32-3315-82d8-7805a897b7bb'
p1293
sg15
F0.119558
sg16
I5
sg17
F0.840959
sg18
F4.0
sg19
F2014.0
sg20
F249.59955
sg21
F-14.366
sg22
S'Tjfoz3jzszl46yvliggzr3dedni'
p1294
sg24
F0.180929
sg25
L6L
sg26
F0.467981504505
sg27
F0.000196
sa(dp1295
g3
F0.092916
sg4
S'Kelley James'
p1296
sg6
g58
sg8
F0.859017
sg9
S'Marinade - Pop Album'
p1297
sg11
F86.098
sg12
F0.047947
sg13
S'1cf33da8-84cf-3639-b539-f1130cdbc6d0'
p1298
sg15
F0.265941
sg16
I5
sg17
F0.660757
sg18
F4.0
sg19
F2014.0
sg20
F206.44526
sg21
F-6.908
sg22
S'Tooucsztlphoqtvxsdqycaezr6m'
p1299
sg24
F0.79224
sg25
L6L
sg26
F0.436224416742
sg27
F1.2e-05
sa(dp1300
g3
F0.352625
sg4
S'Jean Rohe'
p1301
sg6
g58
sg8
F0.713607
sg9
S'Umbrella - Story Song'
p1302
sg11
F97.285
sg12
F0.113137
sg13
S'7be573e5-8567-3a67-9ce8-abcdc3bf0bc6'
p1303
sg15
F0.279494
sg16
I5
sg17
F0.549263
sg18
F4.0
sg19
F2014.0
sg20
F351.92118
sg21
F-7.243
sg22
S'Tqzddsj6vpmqb5vtex4lw3fwiye'
p1304
sg24
F0.729726
sg25
L6L
sg26
F0.296439051324
sg27
F0.000173
sa(dp1305
g3
F0.060781
sg4
g572
sg6
g573
sg8
F0.916904
sg9
S'Friends Like That'
p1306
sg11
F94.011
sg12
F0.066357
sg13
S'eb6f6ba3-db43-3550-9159-987c12e60eee'
p1307
sg15
F0.075045
sg16
I5
sg17
F0.739115
sg18
F4.0
sg19
F2012.0
sg20
F191.4771
sg21
F-5.113
sg22
S'Ty6ja2jkc47d7donh7s3rx56z4y'
p1308
sg24
F0.673428
sg25
L6L
sg26
F0.309031421999
sg27
F0.2659390501089325
sa(dp1309
g3
F0.108543
sg4
g572
sg6
g573
sg8
F0.789953
sg9
S'Turn Out'
p1310
sg11
F90.049
sg12
F0.035427
sg13
S'bf15b6c7-9de8-3302-86ef-ac746b6ad2d7'
p1311
sg15
F0.052505
sg16
I5
sg17
F0.660419
sg18
F4.0
sg19
F2012.0
sg20
F230.47791
sg21
F-5.929
sg22
S'Tgzi73nozpi2phjju6zqgei72ea'
p1312
sg24
F0.503032
sg25
L6L
sg26
F0.309031421999
sg27
F3.1e-05
sa(dp1313
g3
F0.073711
sg4
g368
sg6
S'http://lh3.ggpht.com/Sm3LfPh2pVCBAtFRfBkZOY4g_hxqknre1GmURs9DqdQl3HsLcYU84hPmkoqYutN3wlBDfjLNeUw'
p1314
sg8
F0.692904
sg9
S'De-Stress'
p1315
sg11
F96.967
sg12
F0.067373
sg13
S'973f8525-ef97-38ab-a493-e872d7ae4e96'
p1316
sg15
F0.042693
sg16
I5
sg17
F0.848715
sg18
F4.0
sg19
F2014.0
sg20
F223.02621
sg21
F-6.374
sg22
S'Tif5gwo2mf7z5a4hhw6ivbimypy'
p1317
sg24
F0.812565
sg25
L6L
sg26
F0.451966312978
sg27
F1e-06
sa(dp1318
g3
F0.261666
sg4
g73
sg6
g74
sg8
F0.335257
sg9
S"Headbruisin'"
p1319
sg11
F95.476
sg12
F0.852061
sg13
S'59a9ef7d-fbc0-3a57-a8c0-9988bef72bd6'
p1320
sg15
F0.158095
sg16
I5
sg17
F0.672288
sg18
F4.0
sg19
F2013.0
sg20
F400.02621
sg21
F-14.786
sg22
S'Ty4weilmcwybkv4m2jvrthylwfm'
p1321
sg24
F0.604699
sg25
L6L
sg26
F0.439177508455
sg27
F0.2659390501089325
sa(dp1322
g3
F0.046026
sg4
g73
sg6
g74
sg8
F0.623371
sg9
S'Who Is That?'
p1323
sg11
F93.813
sg12
F0.419143
sg13
S'2e4758f4-2acc-3676-b36a-2ebc2ac4f9ed'
p1324
sg15
F0.013114
sg16
I5
sg17
F0.858586
sg18
F4.0
sg19
F2013.0
sg20
F144.41288
sg21
F-12.361
sg22
S'Tdnifykgzbclvnxkxcpab7rbwma'
p1325
sg24
F0.506969
sg25
L6L
sg26
F0.439177508455
sg27
F0.2659390501089325
sa(dp1326
g3
F0.100928
sg4
g73
sg6
g74
sg8
F0.560708
sg9
S"Sent One's Anthem"
p1327
sg11
F95.988
sg12
F0.306293
sg13
S'fddeae8f-cfcb-3979-8beb-56a5b8048a52'
p1328
sg15
F0.687641
sg16
I5
sg17
F0.85236
sg18
F4.0
sg19
F2013.0
sg20
F302.19955
sg21
F-9.562
sg22
S'Tll6zo3d3l5c3rh267753wkr5hu'
p1329
sg24
F0.904397
sg25
L6L
sg26
F0.439177508455
sg27
F0.2659390501089325
sa(dp1330
g3
F0.11976
sg4
S'Black Milk'
p1331
sg6
S'http://lh3.ggpht.com/ovX-drm4e6vKgSBLfn-OCB0ZgB9jHGk2IW-n2vP0sewPmRnxaDo19r7aH-y30theo7btskjH8w'
p1332
sg8
F0.718284
sg9
S'Cold Day'
p1333
sg11
F87.107
sg12
F0.364325
sg13
S'099f17ae-0ef4-35b9-9127-4b998daccf1e'
p1334
sg15
F0.181141
sg16
I5
sg17
F0.699485
sg18
F4.0
sg19
F2014.0
sg20
F154.85134
sg21
F-4.223
sg22
S'Th52hpeddss7vb6ha2yqduoebdi'
p1335
sg24
F0.888557
sg25
L6L
sg26
F0.418464065701
sg27
F0.2659390501089325
sa(dp1336
g3
F0.10218
sg4
g79
sg6
g80
sg8
F0.515314
sg9
S'Last Year'
p1337
sg11
F94.659
sg12
F0.025284
sg13
S'b16ff455-be8f-3e75-a41e-15395ebf85e1'
p1338
sg15
F0.004788
sg16
I5
sg17
F0.501094
sg18
F3.0
sg19
F2012.0
sg20
F213.22621
sg21
F-7.374
sg22
S'Tvtfqmw4fetizmqnjvjhjscjgyq'
p1339
sg24
F0.616961
sg25
L6L
sg26
F0.468873175959
sg27
F1e-06
sa(dp1340
g3
F0.092467
sg4
g101
sg6
g102
sg8
F0.614492
sg9
S'Come On Get Higher'
p1341
sg11
F92.024
sg12
F0.029353
sg13
S'549acc18-f405-3b46-bf24-13a227bb71bc'
p1342
sg15
F0.240732
sg16
I5
sg17
F0.678666
sg18
F4.0
sg19
F2011.0
sg20
F216.95955
sg21
F-5.699
sg22
S'Tinrush5s5ay6nh7l2dzpjlv7hy'
p1343
sg24
F0.611898
sg25
L6L
sg26
F0.499727972349
sg27
F0.2659390501089325
sa(dp1344
g3
F0.109231
sg4
S'FIDLAR'
p1345
sg6
S'http://lh3.ggpht.com/R1HHoU-YIiodAdXIhOk2S9rmvr8DgH4mtk0nx5dBZsUweU1q4GyFAq0xsnM8jVKlzD20Tucf'
p1346
sg8
F0.927924
sg9
S'No Waves'
p1347
sg11
F98.474
sg12
F0.044055
sg13
S'991d1a54-5ca1-3a4c-bceb-6a0c303d3803'
p1348
sg15
F0.000713
sg16
I5
sg17
F0.480968
sg18
F4.0
sg19
F2012.0
sg20
F136.02621
sg21
F-4.199
sg22
S'Tbgihypgz5g4ydpp6z2sbsmm6ci'
p1349
sg24
F0.34093
sg25
L6L
sg26
F0.492095052637
sg27
F0.2659390501089325
sa(dp1350
g3
F0.060042
sg4
g1026
sg6
g1027
sg8
F0.816924
sg9
S'Do The Trick'
p1351
sg11
F97.71
sg12
F0.029784
sg13
S'f784e2af-0ff3-3d91-9727-0d70e46d32b6'
p1352
sg15
F0.182439
sg16
I5
sg17
F0.549465
sg18
F4.0
sg19
F2012.0
sg20
F272.44517
sg21
F-4.861
sg22
S'Trs44g52i72igzsxxdzr4m7hnba'
p1353
sg24
F0.848776
sg25
L6L
sg26
F0.44277217852
sg27
F3e-06
sa(dp1354
g3
F0.680955
sg4
g1026
sg6
g1027
sg8
F0.901423
sg9
S'That Old Black Hole'
p1355
sg11
F97.366
sg12
F0.065156
sg13
S'76b729e9-4092-3bb4-8241-5f4c58a8d455'
p1356
sg15
F0.001734
sg16
I5
sg17
F0.45891
sg18
F4.0
sg19
F2012.0
sg20
F228.32952
sg21
F-7.135
sg22
S'Tkxnmff3wwf564n257mghxzyfzy'
p1357
sg24
F0.59184
sg25
L6L
sg26
F0.44277217852
sg27
F0.014862
sa(dp1358
g3
F0.090198
sg4
g123
sg6
g124
sg8
F0.715897
sg9
S'Turn and Dub'
p1359
sg11
F90.023
sg12
F0.040442
sg13
S'99b009eb-3da9-3272-88d6-12cd7e93704d'
p1360
sg15
F0.025117
sg16
I5
sg17
F0.712105
sg18
F4.0
sg19
F2011.0
sg20
F455.61333
sg21
F-6.125
sg22
S'Tgszg7yvv77hghldmo7mcezfcou'
p1361
sg24
F0.533935
sg25
L6L
sg26
F0.415381464026
sg27
F0.045025
sa(dp1362
g3
F0.980844
sg4
g123
sg6
g175
sg8
F0.501346
sg9
S'The Bottom Half'
p1363
sg11
F96.632
sg12
F0.041055
sg13
S'8a2b6052-c7f5-3e3a-8938-44c73c54cb70'
p1364
sg15
F0.434847
sg16
I5
sg17
F0.50809
sg18
F4.0
sg19
F2010.0
sg20
F481.23311
sg21
F-13.135
sg22
S'Tpargiezibsp6mqvm4mh7hwl5aa'
p1365
sg24
F0.222856
sg25
L6L
sg26
F0.415381464026
sg27
F0.635267
sa(dp1366
g3
F0.279192
sg4
g123
sg6
g175
sg8
F0.355198
sg9
S'Hangover'
p1367
sg11
F88.255
sg12
F0.081615
sg13
S'6700324e-35c4-3d00-8356-7a59bc149af8'
p1368
sg15
F0.747004
sg16
I5
sg17
F0.512707
sg18
F4.0
sg19
F2010.0
sg20
F528.50893
sg21
F-16.325
sg22
S'Teihafjesqcvrfiomn5gvp4mmsa'
p1369
sg24
F0.379441
sg25
L6L
sg26
F0.415381464026
sg27
F0.031291
sa(dp1370
g3
F0.183813
sg4
g123
sg6
g175
sg8
F0.272611
sg9
S'Turn & Dub'
p1371
sg11
F90.98
sg12
F0.042545
sg13
S'0da43a36-f019-3fbc-bde9-50ac1fd54808'
p1372
sg15
F0.451601
sg16
I5
sg17
F0.463462
sg18
F4.0
sg19
F2010.0
sg20
F641.56689
sg21
F-21.349
sg22
S'Tdljeivdexuvhf4dhkynpii7qzq'
p1373
sg24
F0.35678
sg25
L6L
sg26
F0.415381464026
sg27
F0.440392
sa(dp1374
g3
F0.135682
sg4
g123
sg6
g175
sg8
F0.504275
sg9
S"Alex's House"
p1375
sg11
F96.214
sg12
F0.032426
sg13
S'2e1cd307-afdf-347d-9061-91709d4b7776'
p1376
sg15
F0.451504
sg16
I5
sg17
F0.595478
sg18
F4.0
sg19
F2010.0
sg20
F316.11601
sg21
F-15.653
sg22
S'T4akcxqxgtx5vaz7nvnnk5s2ig4'
p1377
sg24
F0.328381
sg25
L6L
sg26
F0.415381464026
sg27
F0.204085
sa(dp1378
g3
F0.350251
sg4
g202
sg6
Fnan
sg8
F0.601133
sg9
S'All Stars'
p1379
sg11
F89.864
sg12
F0.044683
sg13
S'f402fc85-ec38-3dde-83af-45b771bb31bb'
p1380
sg15
F0.01265
sg16
I5
sg17
F0.300565
sg18
F4.0
sg19
F2009.0
sg20
F320.79955
sg21
F-12.188
sg22
S'Tdditgrcoicjhzloebx7kxt2jsq'
p1381
sg24
F0.379127
sg25
L6L
sg26
F0.259683304522
sg27
F6e-06
sa(dp1382
g3
F0.107502
sg4
g202
sg6
Fnan
sg8
F0.412081
sg9
S'Not For Sale'
p1383
sg11
F90.021
sg12
F0.033248
sg13
S'b637f25d-168d-345c-ae87-907a1fa31848'
p1384
sg15
F0.000214
sg16
I5
sg17
F0.545928
sg18
F4.0
sg19
F2009.0
sg20
F271.99955
sg21
F-14.907
sg22
S'Txxkxkboomhpfmediss2vr66l74'
p1385
sg24
F0.658094
sg25
L6L
sg26
F0.259683304522
sg27
F0.000504
sa(dp1386
g3
F0.060514
sg4
g202
sg6
Fnan
sg8
F0.514742
sg9
S'Heartbroken'
p1387
sg11
F94.958
sg12
F0.028062
sg13
S'8913bf49-5575-3d30-8488-1ee3359990d1'
p1388
sg15
F0.075533
sg16
I5
sg17
F0.635735
sg18
F4.0
sg19
F2009.0
sg20
F207.09955
sg21
F-11.216
sg22
S'Ts4iwmlpmd5ptd3s3wjujcww77u'
p1389
sg24
F0.384219
sg25
L6L
sg26
F0.259683304522
sg27
F0.000121
sa(dp1390
g3
F0.090649
sg4
g202
sg6
Fnan
sg8
F0.35908
sg9
S'In My Head'
p1391
sg11
F97.984
sg12
F0.025305
sg13
S'c18553d5-5105-3a6a-8dc1-66e83c49de79'
p1392
sg15
F0.392418
sg16
I5
sg17
F0.632506
sg18
F4.0
sg19
F2009.0
sg20
F254.79955
sg21
F-15.216
sg22
S'Twzs2su7nribxpf5z52ntb4qgxe'
p1393
sg24
F0.484545
sg25
L6L
sg26
F0.259683304522
sg27
F0.000237
sa(dp1394
g3
F0.369566
sg4
g386
sg6
g387
sg8
F0.474616
sg9
g392
sg11
F95.913
sg12
F0.031629
sg13
S'817323eb-50ac-303e-93d9-52420a9b2e65'
p1395
sg15
F0.05193
sg16
I5
sg17
F0.385358
sg18
F4.0
sg19
F2011.0
sg20
F133.51955
sg21
F-14.725
sg22
S'Tnyibsrms5i4bjqzxescsdh3lja'
p1396
sg24
F0.305637
sg25
L6L
sg26
F0.261711676507
sg27
F0.00036
sa(dp1397
g3
F0.077021
sg4
g386
sg6
g387
sg8
F0.314594
sg9
S'Damage Done'
p1398
sg11
F94.005
sg12
F0.027323
sg13
S'95d1fda8-4b5d-3bbd-8870-078723961e87'
p1399
sg15
F0.127873
sg16
I5
sg17
F0.703228
sg18
F4.0
sg19
F2011.0
sg20
F289.18966
sg21
F-15.145
sg22
S'Tvps3lrbymqyvogsxbrwzaqnxia'
p1400
sg24
F0.380776
sg25
L6L
sg26
F0.261711676507
sg27
F0.000896
sa(dp1401
g3
F0.369975
sg4
g386
sg6
g387
sg8
F0.143808
sg9
S'Giving Up (Live)'
p1402
sg11
F90.091
sg12
F0.051942
sg13
S'536a310c-dac2-3a5b-8199-3faaa53356c1'
p1403
sg15
F0.940496
sg16
I5
sg17
F0.438949
sg18
F4.0
sg19
F2011.0
sg20
F234.00259
sg21
F-17.902
sg22
S'Tpfodevgnq5x34cfeh7if7gxu7m'
p1404
sg24
F0.211327
sg25
L6L
sg26
F0.261711676507
sg27
F3.3e-05
sa(dp1405
g3
F0.375161
sg4
S'The Afghan Whigs'
p1406
sg6
S'http://lh4.ggpht.com/Am3g_JcZjPzF_3pLsmd7SfVByYLLvTvHI7ToEEeXZyJfZf1sErXRaTaJ9gWEi0CE7fyQFx6bdVQ'
p1407
sg8
F0.455485
sg9
S'Lovecrimes'
p1408
sg11
F94.97
sg12
F0.028943
sg13
S'9128dd75-9e49-3285-a5a3-7a1d6d368b43'
p1409
sg15
F0.502712
sg16
I5
sg17
F0.448466
sg18
F4.0
sg19
F2012.0
sg20
F263.26159
sg21
F-11.306
sg22
S'Tbtg3fxvwsneuazhnifw7wa726u'
p1410
sg24
F0.068237
sg25
L6L
sg26
F0.395206280428
sg27
F0.393884
sa(dp1411
g3
F0.102456
sg4
S'The Shaolin Afronauts'
p1412
sg6
S'http://lh6.ggpht.com/MBhy37qcrvf68oymrPFHRtXpeDudJKXBpvRvA9bfTKkIc8mMMLRvvQM4vQE8h4aka8keFOzF'
p1413
sg8
F0.900815
sg9
S'Brooklyn'
p1414
sg11
F95.101
sg12
F0.037579
sg13
S'3c110fbe-7612-3d33-806d-6a2287206e78'
p1415
sg15
F0.010963
sg16
I5
sg17
F0.422643
sg18
F4.0
sg19
F2012.0
sg20
F213.89288
sg21
F-5.835
sg22
S'Tyysjv2t73gpm636badzy7ki3x4'
p1416
sg24
F0.701908
sg25
L6L
sg26
F0.477268557358
sg27
F0.897221
sa(dp1417
g3
F0.181269
sg4
S'White Denim'
p1418
sg6
S'http://lh6.ggpht.com/jWTew75AhUJgNWnJVEg4wCZmsJMPDsiryLWv5wufp2Z23WDZrtrS3ifyzjtGbzXJfU-u-vMxbw'
p1419
sg8
F0.549529
sg9
S'Pretty Green'
p1420
sg11
F88.551
sg12
F0.040895
sg13
S'132027c5-a9f4-32e5-b801-433901a8a4b2'
p1421
sg15
F0.074155
sg16
I5
sg17
F0.57014
sg18
F4.0
sg19
F2013.0
sg20
F193.43628
sg21
F-16.451
sg22
S'Tasdndxkskms6sw2e3sxmufcacm'
p1422
sg24
F0.427406
sg25
L6L
sg26
F0.468001175241
sg27
F0.2659390501089325
sa(dp1423
g3
F0.359435
sg4
S'Tangled Hair'
p1424
sg6
g236
sg8
F0.60076
sg9
S'Forty Winks'
p1425
sg11
F89.224
sg12
F0.044496
sg13
S'8f074b34-c314-3281-93ee-9f7579e4b2fb'
p1426
sg15
F0.598343
sg16
I5
sg17
F0.563303
sg18
F3.0
sg19
F2014.0
sg20
F226.2722
sg21
F-10.913
sg22
S'Ttqiyph6o5egepepvm7gp7ih5aa'
p1427
sg24
F0.381859
sg25
L6L
sg26
F0.482105444399
sg27
F0.619658
sa(dp1428
g3
F0.081129
sg4
g431
sg6
g432
sg8
F0.809652
sg9
S"She's Crying At My Funeral"
p1429
sg11
F93.456
sg12
F0.027618
sg13
S'fe648568-ed70-35b5-855a-53a425372a1d'
p1430
sg15
F0.009917
sg16
I5
sg17
F0.494333
sg18
F4.0
sg19
F1996.0
sg20
F171.11574
sg21
F-10.699
sg22
S'Tvgw3yv7yl76athj32y3jumdneq'
p1431
sg24
F0.798197
sg25
L6L
sg26
F0.250719795666
sg27
F0.278331
sa(dp1432
g3
F0.081129
sg4
g431
sg6
g432
sg8
F0.809652
sg9
g1429
sg11
F93.456
sg12
F0.027618
sg13
S'7ac33e0c-7cea-3aa0-8084-66980cff9753'
p1433
sg15
F0.009917
sg16
I5
sg17
F0.494333
sg18
F4.0
sg19
F1996.0
sg20
F171.11574
sg21
F-10.699
sg22
S'Tz5eh34b4zabnlyss5fusgq7shu'
p1434
sg24
F0.798197
sg25
L6L
sg26
F0.250719795666
sg27
F0.278331
sa(dp1435
g3
F0.229263
sg4
g73
sg6
S'http://lh5.ggpht.com/928pnWG6Xw1lrMT9xT2-YubEh_sonruh5nPkKXmXsRo_9RPno2LpqEdvgrz3K4W5x25vUBk78A'
p1436
sg8
F0.366807
sg9
S'I am trying to do that.'
p1437
sg11
F93.584
sg12
F0.404477
sg13
S'5ac48cff-bdfa-3eba-81ae-987f19f26d59'
p1438
sg15
F0.214992
sg16
I5
sg17
F0.657751
sg18
F4.0
sg19
F2004.0
sg20
F23.97288
sg21
F-11.952
sg22
S'T4l2h7bndo33zfnovyohxajb4ja'
p1439
sg24
F0.614973
sg25
L6L
sg26
F0.439177508455
sg27
F0.2659390501089325
sa(dp1440
g3
F0.092365
sg4
g923
sg6
g924
sg8
F0.373573
sg9
S'Fergus Falls'
p1441
sg11
F94.976
sg12
F0.029749
sg13
S'daf603c6-13f0-3f45-b962-ca6baa0ddfc3'
p1442
sg15
F0.517596
sg16
I5
sg17
F0.424503
sg18
F4.0
sg19
F2012.0
sg20
F303.41288
sg21
F-11.259
sg22
S'Tckgza3wfyib4nlda56d65n3iyi'
p1443
sg24
F0.092823
sg25
L6L
sg26
F0.509141139785
sg27
F0.012532
sa(dp1444
g3
F0.136193
sg4
g443
sg6
g444
sg8
F0.46621
sg9
S"03 - The Bumpin' Contraption (The Recalibration)"
p1445
sg11
F95.414
sg12
F0.064641
sg13
S'ab43f24f-a343-3628-8378-1c80cc44acdc'
p1446
sg15
F0.152998
sg16
I5
sg17
F0.828145
sg18
F4.0
sg19
F2011.0
sg20
F276.37506
sg21
F-9.161
sg22
S'Tblujam2zz36ebtg7gcowhwkj5y'
p1447
sg24
F0.401077
sg25
L6L
sg26
F0.423050041937
sg27
F0.761018
sa(dp1448
g3
F0.031702
sg4
g269
sg6
g270
sg8
F0.436575
sg9
S'Do Ya'
p1449
sg11
F96.259
sg12
F0.125087
sg13
S'2d75df45-40cb-350d-a890-22d3a0db6384'
p1450
sg15
F0.180897
sg16
I5
sg17
F0.862764
sg18
F3.0
sg19
F2011.0
sg20
F264.97288
sg21
F-6.216
sg22
S'Tc4upzmd6r6rn4rw7nivrzzed2u'
p1451
sg24
F0.890534
sg25
L6L
sg26
F0.486548390104
sg27
F0.000713
sa(dp1452
g3
F0.082214
sg4
g279
sg6
g280
sg8
F0.872723
sg9
S'Anyway (feat. J. Glaze)'
p1453
sg11
F87.537
sg12
F0.238931
sg13
S'e2f6b5fd-a8d5-34fc-8115-36320d86dfb4'
p1454
sg15
F0.069653
sg16
I5
sg17
F0.412251
sg18
F4.0
sg19
F2014.0
sg20
F214.1829
sg21
F-5.069
sg22
S'Tyalkmu2wb5mzp5dxn24hqjlphe'
p1455
sg24
F0.685455
sg25
L6L
sg26
F0.466890261436
sg27
F0.2659390501089325
sa(dp1456
g3
F0.151912
sg4
g279
sg6
g280
sg8
F0.899889
sg9
S'Today (feat. Headphone Activist)'
p1457
sg11
F89.684
sg12
F0.062503
sg13
S'fc7371ff-43ca-3598-8c4f-67d8acd05923'
p1458
sg15
F0.000332
sg16
I5
sg17
F0.40005
sg18
F4.0
sg19
F2014.0
sg20
F205.33288
sg21
F-2.111
sg22
S'Til4j767maj4n63gymqntrtbalq'
p1459
sg24
F0.302611
sg25
L6L
sg26
F0.466890261436
sg27
F2e-06
sa(dp1460
g3
F0.056777
sg4
g279
sg6
g280
sg8
F0.673266
sg9
S'The 5th Element (feat. Golden Day)'
p1461
sg11
F90.197
sg12
F0.128809
sg13
S'6a02f7a0-dda6-33d7-a200-e3d39aa6e3af'
p1462
sg15
F0.278849
sg16
I5
sg17
F0.583028
sg18
F4.0
sg19
F2014.0
sg20
F221.33288
sg21
F-4.06
sg22
S'Tos2jocc6memnuonrl6k22u2uhu'
p1463
sg24
F0.554298
sg25
L6L
sg26
F0.466890261436
sg27
F0.2659390501089325
sa(dp1464
g3
F0.117211
sg4
g279
sg6
g280
sg8
F0.725615
sg9
S'Gotta Love Me (feat. Golden Day & M. Tomlin)'
p1465
sg11
F89.921
sg12
F0.29219
sg13
S'25b7caef-d5a9-38d2-a587-9f3e6265d5e7'
p1466
sg15
F0.586624
sg16
I5
sg17
F0.364998
sg18
F4.0
sg19
F2014.0
sg20
F258.66621
sg21
F-6.698
sg22
S'Tan7hurahxwortlsflwegtcwyyq'
p1467
sg24
F0.448094
sg25
L6L
sg26
F0.466890261436
sg27
F0.2659390501089325
sa(dp1468
g3
F0.114648
sg4
g470
sg6
g471
sg8
F0.826882
sg9
S'Family Planning'
p1469
sg11
F94.97
sg12
F0.047333
sg13
S'de1e8d13-3cbf-39b9-92f4-56f58711d780'
p1470
sg15
F0.124715
sg16
I5
sg17
F0.405738
sg18
F3.0
sg19
F2011.0
sg20
F233.61288
sg21
F-5.493
sg22
S'Ta6dwlgd7ujxcwks2cnislw25ce'
p1471
sg24
F0.337131
sg25
L6L
sg26
F0.529591888426
sg27
F0.056424
sa(dp1472
g3
F0.071992
sg4
g470
sg6
g471
sg8
F0.581168
sg9
S'Allison'
p1473
sg11
F87.976
sg12
F0.025015
sg13
S'b56ea300-6d25-36c8-869b-4ffcc1383151'
p1474
sg15
F0.112266
sg16
I5
sg17
F0.614593
sg18
F4.0
sg19
F2011.0
sg20
F264.15955
sg21
F-7.49
sg22
S'Tymyiz3dpnt2c65inlijjo5x6om'
p1475
sg24
F0.33376
sg25
L6L
sg26
F0.529591888426
sg27
F0.358986
sa(dp1476
g3
F0.083881
sg4
g470
sg6
g471
sg8
F0.697764
sg9
S'The Annexation Of Puerto Rico'
p1477
sg11
F90.037
sg12
F0.025721
sg13
S'cb3d4bce-ca0c-3234-87ef-15b0e2fea329'
p1478
sg15
F0.409346
sg16
I5
sg17
F0.534913
sg18
F4.0
sg19
F2011.0
sg20
F269.39955
sg21
F-6.725
sg22
S'Ttiingixlewei7wanjmddeghlgy'
p1479
sg24
F0.266517
sg25
L6L
sg26
F0.529591888426
sg27
F0.72711
sa(dp1480
g3
F0.119293
sg4
g943
sg6
g944
sg8
F0.538261
sg9
S'Olive Garden'
p1481
sg11
F92.121
sg12
F0.278552
sg13
S'b61294e1-6829-3f5e-bf23-bedd45f0f89b'
p1482
sg15
F0.234366
sg16
I5
sg17
F0.671557
sg18
F4.0
sg19
F2014.0
sg20
F204.30431
sg21
F-10.518
sg22
S'Tcdvqcprfokhhjput72fgruckve'
p1483
sg24
F0.545002
sg25
L6L
sg26
F0.245935556317
sg27
F0.2659390501089325
sa(dp1484
g3
F0.117669
sg4
g943
sg6
g944
sg8
F0.486577
sg9
S'Imagine'
p1485
sg11
F96.354
sg12
F0.234839
sg13
S'b5582503-89f4-3e89-b9a7-42201c4d9870'
p1486
sg15
F0.127341
sg16
I5
sg17
F0.789486
sg18
F4.0
sg19
F2014.0
sg20
F249.71819
sg21
F-10.247
sg22
S'Tisnbnyz4zlvd65pj6bigbcancy'
p1487
sg24
F0.692158
sg25
L6L
sg26
F0.245935556317
sg27
F0.2659390501089325
sa(dp1488
g3
F0.127567
sg4
g943
sg6
g944
sg8
F0.431946
sg9
S'Heavenly Father'
p1489
sg11
F87.821
sg12
F0.185972
sg13
S'06c2af34-72e0-34bc-9967-0b02019745dc'
p1490
sg15
F0.572333
sg16
I5
sg17
F0.706462
sg18
F4.0
sg19
F2014.0
sg20
F190.77288
sg21
F-9.291
sg22
S'T5dc3gxc2vzpsktvk4hxnd5ixq4'
p1491
sg24
F0.783823
sg25
L6L
sg26
F0.245935556317
sg27
F5e-06
sa(dp1492
g3
F0.049779
sg4
g307
sg6
g308
sg8
F0.722093
sg9
S"Dat's Dead"
p1493
sg11
F86.667
sg12
F0.229668
sg13
S'10069e19-de55-315b-b4d8-4e5aea553739'
p1494
sg15
F0.004923
sg16
I5
sg17
F0.600811
sg18
F5.0
sg19
F2013.0
sg20
F265.81007
sg21
F-6.212
sg22
S'Tdnbpl47z7ig7veaful37mq2dri'
p1495
sg24
F0.946751
sg25
L6L
sg26
F0.334559809193
sg27
F0.2659390501089325
sa(dp1496
g3
F0.185987
sg4
g307
sg6
g308
sg8
F0.524264
sg9
S"It's a Dc Thing"
p1497
sg11
F92.989
sg12
F0.268882
sg13
S'f2e7dfa0-49eb-392b-ae73-788a3b341af5'
p1498
sg15
F0.000139
sg16
I5
sg17
F0.818198
sg18
F4.0
sg19
F2013.0
sg20
F248.75211
sg21
F-6.924
sg22
S'Toagncuwztvlajv6rzy6lakja6q'
p1499
sg24
F0.403993
sg25
L6L
sg26
F0.334559809193
sg27
F0.2659390501089325
sa(dp1500
g3
F0.047341
sg4
g307
sg6
g308
sg8
F0.69822
sg9
S'Flow Godly'
p1501
sg11
F89.997
sg12
F0.27371
sg13
S'811ffcb9-f04f-3142-9c47-9d75eb5391b4'
p1502
sg15
F0.002308
sg16
I5
sg17
F0.85657
sg18
F4.0
sg19
F2013.0
sg20
F223.52
sg21
F-8.786
sg22
S'Ttd4ct5ziycfgfk3qw2nlth3pwi'
p1503
sg24
F0.867725
sg25
L6L
sg26
F0.334559809193
sg27
F0.2659390501089325
sa(dp1504
g3
F0.157475
sg4
g307
sg6
g308
sg8
F0.591995
sg9
S'Distinction (Intro)'
p1505
sg11
F92.038
sg12
F0.274198
sg13
S'92b5c171-7f6a-3446-9f51-4449653a51d7'
p1506
sg15
F0.032369
sg16
I5
sg17
F0.822595
sg18
F4.0
sg19
F2013.0
sg20
F171.97823
sg21
F-6.2
sg22
S'Tuzrkqfvant2ipcqox2ctsgh3ce'
p1507
sg24
F0.703396
sg25
L6L
sg26
F0.334559809193
sg27
F2e-06
sa(dp1508
g3
F0.154826
sg4
g307
sg6
g308
sg8
F0.761056
sg9
S'Mindstate of a Murderer'
p1509
sg11
F89.989
sg12
F0.036796
sg13
S'fb9669e3-e0a2-39e0-90df-f9852399ec06'
p1510
sg15
F0.001577
sg16
I5
sg17
F0.780837
sg18
F4.0
sg19
F2013.0
sg20
F215.13252
sg21
F-5.485
sg22
S'Tvgazqvtrvizg3kfhii7i5t663m'
p1511
sg24
F0.526575
sg25
L6L
sg26
F0.334559809193
sg27
F1e-06
sa(dp1512
g3
F0.33097
sg4
g307
sg6
g308
sg8
F0.880111
sg9
S'Tha Capture'
p1513
sg11
F93.034
sg12
F0.12226
sg13
S'17b23c5a-56c4-3257-8639-6ea0ac1b9030'
p1514
sg15
F6.3e-05
sg16
I5
sg17
F0.774046
sg18
F4.0
sg19
F2013.0
sg20
F144.70639
sg21
F-3.897
sg22
S'Tzqo22qzctgx7twhzf7cx54g76i'
p1515
sg24
F0.384504
sg25
L6L
sg26
F0.334559809193
sg27
F0.2659390501089325
sa(dp1516
g3
F0.200363
sg4
S'Cataldo'
p1517
sg6
S'http://lh6.ggpht.com/r1n3pCVmwvGW0LAwlIc6i-p9GjCzTCGD1bKLGIU15hHtW-c0v9jIlQtwJfFjEtLPKnlm837s'
p1518
sg8
F0.606589
sg9
S'Slow the Time'
p1519
sg11
F87.199
sg12
F0.045643
sg13
S'bdc606e6-2d8e-325e-b0ba-b4b06d83e848'
p1520
sg15
F0.001195
sg16
I5
sg17
F0.458679
sg18
F4.0
sg19
F2014.0
sg20
F269.03909
sg21
F-6.949
sg22
S'Trhilvzpjnakalglwsfp4jq5ayu'
p1521
sg24
F0.428253
sg25
L6L
sg26
F0.498289900117
sg27
F0.000981
sa(dp1522
g3
F0.092793
sg4
g804
sg6
g805
sg8
F0.642298
sg9
S'Lost My House'
p1523
sg11
F96.867
sg12
F0.053085
sg13
S'3676f106-8469-3853-a196-f33c2d5c6b86'
p1524
sg15
F0.109807
sg16
I5
sg17
F0.569067
sg18
F4.0
sg19
F2009.0
sg20
F378.79955
sg21
F-6.604
sg22
S'Towwbkbbbkagqpet67f2bkpue7e'
p1525
sg24
F0.606316
sg25
L6L
sg26
F0.473311153183
sg27
F5.1e-05
sa(dp1526
g3
F0.073029
sg4
g89
sg6
g329
sg8
F0.472177
sg9
S'Utopia Main Theme'
p1527
sg11
F91.493
sg12
F0.042062
sg13
S'10783fc3-ef3b-33ef-8e73-370ab6cea971'
p1528
sg15
F0.07993
sg16
I5
sg17
F0.611607
sg18
F4.0
sg19
F2008.0
sg20
F161.27955
sg21
F-15.101
sg22
S'Tmxg3sa6gtfdp534pv2nswfcyf4'
p1529
sg24
F0.310213
sg25
L6L
sg26
F0.273430095496
sg27
F0.662494
sa(dp1530
g3
F0.116637
sg4
g534
sg6
g535
sg8
F0.011978
sg9
S'Act 1 - Formless'
p1531
sg11
F97.939
sg12
F0.033392
sg13
S'c001049f-0b64-34b1-b360-37875896914e'
p1532
sg15
F0.746378
sg16
I5
sg17
F0.18138
sg18
F3.0
sg19
F2014.0
sg20
F128.8839
sg21
F-18.708
sg22
S'Tu3k2cuoy3abiqjayfhtg7fodee'
p1533
sg24
F0.031294
sg25
L6L
sg26
F0.462929240542
sg27
F0.943838
sa(dp1534
g3
F0.151657
sg4
g534
sg6
g535
sg8
F0.986497
sg9
S'Act 1 - Coil'
p1535
sg11
F91.972
sg12
F0.061088
sg13
S'b4841084-bd0b-340d-a4dd-8632e706ddfe'
p1536
sg15
F0.511136
sg16
I5
sg17
F0.578462
sg18
F4.0
sg19
F2014.0
sg20
F169.45696
sg21
F-8.376
sg22
S'T7c6jl4tab2ydioe5znhzvbwoyq'
p1537
sg24
F0.034364
sg25
L6L
sg26
F0.462929240542
sg27
F0.858335
sa(dp1538
g3
F0.099721
sg4
g540
sg6
g541
sg8
F0.494281
sg9
S'The Stash'
p1539
sg11
F94.169
sg12
F0.170755
sg13
S'5e7606a9-c315-3a2c-bef3-6a61daf56c88'
p1540
sg15
F0.013506
sg16
I5
sg17
F0.59265
sg18
F5.0
sg19
F2013.0
sg20
F219.46884
sg21
F-9.418
sg22
S'Tsklr3ywmazsjeu5nv47y4fudhm'
p1541
sg24
F0.443357
sg25
L6L
sg26
F0.252932913188
sg27
F0.026569
saa(lp1542
(dp1543
g3
F0.119301
sg4
g572
sg6
g573
sg8
F0.776125
sg9
S'Free People'
p1544
sg11
F148.032
sg12
F0.04743
sg13
S'd6169401-637f-3d94-bf9c-18db195a396b'
p1545
sg15
F0.161917
sg16
I6
sg17
F0.492447
sg18
F3.0
sg19
F2012.0
sg20
F234.1873
sg21
F-6.604
sg22
S'Task7xmrkdnrxuz3zgje4tyo7fy'
p1546
sg24
F0.310677
sg25
L6L
sg26
F0.309031421999
sg27
F0.2659390501089325
sa(dp1547
g3
F0.472298
sg4
S'Two Gallants'
p1548
sg6
S'http://lh3.ggpht.com/Qxe-LcUp5L9DDerxF7O0zxzwOahPuBIui-RQzEkwOURkXl1I9GuTiW9Uof7HZMg_R3k-YS909A'
p1549
sg8
F0.907509
sg9
S'Incidental'
p1550
sg11
F161.98
sg12
F0.067308
sg13
S'aa199090-5589-38e0-8766-f3e71a11ba2a'
p1551
sg15
F2.1e-05
sg16
I6
sg17
F0.225446
sg18
F4.0
sg19
F2015.0
sg20
F148.22354
sg21
F-3.996
sg22
S'Txbagepv75wddyi64g5vvduumru'
p1552
sg24
F0.242289
sg25
L6L
sg26
F0.493368037261
sg27
F1.2e-05
sa(dp1553
g3
F0.045247
sg4
S'Cannibal Corpse'
p1554
sg6
S'http://lh4.ggpht.com/DZUHmoys3wIRdR_RBm6EQXM0r3IeppZPzNDOG7w0DanMaG9ysGns4m-zSckoMnQ22-tBExdM9g'
p1555
sg8
F0.996089
sg9
S'Demented Aggression'
p1556
sg11
F149.949
sg12
F0.182938
sg13
S'7754a68c-4fad-359b-b717-0cea76af8e18'
p1557
sg15
F0.000749
sg16
I6
sg17
F0.410649
sg18
F4.0
sg19
F2012.0
sg20
F193.59955
sg21
F-5.313
sg22
S'Tzws44bgrs66mka26nm34q6tnhm'
p1558
sg24
F0.217743
sg25
L6L
sg26
F0.366528583775
sg27
F0.468132
sa(dp1559
g3
F0.472298
sg4
g1548
sg6
S'http://lh6.ggpht.com/KiAk5iTg7S0Bbq9LIGKB48rTZo5EqUc1wIp45CbG6raiVDbFWFSKH7tswJpsPJ1lzBHr7tCj6Q'
p1560
sg8
F0.907509
sg9
g1550
sg11
F161.98
sg12
F0.067308
sg13
S'5592eb40-c09d-334c-a888-e06820fe4c2e'
p1561
sg15
F2.1e-05
sg16
I6
sg17
F0.225446
sg18
F4.0
sg19
F2015.0
sg20
F148.22354
sg21
F-3.996
sg22
S'T2cxsnwqtje7r62z7iyxe22w34e'
p1562
sg24
F0.242289
sg25
L6L
sg26
F0.493368037261
sg27
F1.2e-05
sa(dp1563
g3
F0.09704
sg4
g101
sg6
g102
sg8
F0.410028
sg9
S'Kept'
p1564
sg11
F153.888
sg12
F0.02767
sg13
S'd5c3746e-008b-3008-8399-d82f1084f966'
p1565
sg15
F0.506025
sg16
I6
sg17
F0.489147
sg18
F4.0
sg19
F2011.0
sg20
F201.21288
sg21
F-9.398
sg22
S'Ti3qwd6uvkxv5lnpfdfx5arajry'
p1566
sg24
F0.432331
sg25
L6L
sg26
F0.499727972349
sg27
F4.6e-05
sa(dp1567
g3
F0.716392
sg4
g123
sg6
g124
sg8
F0.723258
sg9
S'The Fussy Dutchman'
p1568
sg11
F149.397
sg12
F0.040254
sg13
S'e4ccdfde-ea7d-318e-8f90-1e10b5c7f275'
p1569
sg15
F0.249457
sg16
I6
sg17
F0.27866
sg18
F4.0
sg19
F2011.0
sg20
F455.92336
sg21
F-11.628
sg22
S'Ts4wqjnnwus2axozyfv4ekkovba'
p1570
sg24
F0.448044
sg25
L6L
sg26
F0.415381464026
sg27
F0.747088
sa(dp1571
g3
F0.312415
sg4
S'Satellite Stories'
p1572
sg6
S'http://lh3.ggpht.com/Dvud53Xt33HeWo814zqMhLhiLP9a2u3Uyx_umYdcgJkXvjXM2xB3xvcIVBMUb-6cpW0jg6hO'
p1573
sg8
F0.622066
sg9
S'Campfire'
p1574
sg11
F155.88
sg12
F0.07533
sg13
S'b5e6270a-6560-3b8f-9add-6cc6bae256bf'
p1575
sg15
F0.002271
sg16
I6
sg17
F0.44273
sg18
F4.0
sg19
F2014.0
sg20
F207.80032
sg21
F-7.072
sg22
S'Tutfylibfzg5ahgvalq53ez34za'
p1576
sg24
F0.31396
sg25
L6L
sg26
F0.532878507099
sg27
F0.00147
sa(dp1577
g3
F0.361451
sg4
g624
sg6
g625
sg8
F0.203148
sg9
S'Stoplight Roses'
p1578
sg11
F152.363
sg12
F0.033896
sg13
S'e182e068-a1c6-3975-b751-726da149963e'
p1579
sg15
F0.878124
sg16
I6
sg17
F0.426048
sg18
F3.0
sg19
F2011.0
sg20
F208.14621
sg21
F-13.604
sg22
S'Tipmjhn7ledecwbblvazwx25fiu'
p1580
sg24
F0.20272
sg25
L6L
sg26
F0.3952684428
sg27
F0.000148
sa(dp1581
g3
F0.121778
sg4
g196
sg6
g197
sg8
F0.329753
sg9
S'Day'
p1582
sg11
F159.968
sg12
F0.03839
sg13
S'fc037a8f-8128-3bb2-95d1-055b8197e860'
p1583
sg15
F0.833324
sg16
I6
sg17
F0.254012
sg18
F4.0
sg19
F2011.0
sg20
F207.62621
sg21
F-14.255
sg22
S'Tnxszrzkdyxdesl76j57knbgl64'
p1584
sg24
F0.103951
sg25
L6L
sg26
F0.491559266938
sg27
F0.191495
sa(dp1585
g3
F0.110364
sg4
g223
sg6
g224
sg8
F0.794541
sg9
g654
sg11
F147.912
sg12
F0.139935
sg13
S'de6e3d1b-1b39-3f0c-92ee-e9d8ccd50a9e'
p1586
sg15
F0.306238
sg16
I6
sg17
F0.386481
sg18
F4.0
sg19
F2011.0
sg20
F272.221
sg21
F-7.856
sg22
S'Tyi5yrrnpa52i7fyakpd2y5pxhq'
p1587
sg24
F0.576159
sg25
L6L
sg26
F0.269127343221
sg27
F1e-06
sa(dp1588
g3
F0.159069
sg4
g229
sg6
g230
sg8
F0.926121
sg9
S'Is This Love?'
p1589
sg11
F148.56
sg12
F0.107787
sg13
S'1d71fed4-f55a-306f-9cac-5496d3996ef6'
p1590
sg15
F0.018449
sg16
I6
sg17
F0.326008
sg18
F4.0
sg19
F2011.0
sg20
F191.78621
sg21
F-4.542
sg22
S'Tqacm2gya3appfrxuaguuyumh5a'
p1591
sg24
F0.118749
sg25
L6L
sg26
F0.418719856012
sg27
F0.088925
sa(dp1592
g3
F0.133498
sg4
g229
sg6
g230
sg8
F0.524114
sg9
S'Satan Said Dance'
p1593
sg11
F148.372
sg12
F0.066664
sg13
S'9f2fa962-d2fc-395e-9560-13b6405ebb14'
p1594
sg15
F0.000125
sg16
I6
sg17
F0.43567
sg18
F4.0
sg19
F2011.0
sg20
F194.84689
sg21
F-18.172
sg22
S'Tneqjwadxn7rcvpzs2ff6d5le2e'
p1595
sg24
F0.197295
sg25
L6L
sg26
F0.418719856012
sg27
F0.000933
sa(dp1596
g3
F0.099138
sg4
g229
sg6
g230
sg8
F0.903011
sg9
S'Upon This Tidal Wave Of Young Blood'
p1597
sg11
F161.308
sg12
F0.055365
sg13
S'4bd1f1d2-1fa8-3f1e-a394-a2289e14c73a'
p1598
sg15
F0.000149
sg16
I6
sg17
F0.44227
sg18
F4.0
sg19
F2011.0
sg20
F274.46621
sg21
F-4.862
sg22
S'Tvqfv25rkagd4yjdw5a676z6p6q'
p1599
sg24
F0.715425
sg25
L6L
sg26
F0.418719856012
sg27
F0.000428
sa(dp1600
g3
F0.228427
sg4
g229
sg6
g230
sg8
F0.972875
sg9
S'Same Mistake'
p1601
sg11
F150.064
sg12
F0.101954
sg13
S'fd2e403d-7698-3ebc-af5d-87814be996d4'
p1602
sg15
F3.2e-05
sg16
I6
sg17
F0.318986
sg18
F4.0
sg19
F2011.0
sg20
F184.85651
sg21
F-4.598
sg22
S'Tmcldmwpinherq4czcwyitg5csq'
p1603
sg24
F0.116245
sg25
L6L
sg26
F0.418719856012
sg27
F0.015608
sa(dp1604
g3
F0.274171
sg4
S'En Garde'
p1605
sg6
g236
sg8
F0.884623
sg9
S'Framed / Slanted'
p1606
sg11
F159.853
sg12
F0.046416
sg13
S'030f3f89-bc31-3fbd-b413-943d2505b95b'
p1607
sg15
F0.001743
sg16
I6
sg17
F0.41182
sg18
F4.0
sg19
F2014.0
sg20
F218.34907
sg21
F-7.393
sg22
S'T76isl4zorywq5acp7cimaxr3zi'
p1608
sg24
F0.534719
sg25
L6L
sg26
F0.371014985536
sg27
F1e-06
sa(dp1609
g3
F0.088842
sg4
S'Miracles of Modern Science'
p1610
sg6
S'http://lh6.ggpht.com/CZK8_SILky4zuM_VvCHHMUKFQyQWlp-x4ki2zWealJEqHF63OSJDVruTHsTMjJfegfxe0mi_'
p1611
sg8
F0.672105
sg9
S'Eating Me Alive'
p1612
sg11
F155.088
sg12
F0.048109
sg13
S'9dc44f93-17c1-3110-8a89-4cdb4ac84456'
p1613
sg15
F0.073844
sg16
I6
sg17
F0.504186
sg18
F4.0
sg19
F2011.0
sg20
F205.53098
sg21
F-8.108
sg22
S'Tjq22b7sxzdj2zmrafmvrbwi5va'
p1614
sg24
F0.502669
sg25
L6L
sg26
F0.475421033375
sg27
F0.000169
sa(dp1615
g3
F0.250869
sg4
S'No Age'
p1616
sg6
S'http://lh6.ggpht.com/TwI9cOjuaOzmvPaAUiUcny2mF0-CgU0cZuE5O8sZnqGeosRWi78iTNwW3pLFKeqNJNTrGhkKPFk'
p1617
sg8
F0.747775
sg9
S'Glitter'
p1618
sg11
F160.921
sg12
F0.059762
sg13
S'c07ee430-0c2e-3498-8801-5bbd2a282cd9'
p1619
sg15
F0.000624
sg16
I6
sg17
F0.233352
sg18
F3.0
sg19
F2010.0
sg20
F228.87955
sg21
F-6.373
sg22
S'Tua4b5flrcdd6fdcr4cdg72662y'
p1620
sg24
F0.481657
sg25
L6L
sg26
F0.410896755641
sg27
F0.844402
sa(dp1621
g3
F0.310982
sg4
S'Too Much'
p1622
sg6
S'http://lh3.ggpht.com/SQVe1t2S6pbFbstYJWHfSEng66s_naWkRdft0j32kwzLaQH5rBUergaMISvhxUzWHjOxlRBkdLk'
p1623
sg8
F0.712762
sg9
S'Have to Be Free (feat. Strange People)'
p1624
sg11
F155.062
sg12
F0.251605
sg13
S'edb5b53f-4e17-3f8f-b694-c40ecfc37fb7'
p1625
sg15
F0.000216
sg16
I6
sg17
F0.595305
sg18
F4.0
sg19
F2012.0
sg20
F283.98621
sg21
F-8.465
sg22
S'Tzljxdp3e2l4ebyof7sapvalfcy'
p1626
sg24
F0.454267
sg25
L6L
sg26
F0.322102705505
sg27
F0.2659390501089325
sa(dp1627
g3
F0.074573
sg4
g431
sg6
g432
sg8
F0.761979
sg9
S'I Wish'
p1628
sg11
F149.141
sg12
F0.033723
sg13
S'3a6da5e6-4294-373e-950d-ba20f87d34bb'
p1629
sg15
F0.00298
sg16
I6
sg17
F0.432004
sg18
F4.0
sg19
F1996.0
sg20
F194.26023
sg21
F-11.048
sg22
S'Tjfkahog343kbdcasgggytciyi4'
p1630
sg24
F0.664265
sg25
L6L
sg26
F0.250719795666
sg27
F0.008937
sa(dp1631
g3
F0.250869
sg4
g1616
sg6
S'http://lh5.ggpht.com/Mn_PscixiALoMGjrlnNG6loDtMur98FJ3Y4j-UoCFIgXBcH5Fvk6e4xKuD4HotvEKQseA9e8Cw'
p1632
sg8
F0.747775
sg9
g1618
sg11
F160.921
sg12
F0.059762
sg13
S'7b51d58a-19fd-3243-8d46-972d2ba29375'
p1633
sg15
F0.000624
sg16
I6
sg17
F0.233352
sg18
F3.0
sg19
F2010.0
sg20
F228.87955
sg21
F-6.373
sg22
S'Tjkvar7s2zqarpaq7hjybx3dhuq'
p1634
sg24
F0.481657
sg25
L6L
sg26
F0.410896755641
sg27
F0.844402
sa(dp1635
g3
F0.21002
sg4
S'Guards'
p1636
sg6
S'http://lh6.ggpht.com/9Apm_wzw-VkOwAgPpQSqTrSKMSehZS3dnkO1o3gy-r05ICKOhMyaMWg_WBDxdK-4vjB0ZBIx'
p1637
sg8
F0.926629
sg9
S'Silver Lining'
p1638
sg11
F159.911
sg12
F0.059274
sg13
S'facb3fd5-9904-3fc0-9d02-4d6f0ec49905'
p1639
sg15
F0.058829
sg16
I6
sg17
F0.342658
sg18
F4.0
sg19
F2013.0
sg20
F178.16925
sg21
F-4.526
sg22
S'Tafuvt4gjbxzv6achs43qltmr7e'
p1640
sg24
F0.437973
sg25
L6L
sg26
F0.537162486142
sg27
F0.2659390501089325
sa(dp1641
g3
F0.113728
sg4
S'Shawn Chrystopher'
p1642
sg6
S'http://lh3.ggpht.com/mabVRT8CSeIJch2z5BOxXtHvTGfXFJ7xHsfwDAEfI60__prXLFORB-cLNeobCr4cu3lc5BOe'
p1643
sg8
F0.692792
sg9
S'One of My Homies'
p1644
sg11
F147.912
sg12
F0.216578
sg13
S'802334d9-5f11-3caa-ad71-85fb74062c7b'
p1645
sg15
F0.088229
sg16
I6
sg17
F0.639507
sg18
F4.0
sg19
F2012.0
sg20
F253.00417
sg21
F-7.402
sg22
S'Tkowsm5qjovl2h2n22255ugixm4'
p1646
sg24
F0.769965
sg25
L6L
sg26
F0.450085095424
sg27
F8e-06
sa(dp1647
g3
F0.03708
sg4
g269
sg6
g270
sg8
F0.746454
sg9
S'Meanwhile...'
p1648
sg11
F160.596
sg12
F0.173353
sg13
S'513cf269-d70f-39db-96d0-eeb33a66521a'
p1649
sg15
F0.093081
sg16
I6
sg17
F0.588053
sg18
F4.0
sg19
F2011.0
sg20
F240.25288
sg21
F-9.284
sg22
S'Tphnpydesxxggd6wxmaf6nwr3em'
p1650
sg24
F0.79914
sg25
L6L
sg26
F0.486548390104
sg27
F3e-06
sa(dp1651
g3
F0.133341
sg4
g269
sg6
g270
sg8
F0.842754
sg9
S'Oughta Know Better'
p1652
sg11
F153.453
sg12
F0.130876
sg13
S'dd710170-1efb-343e-8b82-664d343a495f'
p1653
sg15
F0.270799
sg16
I6
sg17
F0.564903
sg18
F4.0
sg19
F2011.0
sg20
F288.73288
sg21
F-4.995
sg22
S'Thotje6jdzmyread77hz4jk7zyi'
p1654
sg24
F0.74668
sg25
L6L
sg26
F0.486548390104
sg27
F0.2659390501089325
sa(dp1655
g3
F0.337779
sg4
g1145
sg6
g286
sg8
F0.727621
sg9
S"I'm Gone (feat. Jim Wes)"
p1656
sg11
F157.973
sg12
F0.15248
sg13
S'4a7cdd77-ab21-3725-b60a-94120d1433fe'
p1657
sg15
F0.152191
sg16
I6
sg17
F0.599447
sg18
F4.0
sg19
F2012.0
sg20
F188.92358
sg21
F-6.99
sg22
S'Tnaztholq4a5ewehqd7ur6nqpci'
p1658
sg24
F0.545049
sg25
L6L
sg26
F0.446822875739
sg27
F0.2659390501089325
sa(dp1659
g3
F0.09447
sg4
S'Feather & Belle'
p1660
sg6
g286
sg8
F0.462789
sg9
S'All Along'
p1661
sg11
F149.936
sg12
F0.071855
sg13
S'236d7414-c909-32ba-9728-7819ecae6a09'
p1662
sg15
F0.325937
sg16
I6
sg17
F0.562277
sg18
F4.0
sg19
F2012.0
sg20
F164.34621
sg21
F-10.067
sg22
S'Tugoopok6znqy6yskcgxnwnuv3i'
p1663
sg24
F0.542521
sg25
L6L
sg26
F0.360503634538
sg27
F0.000933
sa(dp1664
g3
F0.283787
sg4
S'Torn Hawk'
p1665
sg6
S'http://lh5.ggpht.com/_XUiU9Pu06ihw0fwsMruvt5UjZ0KB0TBfcAD-tHgqJQvpLE7rq7RAs6qMUwKEd3BwAK0brdXZUw'
p1666
sg8
F0.797162
sg9
S"I'm Flexible"
p1667
sg11
F159.925
sg12
F0.088578
sg13
S'329ea40b-ceee-3bd0-b56d-a0f1a5d94995'
p1668
sg15
F0.000289
sg16
I6
sg17
F0.506863
sg18
F4.0
sg19
F2014.0
sg20
F349.69819
sg21
F-7.856
sg22
S'Tczawysdd5zxgbjsvmowzd65tiy'
p1669
sg24
F0.506188
sg25
L6L
sg26
F0.505085747993
sg27
F0.856313
sa(dp1670
g3
F0.111614
sg4
g297
sg6
g298
sg8
F0.630527
sg9
S'Coming Down'
p1671
sg11
F156.032
sg12
F0.0389
sg13
S'ea36de16-25f4-3528-b3b8-2a67088c8589'
p1672
sg15
F0.050127
sg16
I6
sg17
F0.549475
sg18
F3.0
sg19
F2011.0
sg20
F176.26621
sg21
F-7.523
sg22
S'Tgyt2ghnntq7voevuutgkpx2xue'
p1673
sg24
F0.30577
sg25
L6L
sg26
F0.450018983089
sg27
F0.059244
sa(dp1674
g3
F0.068335
sg4
g297
sg6
g298
sg8
F0.723023
sg9
S'The Long Haul'
p1675
sg11
F161.124
sg12
F0.036045
sg13
S'fd9b10bc-de79-3a7f-a80c-f5f04c6ff934'
p1676
sg15
F0.008894
sg16
I6
sg17
F0.449545
sg18
F4.0
sg19
F2011.0
sg20
F256.82667
sg21
F-8.084
sg22
S'Tpgyi6bbjl44w7av6e6um2drjg4'
p1677
sg24
F0.548256
sg25
L6L
sg26
F0.450018983089
sg27
F0.01775
sa(dp1678
g3
F0.149397
sg4
g307
sg6
g308
sg8
F0.84615
sg9
S'Red Horns'
p1679
sg11
F150.045
sg12
F0.074018
sg13
S'61fd7e41-d0ae-3f11-b0ec-4f6ff3be5f7d'
p1680
sg15
F0.016383
sg16
I6
sg17
F0.808511
sg18
F4.0
sg19
F2013.0
sg20
F210.40435
sg21
F-3.837
sg22
S'T3mkhfond4vfqtk6mmqfe6lotwy'
p1681
sg24
F0.826734
sg25
L6L
sg26
F0.334559809193
sg27
F0.2659390501089325
sa(dp1682
g3
F0.201845
sg4
g786
sg6
g787
sg8
F0.393992
sg9
S'Warm Mushy Minds'
p1683
sg11
F159.988
sg12
F0.044187
sg13
S'd81d60d0-def6-3cc6-bf44-1ea80a34043b'
p1684
sg15
F0.019942
sg16
I6
sg17
F0.491327
sg18
F4.0
sg19
F2007.0
sg20
F198.07556
sg21
F-19.668
sg22
S'Tsvcv7z65oibv56jrgoeyfqjcby'
p1685
sg24
F0.178276
sg25
L6L
sg26
F0.275994516708
sg27
F0.591065
sa(dp1686
g3
F0.118549
sg4
g285
sg6
S'http://lh5.ggpht.com/XZT9x1DvRuehQ-REuRFZ64grcb2mCzu_h8me3tzQEG5mFHv6RyGCgIn6ZNwD8Da8O_XRuo_n'
p1687
sg8
F0.56178
sg9
S'High Definition'
p1688
sg11
F155.406
sg12
F0.035035
sg13
S'7dc02f41-22d2-3ae2-b13c-1c9c214cfa1c'
p1689
sg15
F0.002833
sg16
I6
sg17
F0.207419
sg18
F4.0
sg19
F2011.0
sg20
F238.26621
sg21
F-7.553
sg22
S'Tpfy4wnzgwfxi5gumttdvrr6mgq'
p1690
sg24
F0.125722
sg25
L6L
sg26
F0.487558872394
sg27
F0.121572
sa(dp1691
g3
F0.114862
sg4
g323
sg6
g324
sg8
F0.646472
sg9
S'Gingerbread'
p1692
sg11
F160.005
sg12
F0.040572
sg13
S'c815f37f-f541-34de-a6d1-74cdfbe60ad4'
p1693
sg15
F0.012922
sg16
I6
sg17
F0.521786
sg18
F4.0
sg19
F2014.0
sg20
F268.99955
sg21
F-8.862
sg22
S'Tlau5ri6xh5777uvmwimi6ro3ca'
p1694
sg24
F0.114064
sg25
L6L
sg26
F0.386389068806
sg27
F0.865671
sa(dp1695
g3
F0.136806
sg4
g323
sg6
g324
sg8
F0.85678
sg9
S'Key Lime Pie'
p1696
sg11
F159.996
sg12
F0.045823
sg13
S'aefbb9b9-de5c-30a4-bf38-7614faeb6335'
p1697
sg15
F2.2e-05
sg16
I6
sg17
F0.642662
sg18
F4.0
sg19
F2014.0
sg20
F222.4995
sg21
F-9.807
sg22
S'Tlr6x4yl57y7darbd3chtngtwau'
p1698
sg24
F0.928311
sg25
L6L
sg26
F0.386389068806
sg27
F0.934967
saa(lp1699
(dp1700
g3
F0.866208
sg4
g29
sg6
g30
sg8
F0.991287
sg9
S"If I Can't Change Your Mind"
p1701
sg11
F186.134
sg12
F0.263337
sg13
S'7ea79dcb-e203-3753-a644-fda330b40fa4'
p1702
sg15
F0.000177
sg16
I7
sg17
F0.132623
sg18
F4.0
sg19
F2012.0
sg20
F193.0068
sg21
F-4.535
sg22
S'Tghumkzfvdywagkq76xxbfbb55q'
p1703
sg24
F0.268686
sg25
L6L
sg26
F0.378260564963
sg27
F0.000194
sa(dp1704
g3
F0.102166
sg4
S'Rocket & The Ghost'
p1705
sg6
g58
sg8
F0.137795
sg9
S'Gold - Love Song'
p1706
sg11
F199.056
sg12
F0.046732
sg13
S'5e914409-006f-3792-9f05-db0f6083682e'
p1707
sg15
F0.947933
sg16
I7
sg17
F0.361331
sg18
F4.0
sg19
F2014.0
sg20
F273.53755
sg21
F-15.258
sg22
S'Tqvfmwdenfe2lg3lmz5a345cwby'
p1708
sg24
F0.280814
sg25
L6L
sg26
F0.41102531693
sg27
F0.2659390501089325
sa(dp1709
g3
F0.112809
sg4
S'Elizabeth Mitchell'
p1710
sg6
g58
sg8
F0.254349
sg9
S"Hop up My Ladies - Children's Music Album"
p1711
sg11
F197.061
sg12
F0.08809
sg13
S'94f3ee1d-be53-3709-b4ee-a80392c793c4'
p1712
sg15
F0.882233
sg16
I7
sg17
F0.515265
sg18
F4.0
sg19
F2014.0
sg20
F109.26975
sg21
F-13.532
sg22
S'Texmh54z54u34xpskpbalsx2coa'
p1713
sg24
F0.88931
sg25
L6L
sg26
F0.485530902477
sg27
F3e-06
sa(dp1714
g3
F0.329648
sg4
S'King Diamond'
p1715
sg6
S'http://lh6.ggpht.com/F2OhDp6f06mnoW7XQ1Bq7396dexUMA0ArJ5tI953Q-7hBkW9UlN-0VZ9gPFVdOWN1dKQLQSkWj8'
p1716
sg8
F0.941216
sg9
S'Never Ending Hill'
p1717
sg11
F192.055
sg12
F0.042728
sg13
S'a39a59b1-0866-34bd-9e5b-676ad6659362'
p1718
sg15
F0.000259
sg16
I7
sg17
F0.398205
sg18
F4.0
sg19
F2007.0
sg20
F276.77333
sg21
F-5.021
sg22
S'Tz27gfm4yr7u56tdto3jrsp53m4'
p1719
sg24
F0.633262
sg25
L6L
sg26
F0.382461900079
sg27
F0.002794
sa(dp1720
g3
F0.110845
sg4
g730
sg6
g731
sg8
F0.420222
sg9
S'The Beat (Of Our Own Drum)'
p1721
sg11
F197.226
sg12
F0.056398
sg13
S'bf931707-2b91-3fea-9724-4c530875bb75'
p1722
sg15
F0.068649
sg16
I7
sg17
F0.597131
sg18
F4.0
sg19
F2012.0
sg20
F234.99955
sg21
F-9.421
sg22
S'Tctxtd2jl44d5cwbksbsmt757by'
p1723
sg24
F0.544814
sg25
L6L
sg26
F0.542871697728
sg27
F0.114935
sa(dp1724
g3
F0.077742
sg4
g285
sg6
g1687
sg8
F0.81525
sg9
S'Beach Holiday'
p1725
sg11
F188.512
sg12
F0.07152
sg13
S'4306f4b2-ab8c-3857-bb81-f622f8293a3d'
p1726
sg15
F5e-05
sg16
I7
sg17
F0.181116
sg18
F4.0
sg19
F2011.0
sg20
F163.09288
sg21
F-5.282
sg22
S'T3cnjdnnt4bxa4b5m2mtogthfn4'
p1727
sg24
F0.566068
sg25
L6L
sg26
F0.487558872394
sg27
F0.007342
sa(dp1728
g3
F0.111472
sg4
S'Parry Gripp'
p1729
sg6
S'http://lh5.ggpht.com/GAun7q57NxFUjhm4H2S8DgSbsPGFvjR_EvA4Sz6ElZ0mm-ZFcr4619URC1CWqAZ24YHSbbhk6Q'
p1730
sg8
F0.725702
sg9
S"Do You Like Arby's?"
p1731
sg11
F201.218
sg12
F0.108571
sg13
S'877dec6d-3518-36d7-890e-bf2b3d51ad39'
p1732
sg15
F0.106537
sg16
I7
sg17
F0.584664
sg18
F4.0
sg19
F2011.0
sg20
F29.8985
sg21
F-5.249
sg22
S'T4ilold2365l7zapf22uhex5iqu'
p1733
sg24
F0.969398
sg25
L6L
sg26
F0.533761445244
sg27
F0.2659390501089325
saa(lp1734
(dp1735
g3
F0.704776
sg4
g29
sg6
g30
sg8
F0.931926
sg9
S'Hoover Dam'
p1736
sg11
F112.631
sg12
F0.110934
sg13
S'c124db32-ed38-3dc5-9775-a42c587c7ba3'
p1737
sg15
F0.030926
sg16
I8
sg17
F0.375139
sg18
F4.0
sg19
F2012.0
sg20
F278.59955
sg21
F-4.738
sg22
S'T3cdtx2ejfl3bufyti4kwa2r57a'
p1738
sg24
F0.383736
sg25
L6L
sg26
F0.477314504435
sg27
F0.142562
sa(dp1739
g3
F0.413744
sg4
g29
sg6
g30
sg8
F0.994101
sg9
S'I Apologize'
p1740
sg11
F113.77
sg12
F0.225832
sg13
S'a6ed2d45-9a62-38ac-b021-585eeeddce10'
p1741
sg15
F0.011545
sg16
I8
sg17
F0.324268
sg18
F4.0
sg19
F2012.0
sg20
F198.97288
sg21
F-3.904
sg22
S'Tnqxbfcxjzuyzmumozt4x4bqvqi'
p1742
sg24
F0.191411
sg25
L6L
sg26
F0.477314504435
sg27
F0.028939
sa(dp1743
g3
F0.206739
sg4
S'Game'
p1744
sg6
S'http://lh6.ggpht.com/oZ_JqtTVqIxK3tWwTp2HcGqG7Yxm3NmSTwiu0SbN8t98OO9XGL5z81Lp6Cy8FSCFpNoI9tVnzQ'
p1745
sg8
F0.926596
sg9
S'Gotta Take Your Love (Re-edit)'
p1746
sg11
F122.06
sg12
F0.402797
sg13
S'5e10ddfa-ef06-3699-a985-f2df0b25c7d9'
p1747
sg15
F0.00408
sg16
I8
sg17
F0.73503
sg18
F4.0
sg19
F2013.0
sg20
F154.90458
sg21
F-6.818
sg22
S'Tsbq7lclazcrwxerz6hlhhsrkfu'
p1748
sg24
F0.561494
sg25
L6L
sg26
F0.411385030937
sg27
F4.9e-05
sa(dp1749
g3
F0.985793
sg4
g35
sg6
g36
sg8
F0.84503
sg9
S'Help Myself'
p1750
sg11
F119.216
sg12
F0.039802
sg13
S'84e9b70e-1f09-3911-81eb-5f16a4b95bc2'
p1751
sg15
F0.102073
sg16
I8
sg17
F0.51541
sg18
F4.0
sg19
F2011.0
sg20
F323.55955
sg21
F-6.906
sg22
S'Tm4kghu2uwphg67cxh7qo66snte'
p1752
sg24
F0.506898
sg25
L6L
sg26
F0.381223175296
sg27
F0.001221
sa(dp1753
g3
F0.974162
sg4
g35
sg6
g36
sg8
F0.940381
sg9
S'What Would You Say'
p1754
sg11
F112.601
sg12
F0.069971
sg13
S'93393bb2-5304-3d11-ab2a-44046cdb1490'
p1755
sg15
F0.06518
sg16
I8
sg17
F0.570784
sg18
F4.0
sg19
F2011.0
sg20
F293.63955
sg21
F-4.551
sg22
S'T42rm6poc7gwig5sqmswk225hom'
p1756
sg24
F0.639763
sg25
L6L
sg26
F0.381223175296
sg27
F1e-06
sa(dp1757
g3
F0.14228
sg4
g35
sg6
g36
sg8
F0.898703
sg9
S'Halloween'
p1758
sg11
F111.157
sg12
F0.057786
sg13
S'f4e2ae35-1b45-3274-81cb-bf80ff983c9f'
p1759
sg15
F0.097279
sg16
I8
sg17
F0.585067
sg18
F4.0
sg19
F2011.0
sg20
F307.93333
sg21
F-5.071
sg22
S'Tqhnwtaefqq7ett2264yqp4h5je'
p1760
sg24
F0.449565
sg25
L6L
sg26
F0.381223175296
sg27
F0.000101
sa(dp1761
g3
F0.269214
sg4
S'Classick'
p1762
sg6
g58
sg8
F0.892009
sg9
S'This Heart - Rock / Hard Rock Song'
p1763
sg11
F119.996
sg12
F0.041597
sg13
S'ff2c6925-d4f8-36a0-915f-5c0b737a702b'
p1764
sg15
F0.000596
sg16
I8
sg17
F0.496551
sg18
F4.0
sg19
F2014.0
sg20
F208.22159
sg21
F-4.496
sg22
S'Tc733d5tno3q65chktw25uhess4'
p1765
sg24
F0.146288
sg25
L6L
sg26
F0.340148122382
sg27
F0.000177
sa(dp1766
g3
F0.413416
sg4
g353
sg6
g58
sg8
F0.538238
sg9
S'From My Blue - Dance / Electronica Album'
p1767
sg11
F112.512
sg12
F0.155705
sg13
S'2e963965-b80e-3fbb-89d9-df28456fb41f'
p1768
sg15
F0.173612
sg16
I8
sg17
F0.579983
sg18
F3.0
sg19
F2014.0
sg20
F189.41342
sg21
F-6.821
sg22
S'Tg4tkie2wuevcucspfahqsxo6n4'
p1769
sg24
F0.28638
sg25
L6L
sg26
F0.429842559251
sg27
F0.072122
sa(dp1770
g3
F0.098917
sg4
g572
sg6
g573
sg8
F0.820893
sg9
S'Kick Drum High Hat'
p1771
sg11
F111.968
sg12
F0.092312
sg13
S'b0385c89-56f7-34ab-9166-169aba89413d'
p1772
sg15
F0.23694
sg16
I8
sg17
F0.692355
sg18
F4.0
sg19
F2012.0
sg20
F229.11955
sg21
F-6.851
sg22
S'Tu52et4bvujpksycxyddwacvwui'
p1773
sg24
F0.613175
sg25
L6L
sg26
F0.309031421999
sg27
F0.2659390501089325
sa(dp1774
g3
F0.372651
sg4
S'Sylvan Esso'
p1775
sg6
S'http://lh6.ggpht.com/d6j3m1R_24gCRo_shMqVFkqQehvrx5RtGUD75Cns65RGuEKj0rYCpxcwPVdiBMZDRtPbwPYf'
p1776
sg8
F0.745656
sg9
S'Hey Mami'
p1777
sg11
F119.58
sg12
F0.535543
sg13
S'a3aa3a90-b9fa-3a9d-a2ec-ef4f0ed9d70b'
p1778
sg15
F0.268542
sg16
I8
sg17
F0.668226
sg18
F4.0
sg19
F2014.0
sg20
F200.19048
sg21
F-6.019
sg22
S'Ttgbsuayqeo5eohjdblistpckia'
p1779
sg24
F0.605725
sg25
L6L
sg26
F0.591491394823
sg27
F1e-06
sa(dp1780
g3
F0.12797
sg4
g73
sg6
g74
sg8
F0.577071
sg9
S'The Book Monument'
p1781
sg11
F120.098
sg12
F0.042635
sg13
S'70a9bc1e-7e9f-3c7d-85f1-771e33653c5f'
p1782
sg15
F0.928356
sg16
I8
sg17
F0.241849
sg18
F4.0
sg19
F2013.0
sg20
F306.0
sg21
F-8.908
sg22
S'Tnbqeinxqwaetibccrrx2kpum3u'
p1783
sg24
F0.092613
sg25
L6L
sg26
F0.25991974052
sg27
F0.871088
sa(dp1784
g3
F0.351945
sg4
g79
sg6
g80
sg8
F0.62196
sg9
S'Do You Love Me Like You Used To'
p1785
sg11
F116.722
sg12
F0.026709
sg13
S'4aef81ec-8a4f-3f11-8cac-8c56f34fee73'
p1786
sg15
F0.003469
sg16
I8
sg17
F0.618934
sg18
F4.0
sg19
F2012.0
sg20
F195.77692
sg21
F-6.153
sg22
S'T677ovkrd5hyih24shotha5gqmm'
p1787
sg24
F0.632316
sg25
L6L
sg26
F0.468873175959
sg27
F2.6e-05
sa(dp1788
g3
F0.147798
sg4
g79
sg6
g80
sg8
F0.875429
sg9
S'Boyfriend'
p1789
sg11
F115.101
sg12
F0.052552
sg13
S'5b6ff226-5e1f-376a-8c03-460b960549ac'
p1790
sg15
F0.120742
sg16
I8
sg17
F0.251596
sg18
F4.0
sg19
F2012.0
sg20
F149.81288
sg21
F-3.864
sg22
S'T7jbnjo7bzfxzlicspr2lumtgl4'
p1791
sg24
F0.584839
sg25
L6L
sg26
F0.468873175959
sg27
F0.160026
sa(dp1792
g3
F0.198817
sg4
g89
sg6
g90
sg8
F0.407223
sg9
S'"Design Obsession" from Insignia'
p1793
sg11
F113.017
sg12
F0.072577
sg13
S'a5c7813b-486d-3756-b3ae-7e2d5adcf30b'
p1794
sg15
F0.00152
sg16
I8
sg17
F0.714951
sg18
F4.0
sg19
F2006.0
sg20
F74.77288
sg21
F-16.247
sg22
S'Tbcbob4ck32nkxokmamda76rg7a'
p1795
sg24
F0.276962
sg25
L6L
sg26
F0.273430095496
sg27
F0.908448
sa(dp1796
g3
F0.330526
sg4
S'Joshua Burnell'
p1797
sg6
S'http://lh6.ggpht.com/iDhbOZh2fu_cevbqdsdMv_MNv3WN6nMmz1oqB55Ow1-OUMhThujHhH8xoGvIBGgOpotvHT9lfX0'
p1798
sg8
F0.072824
sg9
S'Far Over the Misty Mountains Cold'
p1799
sg11
F116.917
sg12
F0.044037
sg13
S'ff796f66-63d9-33c2-8bea-79d8971540a5'
p1800
sg15
F0.906649
sg16
I8
sg17
F0.564542
sg18
F4.0
sg19
F2013.0
sg20
F233.83955
sg21
F-16.614
sg22
S'T35vayeb3r3cwedazomzekioz7a'
p1801
sg24
F0.158143
sg25
L6L
sg26
F0.338486369779
sg27
F3e-06
sa(dp1802
g3
F0.243777
sg4
g101
sg6
g102
sg8
F0.893739
sg9
S'Laid'
p1803
sg11
F119.844
sg12
F0.028386
sg13
S'2987036f-fbf7-331a-9d61-ddef79fcef92'
p1804
sg15
F0.004303
sg16
I8
sg17
F0.558825
sg18
F4.0
sg19
F2011.0
sg20
F182.82621
sg21
F-5.477
sg22
S'T5hdaqnmb76itghvqn2pz2evnr4'
p1805
sg24
F0.71016
sg25
L6L
sg26
F0.499727972349
sg27
F4.6e-05
sa(dp1806
g3
F0.926332
sg4
S'Ben Rector'
p1807
sg6
S'http://lh3.ggpht.com/NOijKZp5-cg1qODStJAWKuVpiENzqBb_qKX32zTqDsTE1Ge8K_U5l5-SX8gdAbxHezG4qvi5Zg'
p1808
sg8
F0.765785
sg9
S'Let the Good Times Roll'
p1809
sg11
F112.014
sg12
F0.042008
sg13
S'3dedb740-1058-3755-a7ac-321d27265143'
p1810
sg15
F0.180748
sg16
I8
sg17
F0.652282
sg18
F4.0
sg19
F2011.0
sg20
F187.82222
sg21
F-4.844
sg22
S'Ttn4zl7adkqkvuk4jy6fhijez2y'
p1811
sg24
F0.511869
sg25
L6L
sg26
F0.50106936713
sg27
F0.2659390501089325
sa(dp1812
g3
F0.119636
sg4
g117
sg6
S'http://lh4.ggpht.com/I8xEhgNBQF2bGScDcTlHAfE9Igo-fJc9V8Df1GUX_4k2S00I5DmyazVK1bvb26dFWjluE4vl6g'
p1813
sg8
F0.0807
sg9
S'Pastel Garden'
p1814
sg11
F114.707
sg12
F0.038507
sg13
S'14382c26-fb68-324a-9800-3036083e4d53'
p1815
sg15
F0.988842
sg16
I8
sg17
F0.437436
sg18
F3.0
sg19
F2011.0
sg20
F173.41823
sg21
F-22.448
sg22
S'Tfwgnvthsoswjk4m34s75jbyghi'
p1816
sg24
F0.307531
sg25
L6L
sg26
F0.553378844811
sg27
F0.948228
sa(dp1817
g3
F0.176214
sg4
g123
sg6
g124
sg8
F0.619352
sg9
S'The Triple Wide >'
p1818
sg11
F121.87
sg12
F0.036965
sg13
S'fa2288db-0d30-3e5a-a958-4f8444715ba6'
p1819
sg15
F0.434324
sg16
I8
sg17
F0.482606
sg18
F4.0
sg19
F2011.0
sg20
F560.15773
sg21
F-15.034
sg22
S'Tzuxpw42yddukwgabcm6lq4kkly'
p1820
sg24
F0.558575
sg25
L6L
sg26
F0.415381464026
sg27
F0.880747
sa(dp1821
g3
F0.672494
sg4
g123
sg6
g124
sg8
F0.791328
sg9
S'Layla (Live)'
p1822
sg11
F112.972
sg12
F0.037449
sg13
S'f2ce1b60-e5ad-30e9-a635-0bb013c2228d'
p1823
sg15
F0.217912
sg16
I8
sg17
F0.390743
sg18
F4.0
sg19
F2011.0
sg20
F446.62667
sg21
F-6.175
sg22
S'Tp5gkhyvax3q5h77woatw73isa4'
p1824
sg24
F0.362721
sg25
L6L
sg26
F0.415381464026
sg27
F0.764743
sa(dp1825
g3
F0.141208
sg4
g123
sg6
g152
sg8
F0.599522
sg9
S'Pay the Snucka'
p1826
sg11
F113.541
sg12
F0.094706
sg13
S'ca4205a5-7ad8-3523-b0b2-c130d59d30d9'
p1827
sg15
F0.599863
sg16
I8
sg17
F0.415488
sg18
F4.0
sg19
F2011.0
sg20
F511.21007
sg21
F-15.268
sg22
S'Tbp6sjdht5gj3n22nkbva6ivwoi'
p1828
sg24
F0.135295
sg25
L6L
sg26
F0.415381464026
sg27
F0.724698
sa(dp1829
g3
F0.141208
sg4
g123
sg6
g152
sg8
F0.599522
sg9
g1826
sg11
F113.541
sg12
F0.094706
sg13
S'31cdf476-8169-35e5-97df-afd72bdf87d9'
p1830
sg15
F0.599863
sg16
I8
sg17
F0.415488
sg18
F4.0
sg19
F2011.0
sg20
F511.21007
sg21
F-15.268
sg22
S'Tmwwaysn42qnajdznrce64iblhe'
p1831
sg24
F0.135295
sg25
L6L
sg26
F0.415381464026
sg27
F0.724698
sa(dp1832
g3
F0.938948
sg4
g123
sg6
g124
sg8
F0.757323
sg9
S'Immigrant Song'
p1833
sg11
F111.465
sg12
F0.058713
sg13
S'e064d832-7836-37b2-951a-d392477205b9'
p1834
sg15
F0.612588
sg16
I8
sg17
F0.478219
sg18
F4.0
sg19
F2011.0
sg20
F244.80753
sg21
F-13.251
sg22
S'Tkkx3plyhc4mm2y3tncu2pq2a74'
p1835
sg24
F0.260446
sg25
L6L
sg26
F0.415381464026
sg27
F0.016244
sa(dp1836
g3
F0.115687
sg4
S'Khamelijon'
p1837
sg6
S'http://lh3.ggpht.com/lY24viAjw-HAh5-zt8UJMxe2-NmYaNb-f9bcS3NcIYUg2d_p8dYr-z8punRYKoPTbkNPkzrDGw'
p1838
sg8
F0.708675
sg9
S'Useless Music (Remix)'
p1839
sg11
F121.96
sg12
F0.235667
sg13
S'b53485d9-9c05-360e-bb3d-79a6300b1a57'
p1840
sg15
F0.371095
sg16
I8
sg17
F0.895519
sg18
F4.0
sg19
F2012.0
sg20
F206.28961
sg21
F-7.503
sg22
S'Tzieuo3oyozkx2oq6jncsc5femq'
p1841
sg24
F0.833276
sg25
L6L
sg26
F0.232344793957
sg27
F1.2e-05
sa(dp1842
g3
F0.173991
sg4
g123
sg6
g175
sg8
F0.203923
sg9
S'Intro...'
p1843
sg11
F112.554
sg12
F0.037354
sg13
S'8c8cd4ce-3020-3038-99be-71d89d674460'
p1844
sg15
F0.976239
sg16
I8
sg17
F0.337736
sg18
F4.0
sg19
F2010.0
sg20
F172.73279
sg21
F-19.451
sg22
S'Th3anhp26etkb65tycvozhdvj4e'
p1845
sg24
F0.154083
sg25
L6L
sg26
F0.415381464026
sg27
F0.866681
sa(dp1846
g3
F0.076116
sg4
g196
sg6
g197
sg8
F0.467486
sg9
S'Pressure'
p1847
sg11
F118.031
sg12
F0.060141
sg13
S'22ce45cb-35d8-353f-86ce-902a2b4cc400'
p1848
sg15
F0.646962
sg16
I8
sg17
F0.781883
sg18
F4.0
sg19
F2011.0
sg20
F205.42621
sg21
F-8.58
sg22
S'Ta7pdtpg2l5zzunf2zgosq753qy'
p1849
sg24
F0.77116
sg25
L6L
sg26
F0.491559266938
sg27
F0.000186
sa(dp1850
g3
F0.107826
sg4
g202
sg6
Fnan
sg8
F0.478591
sg9
S'When It Comes Down'
p1851
sg11
F120.019
sg12
F0.055752
sg13
S'11e86d69-de71-32d2-b36b-d3182f1cabe0'
p1852
sg15
F0.032634
sg16
I8
sg17
F0.841219
sg18
F4.0
sg19
F2009.0
sg20
F236.63955
sg21
F-13.062
sg22
S'Tpdjausvdhpczhv74talydeszim'
p1853
sg24
F0.646362
sg25
L6L
sg26
F0.259683304522
sg27
F0.000521
sa(dp1854
g3
F0.473382
sg4
g386
sg6
g387
sg8
F0.176454
sg9
S'Happiness (Live)'
p1855
sg11
F117.772
sg12
F0.059696
sg13
S'117897ca-2c66-3652-afc0-cb71618fda1a'
p1856
sg15
F0.928137
sg16
I8
sg17
F0.471396
sg18
F3.0
sg19
F2011.0
sg20
F172.419
sg21
F-18.626
sg22
S'Tueowsaq4xhbhlgigvnchi4vgo4'
p1857
sg24
F0.241836
sg25
L6L
sg26
F0.261711676507
sg27
F2e-06
sa(dp1858
g3
F0.390936
sg4
g386
sg6
g387
sg8
F0.14817
sg9
S'Second Class Citizen (Live)'
p1859
sg11
F112.711
sg12
F0.04599
sg13
S'f8e40694-fb4a-3dcd-a26c-bf604889543d'
p1860
sg15
F0.957954
sg16
I8
sg17
F0.395702
sg18
F4.0
sg19
F2011.0
sg20
F162.72898
sg21
F-16.319
sg22
S'T4ondnt6n7lg4dnijygls4t3rry'
p1861
sg24
F0.164966
sg25
L6L
sg26
F0.261711676507
sg27
F0.2659390501089325
sa(dp1862
g3
F0.131333
sg4
g223
sg6
g224
sg8
F0.251917
sg9
S'Only Love Is Real'
p1863
sg11
F111.677
sg12
F0.034041
sg13
S'cad9f7cb-8975-3e9b-b826-fd396c8afbfe'
p1864
sg15
F0.807484
sg16
I8
sg17
F0.279058
sg18
F4.0
sg19
F2011.0
sg20
F228.03701
sg21
F-15.525
sg22
S'Thsy3qx6vanzoxpjusnbhewjpde'
p1865
sg24
F0.075639
sg25
L6L
sg26
F0.269127343221
sg27
F0.002039
sa(dp1866
g3
F0.308909
sg4
g223
sg6
g224
sg8
F0.653437
sg9
g1398
sg11
F114.854
sg12
F0.034173
sg13
S'da6e002d-3119-3eb4-b334-f8893ae2180c'
p1867
sg15
F0.076559
sg16
I8
sg17
F0.445109
sg18
F4.0
sg19
F2011.0
sg20
F342.99959
sg21
F-7.401
sg22
S'Tada7nmyzgbxxzlsjoxmvsxlox4'
p1868
sg24
F0.308249
sg25
L6L
sg26
F0.269127343221
sg27
F0.000227
sa(dp1869
g3
F0.127935
sg4
g223
sg6
g224
sg8
F0.354437
sg9
S'Beyond'
p1870
sg11
F122.237
sg12
F0.04341
sg13
S'07fd1b88-00cc-3f85-9e2f-7b4a64599ce5'
p1871
sg15
F0.33303
sg16
I8
sg17
F0.345482
sg18
F4.0
sg19
F2011.0
sg20
F316.04354
sg21
F-13.567
sg22
S'T3q2xyadxmk73v4m6lmms32zi5u'
p1872
sg24
F0.115813
sg25
L6L
sg26
F0.269127343221
sg27
F0.005009
sa(dp1873
g3
F0.957786
sg4
g223
sg6
g224
sg8
F0.291129
sg9
S'Another Day'
p1874
sg11
F118.106
sg12
F0.038191
sg13
S'11f4207b-8920-3429-b4e6-5d98a686f6b3'
p1875
sg15
F0.783779
sg16
I8
sg17
F0.378899
sg18
F4.0
sg19
F2011.0
sg20
F202.32975
sg21
F-13.019
sg22
S'Txxj37tohhf4z3c6rcizfgik3dm'
p1876
sg24
F0.182656
sg25
L6L
sg26
F0.269127343221
sg27
F0.000403
sa(dp1877
g3
F0.292205
sg4
g1082
sg6
g1083
sg8
F0.58701
sg9
S'The Edge'
p1878
sg11
F115.1
sg12
F0.153894
sg13
S'ccb38163-6338-3a62-9e32-88dbace2886e'
p1879
sg15
F0.007142
sg16
I8
sg17
F0.683801
sg18
F4.0
sg19
F2011.0
sg20
F322.9561
sg21
F-8.437
sg22
S'Talukhrhdnsio7xjerljjr5fapy'
p1880
sg24
F0.212445
sg25
L6L
sg26
F0.341315943912
sg27
F1e-06
sa(dp1881
g3
F0.174446
sg4
g685
sg6
S'http://lh5.ggpht.com/y4OvhXvSYYQdD8K_Mc2lCoJYLsNJ8cxZ-VITRQPcHeSNHUTrjpcsSVn9_t53TYVz4wppS0Uc'
p1882
sg8
F0.857535
sg9
S'New Prayer'
p1883
sg11
F119.996
sg12
F0.049998
sg13
S'3bd3a63a-b3f9-3ac4-b8e7-bd54426ce327'
p1884
sg15
F0.004016
sg16
I8
sg17
F0.579332
sg18
F4.0
sg19
F2007.0
sg20
F279.37288
sg21
F-7.865
sg22
S'Tgi7yyh2l4deatll5jhtdxgif3a'
p1885
sg24
F0.463574
sg25
L6L
sg26
F0.495380891229
sg27
F0.009496
sa(dp1886
g3
F0.114549
sg4
S'Roger Harvey'
p1887
sg6
g236
sg8
F0.429131
sg9
S'Lovers Can Be Monsters (7" Version)'
p1888
sg11
F113.839
sg12
F0.034359
sg13
S'00d3feea-551e-3cd2-9aee-fe89aadf6a4d'
p1889
sg15
F0.000712
sg16
I8
sg17
F0.416207
sg18
F4.0
sg19
F2014.0
sg20
F142.03306
sg21
F-13.524
sg22
S'Tgrjhwxo6uqre2zitjggv4rflpq'
p1890
sg24
F0.234356
sg25
L6L
sg26
F0.344159876506
sg27
F0.017189
sa(dp1891
g3
F0.085899
sg4
S'Kasper Bj\xc3\xb8rke'
p1892
sg6
S'http://lh5.ggpht.com/BG6aeAMMzzcY_4NrGu4DZXp6flOlaWW5IbZkjxINXEv7ixSELVwISzEFWrilJ601FHdq_7aP3w'
p1893
sg8
F0.533015
sg9
S'Lies (feat. Nomi Ruiz) - Original Mix'
p1894
sg11
F116.993
sg12
F0.040104
sg13
S'820e4f7b-a096-30c7-8883-aeeb7f6d5a07'
p1895
sg15
F0.099882
sg16
I8
sg17
F0.765196
sg18
F4.0
sg19
F2014.0
sg20
F209.3254
sg21
F-10.321
sg22
S'T6utnfz27z4dagquwreq7tkkfga'
p1896
sg24
F0.202573
sg25
L6L
sg26
F0.579305340907
sg27
F0.542207
sa(dp1897
g3
F0.110476
sg4
S'Christian McBride'
p1898
sg6
S'http://lh5.ggpht.com/LCb00VtXcsUotfGBuGPy2MuJExGabSdYmUHB9xhBiQ45xC-1Oa9J9tzSHl9phYRtOQQDgxw3sA'
p1899
sg8
F0.176575
sg9
S'Sister Rosa (feat. Russell Malone)'
p1900
sg11
F120.679
sg12
F0.044248
sg13
S'2d6643b8-74e6-3ba7-8511-5a3feaa900cc'
p1901
sg15
F0.967405
sg16
I8
sg17
F0.620702
sg18
F4.0
sg19
F2011.0
sg20
F399.11955
sg21
F-21.815
sg22
S'Tzwevb4u47vtyvtlnrl7g5cnnji'
p1902
sg24
F0.452645
sg25
L6L
sg26
F0.441125679892
sg27
F0.954653
sa(dp1903
g3
F0.099406
sg4
S'The Last Bison'
p1904
sg6
S'http://lh6.ggpht.com/0j7rHFW_iQ_rDJXRZcm3bjCYArXzis9948a4H2PJ4oWVF5ueA2V4jPssvygiwCa3Zk3460HKK5U'
p1905
sg8
F0.285724
sg9
S'Switzerland'
p1906
sg11
F117.241
sg12
F0.035603
sg13
S'44cb129c-e153-34cc-bd86-8a4c4fdbed01'
p1907
sg15
F0.416816
sg16
I8
sg17
F0.402859
sg18
F4.0
sg19
F2011.0
sg20
F332.38354
sg21
F-16.354
sg22
S'Tm2drbe4ibns6kzvlsgruvvjxbm'
p1908
sg24
F0.524041
sg25
L6L
sg26
F0.521161626023
sg27
F0.2659390501089325
sa(dp1909
g3
F0.122296
sg4
g431
sg6
g432
sg8
F0.559925
sg9
S'This'
p1910
sg11
F114.069
sg12
F0.029072
sg13
S'32517e7c-3df6-319a-b3ce-05b27fd60ee8'
p1911
sg15
F0.033489
sg16
I8
sg17
F0.46601
sg18
F4.0
sg19
F1996.0
sg20
F256.4839
sg21
F-11.873
sg22
S'Tggg5vtie6scg6jiooobh4hhplu'
p1912
sg24
F0.430864
sg25
L6L
sg26
F0.250719795666
sg27
F0.092466
sa(dp1913
g3
F0.324613
sg4
S'Air Dubai'
p1914
sg6
S'http://lh3.ggpht.com/kLCQZFf35VCIqUfbVHanpFt3y_GYVEYgR2d6WSE6K9TWTBfEsJuR6m_ko5A7P9cMMfnTBenE'
p1915
sg8
F0.864317
sg9
S'Lights Down'
p1916
sg11
F114.992
sg12
F0.081592
sg13
S'2cf5024b-0ab9-3b70-a17a-27a798a9ed65'
p1917
sg15
F0.004886
sg16
I8
sg17
F0.655095
sg18
F4.0
sg19
F2011.0
sg20
F208.01288
sg21
F-6.263
sg22
S'T53yquv2jvwsv62e6xyg4tqulai'
p1918
sg24
F0.49414
sg25
L6L
sg26
F0.527641954497
sg27
F0.004003
sa(dp1919
g3
F0.096695
sg4
S'Alex Diaz'
p1920
sg6
S'http://lh6.ggpht.com/-hGS7tM6u1c6mTcnQj0u60ujQCiZ7FNiiAS_iCswodOl9abv_7cr1vvH6dfjS875cEM7jggpvg'
p1921
sg8
F0.658461
sg9
S'Turn Up The Music - Single'
p1922
sg11
F120.087
sg12
F0.05528
sg13
S'57752be5-d40d-34e0-91a1-8761084b0313'
p1923
sg15
F0.009604
sg16
I8
sg17
F0.792277
sg18
F4.0
sg19
F2012.0
sg20
F135.99955
sg21
F-6.297
sg22
S'Txhykecwuf4xfpebzgymeogflci'
p1924
sg24
F0.450104
sg25
L6L
sg26
F0.347514013097
sg27
F0.732416
sa(dp1925
g3
F0.148016
sg4
S'Assembly Of Dust'
p1926
sg6
S'http://lh3.ggpht.com/Gpf_oZzFFfAS4gje6BZG5qLHQSPDZlE-7dXPMUlvJx0BYgCMjg6od4aoNmCHewU0p9H2WJm3Jg'
p1927
sg8
F0.155774
sg9
S'Of Mortals'
p1928
sg11
F111.403
sg12
F0.480727
sg13
S'ba620ede-5108-33b6-99e6-367d2a76988f'
p1929
sg15
F0.995796
sg16
I8
sg17
F0.484019
sg18
F1.0
sg19
F2003.0
sg20
F6.39955
sg21
F-21.043
sg22
S'Tbx2yjpp7ieaq4m6bneobldhagy'
p1930
sg24
F0.477002
sg25
L6L
sg26
F0.442279716647
sg27
F0.923094
sa(dp1931
g3
F0.105275
sg4
g455
sg6
g456
sg8
F0.639965
sg9
S'Bad Blood'
p1932
sg11
F120.434
sg12
F0.039215
sg13
S'05afef5e-1265-3ca6-88c6-6558fb3bfab3'
p1933
sg15
F0.12482
sg16
I8
sg17
F0.556076
sg18
F4.0
sg19
F2011.0
sg20
F201.54091
sg21
F-8.65
sg22
S'Ti5236bgipph6lq7ikcw33ly5be'
p1934
sg24
F0.603304
sg25
L6L
sg26
F0.459953872927
sg27
F0.000472
sa(dp1935
g3
F0.106905
sg4
g730
sg6
g731
sg8
F0.762372
sg9
S'Sister Ray Charles'
p1936
sg11
F121.148
sg12
F0.031982
sg13
S'20af3088-1ccf-3604-910c-906958ea01e5'
p1937
sg15
F0.524495
sg16
I8
sg17
F0.65495
sg18
F4.0
sg19
F2012.0
sg20
F205.03955
sg21
F-5.215
sg22
S'Tbixccshtsxq3trnlupzfzuvkqe'
p1938
sg24
F0.943307
sg25
L6L
sg26
F0.542871697728
sg27
F0.001833
sa(dp1939
g3
F0.138971
sg4
g279
sg6
g280
sg8
F0.762594
sg9
S'Rise (feat. the Siren)'
p1940
sg11
F122.367
sg12
F0.063766
sg13
S'0a4d5dc4-262d-3727-8b69-6466bb7a24bd'
p1941
sg15
F0.128966
sg16
I8
sg17
F0.370071
sg18
F1.0
sg19
F2014.0
sg20
F330.66621
sg21
F-5.758
sg22
S'Tq2kslkz4igmp63mkcigk5xmcfy'
p1942
sg24
F0.240276
sg25
L6L
sg26
F0.466890261436
sg27
F3e-06
sa(dp1943
g3
F0.104806
sg4
g279
sg6
g280
sg8
F0.419578
sg9
S'Indo Amnesia (feat. Nice Nate)'
p1944
sg11
F122.725
sg12
F0.228955
sg13
S'3869bfb3-e2bf-3133-b1ae-e71800bf8903'
p1945
sg15
F0.247868
sg16
I8
sg17
F0.507019
sg18
F4.0
sg19
F2014.0
sg20
F187.31624
sg21
F-7.673
sg22
S'Tjq5v4g5rzrlkggu2k74bvvjkj4'
p1946
sg24
F0.354271
sg25
L6L
sg26
F0.466890261436
sg27
F0.044476
sa(dp1947
g3
F0.119063
sg4
S'All We Are'
p1948
sg6
S'http://lh3.ggpht.com/Rt_cBYIy7Cpaue907APZ9KOk-qCFCfKZFxEyeLZbHN7xB8ZrZ_YohjdGj1AXPWLAs22xwLIZaTQ'
p1949
sg8
F0.493471
sg9
S'Feel Safe'
p1950
sg11
F112.704
sg12
F0.054681
sg13
S'027328de-bf87-3111-b356-08a9e212f395'
p1951
sg15
F0.094397
sg16
I8
sg17
F0.702557
sg18
F4.0
sg19
F2015.0
sg20
F267.25333
sg21
F-8.959
sg22
S'T6swnhixzeq3p45mt2otve5cm4e'
p1952
sg24
F0.518395
sg25
L6L
sg26
F0.562163416495
sg27
F0.409503
sa(dp1953
g3
F0.093219
sg4
g751
sg6
g286
sg8
F0.769413
sg9
S'Stick Up Kids'
p1954
sg11
F113.004
sg12
F0.065135
sg13
S'71c069bc-402e-31d6-b0d8-85bb2941a602'
p1955
sg15
F0.016253
sg16
I8
sg17
F0.673241
sg18
F4.0
sg19
F2012.0
sg20
F192.10621
sg21
F-6.761
sg22
S'T3pn3q4gyvzpizdfltfmgbapsle'
p1956
sg24
F0.616901
sg25
L6L
sg26
F0.488629260238
sg27
F0.2659390501089325
sa(dp1957
g3
F0.084266
sg4
g1660
sg6
g286
sg8
F0.207823
sg9
S'Rings On Fingers'
p1958
sg11
F114.831
sg12
F0.030752
sg13
S'66bf66d2-79ba-352b-bd37-298a8b730f94'
p1959
sg15
F0.639278
sg16
I8
sg17
F0.546866
sg18
F4.0
sg19
F2012.0
sg20
F220.75955
sg21
F-13.227
sg22
S'Tzw73pto65qpepxrubkek5ro6la'
p1960
sg24
F0.224056
sg25
L6L
sg26
F0.360503634538
sg27
F0.003445
sa(dp1961
g3
F0.106893
sg4
S'Vintage Trouble'
p1962
sg6
g286
sg8
F0.777538
sg9
S'You Better Believe It'
p1963
sg11
F117.144
sg12
F0.027627
sg13
S'13cd8792-2aed-3133-a1f5-5a6d31aa1437'
p1964
sg15
F0.01194
sg16
I8
sg17
F0.658961
sg18
F4.0
sg19
F2012.0
sg20
F250.22621
sg21
F-6.156
sg22
S'Tasns2duo37k7u22fpm6s3ncdsq'
p1965
sg24
F0.888679
sg25
L6L
sg26
F0.515630567528
sg27
F0.2659390501089325
sa(dp1966
g3
F0.118089
sg4
g470
sg6
g471
sg8
F0.59243
sg9
S'Murder Room'
p1967
sg11
F112.571
sg12
F0.027274
sg13
S'3e1f83ef-16e5-3e2b-b8e7-b33986135929'
p1968
sg15
F0.099267
sg16
I8
sg17
F0.688133
sg18
F4.0
sg19
F2011.0
sg20
F210.03955
sg21
F-5.261
sg22
S'T3vnize5v7yxb42smlk6v5lrgwa'
p1969
sg24
F0.70769
sg25
L6L
sg26
F0.529591888426
sg27
F0.048345
sa(dp1970
g3
F0.120294
sg4
g470
sg6
g471
sg8
F0.414351
sg9
S'Older Brother'
p1971
sg11
F120.901
sg12
F0.029093
sg13
S'b96b0342-2dd6-3969-9f79-694ce77180be'
p1972
sg15
F0.450605
sg16
I8
sg17
F0.574715
sg18
F4.0
sg19
F2011.0
sg20
F197.65288
sg21
F-11.148
sg22
S'Traodz3ty3w4gk7s52yoauvcwly'
p1973
sg24
F0.365549
sg25
L6L
sg26
F0.529591888426
sg27
F0.00036
sa(dp1974
g3
F0.293966
sg4
g307
sg6
g308
sg8
F0.921691
sg9
S'Party Like a Muhg'
p1975
sg11
F115.007
sg12
F0.207129
sg13
S'bcdc344b-717a-3fb1-818d-3afeb60d98fc'
p1976
sg15
F0.037826
sg16
I8
sg17
F0.908499
sg18
F4.0
sg19
F2013.0
sg20
F225.8166
sg21
F-4.413
sg22
S'Tqej4fbft5675tmz4oifauwuhna'
p1977
sg24
F0.69931
sg25
L6L
sg26
F0.334559809193
sg27
F0.2659390501089325
sa(dp1978
g3
F0.062096
sg4
g307
sg6
g308
sg8
F0.895992
sg9
S'2095'
p1979
sg11
F120.023
sg12
F0.083357
sg13
S'5de0da1b-6289-32f8-b7a9-0b267b868ba0'
p1980
sg15
F0.026029
sg16
I8
sg17
F0.861372
sg18
F4.0
sg19
F2013.0
sg20
F202.38476
sg21
F-6.0
sg22
S'Tf6i2vfmoc6qgv7ola4msntxk5m'
p1981
sg24
F0.844714
sg25
L6L
sg26
F0.334559809193
sg27
F2.3e-05
sa(dp1982
g3
F0.109705
sg4
g786
sg6
g787
sg8
F0.498794
sg9
S'Been Grey for a While (Short Static Mix)'
p1983
sg11
F120.058
sg12
F0.084642
sg13
S'ce2b5356-75cb-317b-b7b4-ba93dca82bf6'
p1984
sg15
F0.255043
sg16
I8
sg17
F0.525283
sg18
F4.0
sg19
F2007.0
sg20
F226.71628
sg21
F-14.77
sg22
S'T35zazqwszezdxxurt47tbd4bwu'
p1985
sg24
F0.134436
sg25
L6L
sg26
F0.275994516708
sg27
F0.117128
sa(dp1986
g3
F0.183982
sg4
g786
sg6
g787
sg8
F0.92687
sg9
S'Been Grey for a While (This Side of the White Mix)'
p1987
sg11
F120.011
sg12
F0.069701
sg13
S'9e70bcfa-de74-31ea-af7a-f1f814a46464'
p1988
sg15
F0.002914
sg16
I8
sg17
F0.560592
sg18
F4.0
sg19
F2007.0
sg20
F384.05955
sg21
F-10.24
sg22
S'T5fbazc3sn3l54zgsmqjj6hm3c4'
p1989
sg24
F0.200814
sg25
L6L
sg26
F0.275994516708
sg27
F0.729275
sa(dp1990
g3
F0.083979
sg4
g786
sg6
g787
sg8
F0.42053
sg9
S'The View from My Cave'
p1991
sg11
F119.412
sg12
F0.062771
sg13
S'21b50bb5-2ad3-3fd9-a85a-564041e80eb2'
p1992
sg15
F0.515845
sg16
I8
sg17
F0.387715
sg18
F4.0
sg19
F2007.0
sg20
F308.79556
sg21
F-14.577
sg22
S'T32caeb6f7mh5utozsw67kqs6hu'
p1993
sg24
F0.08391
sg25
L6L
sg26
F0.275994516708
sg27
F0.821236
sa(dp1994
g3
F0.071978
sg4
g508
sg6
g509
sg8
F0.598046
sg9
S'Tomorrow Morning'
p1995
sg11
F115.003
sg12
F0.028543
sg13
S'61c1ff39-f635-32da-ae6a-f45dd77f182c'
p1996
sg15
F0.002608
sg16
I8
sg17
F0.618935
sg18
F4.0
sg19
F2013.0
sg20
F268.11315
sg21
F-5.863
sg22
S'Tvacsevwp4xdauwva2mndxbrbka'
p1997
sg24
F0.2862
sg25
L6L
sg26
F0.247097634462
sg27
F1e-06
sa(dp1998
g3
F0.119086
sg4
g508
sg6
g509
sg8
F0.824322
sg9
S'Character in Disguise'
p1999
sg11
F113.346
sg12
F0.057375
sg13
S'3eb8372c-834b-3375-9b86-570625a16b70'
p2000
sg15
F0.017828
sg16
I8
sg17
F0.358646
sg18
F4.0
sg19
F2013.0
sg20
F375.3171
sg21
F-6.094
sg22
S'Teq5z7eg3t4e752myhqjh5snsb4'
p2001
sg24
F0.176947
sg25
L6L
sg26
F0.247097634462
sg27
F8e-06
sa(dp2002
g3
F0.065683
sg4
g323
sg6
g324
sg8
F0.800793
sg9
S'Donut'
p2003
sg11
F120.006
sg12
F0.048956
sg13
S'96dd33d8-3504-36d6-87bb-7b4ab645c0e9'
p2004
sg15
F0.005965
sg16
I8
sg17
F0.65533
sg18
F4.0
sg19
F2014.0
sg20
F187.99955
sg21
F-8.332
sg22
S'Tpu7fyswygogmgb6fcaqpzdzwpm'
p2005
sg24
F0.320552
sg25
L6L
sg26
F0.386389068806
sg27
F0.917378
sa(dp2006
g3
F0.186867
sg4
g323
sg6
g324
sg8
F0.587844
sg9
S'Jelly Bean'
p2007
sg11
F120.346
sg12
F0.148485
sg13
S'baeb6c12-bcb5-37f6-a4f4-c44752877eb1'
p2008
sg15
F0.000298
sg16
I8
sg17
F0.445084
sg18
F4.0
sg19
F2014.0
sg20
F240.07955
sg21
F-11.722
sg22
S'Tt7ca5rna7n7b2k2rnjalqqwdbe'
p2009
sg24
F0.198204
sg25
L6L
sg26
F0.386389068806
sg27
F0.019839
sa(dp2010
g3
F0.09088
sg4
g323
sg6
g324
sg8
F0.620872
sg9
S'Ice Cream Sandwich'
p2011
sg11
F122.951
sg12
F0.057486
sg13
S'e20cb175-ae5a-3c11-9014-0ac5edeb825f'
p2012
sg15
F0.044317
sg16
I8
sg17
F0.746732
sg18
F4.0
sg19
F2014.0
sg20
F206.87755
sg21
F-13.161
sg22
S'T6h66mxvcwosts6kbkwrmo2ow6a'
p2013
sg24
F0.170725
sg25
L6L
sg26
F0.386389068806
sg27
F0.892912
sa(dp2014
g3
F0.088407
sg4
g323
sg6
g324
sg8
F0.49325
sg9
S'Eclair'
p2015
sg11
F119.997
sg12
F0.044385
sg13
S'7469c7cf-f266-39e9-813c-7a14b1c3cb6b'
p2016
sg15
F0.006906
sg16
I8
sg17
F0.710409
sg18
F4.0
sg19
F2014.0
sg20
F197.99955
sg21
F-12.145
sg22
S'Ttvi7q6m3utv2r4ljnkhjy46bv4'
p2017
sg24
F0.366366
sg25
L6L
sg26
F0.386389068806
sg27
F0.848465
sa(dp2018
g3
F0.089746
sg4
g89
sg6
g329
sg8
F0.019779
sg9
S'"Opening" from Lightly Baked'
p2019
sg11
F122.711
sg12
F0.042941
sg13
S'fa684f03-4777-385f-8326-9fb80331630c'
p2020
sg15
F0.248628
sg16
I8
sg17
F0.201306
sg18
F4.0
sg19
F2008.0
sg20
F128.94621
sg21
F-30.64
sg22
S'Taxx3gt26fcfsoftfwgg2ysw6wa'
p2021
sg24
F0.029683
sg25
L6L
sg26
F0.273430095496
sg27
F0.69325
sa(dp2022
g3
F0.107243
sg4
g89
sg6
g329
sg8
F0.043597
sg9
S'"End Credits" from Inversion'
p2023
sg11
F119.672
sg12
F0.058622
sg13
S'9ce0876a-e64b-3bd1-8152-062aada9bb44'
p2024
sg15
F0.50348
sg16
I8
sg17
F0.210261
sg18
F4.0
sg19
F2008.0
sg20
F62.39955
sg21
F-25.695
sg22
S'Tp5hlfczrcvazqig6xasg7q6g6e'
p2025
sg24
F0.035887
sg25
L6L
sg26
F0.273430095496
sg27
F0.925754
sa(dp2026
g3
F0.198817
sg4
g89
sg6
g329
sg8
F0.407223
sg9
g1793
sg11
F113.017
sg12
F0.072577
sg13
S'4247bfb9-8db5-3156-914b-077243f4777a'
p2027
sg15
F0.00152
sg16
I8
sg17
F0.714951
sg18
F4.0
sg19
F2008.0
sg20
F74.77288
sg21
F-16.247
sg22
S'Tosnbfwgzwnotybf5ntzbmfqj4a'
p2028
sg24
F0.276962
sg25
L6L
sg26
F0.273430095496
sg27
F0.908448
sa(dp2029
g3
F0.313635
sg4
g534
sg6
g535
sg8
F0.646203
sg9
S'Act 0 - The Premonition (Main Menu)'
p2030
sg11
F115.091
sg12
F0.047807
sg13
S'179911d9-3f87-30b4-a6e9-0722e9d91f09'
p2031
sg15
F0.087419
sg16
I8
sg17
F0.240308
sg18
F3.0
sg19
F2014.0
sg20
F192.98063
sg21
F-9.894
sg22
S'Tqxsl6yux5myrkd5nycxkyjmlhm'
p2032
sg24
F0.156782
sg25
L6L
sg26
F0.462929240542
sg27
F0.682931
sa(dp2033
g3
F0.072521
sg4
g534
sg6
g535
sg8
F0.14848
sg9
S'Act 0 - Initialize'
p2034
sg11
F116.487
sg12
F0.068299
sg13
S'24909fdc-1455-3a41-a2c9-fd2b1a01b082'
p2035
sg15
F0.422881
sg16
I8
sg17
F0.325044
sg18
F3.0
sg19
F2014.0
sg20
F68.25469
sg21
F-22.289
sg22
S'Tixxqx7ycv63is7wwgan4c7aixm'
p2036
sg24
F0.069321
sg25
L6L
sg26
F0.462929240542
sg27
F0.894758
sa(dp2037
g3
F0.10044
sg4
g534
sg6
g535
sg8
F0.06401
sg9
S'Act 1 - A Pale Horse'
p2038
sg11
F119.644
sg12
F0.050671
sg13
S'7fe428e5-d310-3588-bd19-d19bdfdd55ad'
p2039
sg15
F0.821316
sg16
I8
sg17
F0.326761
sg18
F4.0
sg19
F2014.0
sg20
F128.99859
sg21
F-22.984
sg22
S'Tawulqowx264rzz22xnitkcwuve'
p2040
sg24
F0.024199
sg25
L6L
sg26
F0.462929240542
sg27
F0.910164
sa(dp2041
g3
F0.099077
sg4
g534
sg6
g535
sg8
F0.204548
sg9
S'Act 1 - Dilatation'
p2042
sg11
F120.099
sg12
F0.057668
sg13
S'6b8cb65e-78e5-3f62-a663-4d055ed5c2c7'
p2043
sg15
F0.567085
sg16
I8
sg17
F0.487259
sg18
F4.0
sg19
F2014.0
sg20
F96.76717
sg21
F-24.48
sg22
S'Tioirqofn4qfrjljllcnydw5km4'
p2044
sg24
F0.06047
sg25
L6L
sg26
F0.462929240542
sg27
F0.957984
sa(dp2045
g3
F0.11159
sg4
g534
sg6
g535
sg8
F0.413749
sg9
S'Act 1 - Blindspots'
p2046
sg11
F113.927
sg12
F0.045526
sg13
S'aa055e01-9760-3b7a-a6ab-213e85e42e98'
p2047
sg15
F0.627668
sg16
I8
sg17
F0.231185
sg18
F4.0
sg19
F2014.0
sg20
F254.68635
sg21
F-19.449
sg22
S'Tcouylb7m7sodikl3wkrpiealtu'
p2048
sg24
F0.055696
sg25
L6L
sg26
F0.462929240542
sg27
F0.933112
saa(lp2049
(dp2050
g3
F0.297054
sg4
S'Alejandro Escuer'
p2051
sg6
g58
sg8
F0.290651
sg9
S'C\xc3\xb3digos Secretos - Contemporary Classical Album'
p2052
sg11
F66.403
sg12
F0.101
sg13
S'7620e99b-128a-3e75-b2eb-b611c728ed1a'
p2053
sg15
F0.907753
sg16
I9
sg17
F0.236022
sg18
F5.0
sg19
F2014.0
sg20
F465.60608
sg21
F-20.195
sg22
S'Tanyez6vrlc42lgofvzvy7laane'
p2054
sg24
F0.065556
sg25
L6L
sg26
F0.252243707039
sg27
F0.068738
sa(dp2055
g3
F0.083872
sg4
g89
sg6
g90
sg8
F0.039854
sg9
S'"Last Dance" from Insignia'
p2056
sg11
F62.519
sg12
F0.043539
sg13
S'd30909a0-db68-3d4a-a929-35ef9c41e09e'
p2057
sg15
F0.912285
sg16
I9
sg17
F0.203489
sg18
F4.0
sg19
F2006.0
sg20
F42.10621
sg21
F-25.057
sg22
S'Ts74odiqhcshckaczkh72a7kasm'
p2058
sg24
F0.098357
sg25
L6L
sg26
F0.273430095496
sg27
F0.175082
sa(dp2059
g3
F0.14579
sg4
g89
sg6
g90
sg8
F0.028413
sg9
S'"Hands In Blood" from Insignia'
p2060
sg11
F73.345
sg12
F0.040851
sg13
S'e42fc942-8835-3afb-b03d-75d5ac6644a3'
p2061
sg15
F0.981716
sg16
I9
sg17
F0.084938
sg18
F3.0
sg19
F2006.0
sg20
F67.14621
sg21
F-28.263
sg22
S'Tgcfz7jyob2gu76icfoh6ynbcqi'
p2062
sg24
F0.019146
sg25
L6L
sg26
F0.273430095496
sg27
F0.985107
sa(dp2063
g3
F0.11181
sg4
g425
sg6
S'http://lh4.ggpht.com/XZ3fBvFsGKYUBbJn5JrdKfsDvBkuUW0Luz_o_JptnVwWO0igYCStA5BtUaJiIzQZJpSUZS5WRA'
p2064
sg8
F0.023053
sg9
S'Mimema'
p2065
sg11
F71.415
sg12
F0.045172
sg13
S'76597302-2139-3948-b988-e6a8b1b94f31'
p2066
sg15
F0.600856
sg16
I9
sg17
F0.176726
sg18
F4.0
sg19
F2007.0
sg20
F248.30621
sg21
F-28.545
sg22
S'Txzrjc7rzpbmtbim2vrci7ocare'
p2067
sg24
F0.034256
sg25
L6L
sg26
F0.50639870239
sg27
F0.960707
sa(dp2068
g3
F0.14579
sg4
g89
sg6
g329
sg8
F0.028413
sg9
g2060
sg11
F73.345
sg12
F0.040851
sg13
S'd6098e75-519c-3d84-8d3c-d080297175d4'
p2069
sg15
F0.981716
sg16
I9
sg17
F0.084938
sg18
F3.0
sg19
F2008.0
sg20
F67.14621
sg21
F-28.263
sg22
S'Txoxjnjhp6fdkoid3e66jsgulh4'
p2070
sg24
F0.019146
sg25
L6L
sg26
F0.273430095496
sg27
F0.985107
sa(dp2071
g3
F0.083872
sg4
g89
sg6
g329
sg8
F0.039854
sg9
g2056
sg11
F62.519
sg12
F0.043539
sg13
S'c7a24ea1-4238-33a7-828e-6828a2a322f2'
p2072
sg15
F0.912285
sg16
I9
sg17
F0.203489
sg18
F4.0
sg19
F2008.0
sg20
F42.10621
sg21
F-25.057
sg22
S'Ttkm25oeyzryymskhpixuytbp2m'
p2073
sg24
F0.098357
sg25
L6L
sg26
F0.273430095496
sg27
F0.175082
sa(dp2074
g3
F0.11723
sg4
g89
sg6
g329
sg8
F0.10048
sg9
S'"Celebrity Mass" from Luxury Item'
p2075
sg11
F59.638
sg12
F0.038896
sg13
S'4f3319ad-15a9-34eb-ae99-44331daea367'
p2076
sg15
F0.595684
sg16
I9
sg17
F0.372236
sg18
F4.0
sg19
F2008.0
sg20
F107.17288
sg21
F-18.343
sg22
S'Tru77kdcbzdamv6swz66f2g47we'
p2077
sg24
F0.036643
sg25
L6L
sg26
F0.273430095496
sg27
F0.918607
sa(dp2078
g3
F0.108178
sg4
g534
sg6
g535
sg8
F0.015477
sg9
S'Act 1 - Recursive Fault'
p2079
sg11
F67.116
sg12
F0.038672
sg13
S'b63bca20-3eba-3f35-abb9-33e3a739597f'
p2080
sg15
F0.796694
sg16
I9
sg17
F0.260961
sg18
F5.0
sg19
F2014.0
sg20
F66.49955
sg21
F-31.273
sg22
S'Tjlmtmgr3zdwjt6gvb4epjfye7u'
p2081
sg24
F0.142286
sg25
L6L
sg26
F0.462929240542
sg27
F0.783909
saa.