(lp0
(lp1
(dp2
S'energy'
p3
F0.993103
sS'tempo'
p4
F85.534
sS'speechiness'
p5
F0.173232
sS'cluster'
p6
I0
sS'duration'
p7
F280.21288
sS'id'
p8
S'SOVLGJY12A8C13FBED'
p9
sS'title'
p10
S'Deep Sea Creature'
p11
sS'liveness'
p12
F0.200026
sS'acousticness'
p13
F7e-06
sS'danceability'
p14
F0.273413
sS'time_signature'
p15
L3L
sS'loudness'
p16
F-3.236
sS'valence'
p17
F0.220311
sS'artist_discovery'
p18
F0.343505240386
saa(lp19
(dp20
g3
F0.72923
sg4
F151.008
sg5
F0.04956
sg6
I1
sg7
F191.70621
sg8
S'SOGDQZK12A8C13F37C'
p21
sg10
S'No Quieras Marcharte (Remastered)'
p22
sg12
F0.288665
sg13
F0.482124
sg14
F0.688367
sg15
L4L
sg16
F-10.379
sg17
F0.761257
sg18
F0.487800991478
saa(lp23
(dp24
g3
F0.576518
sg4
F93.043
sg5
F0.208072
sg6
I2
sg7
F222.86621
sg8
S'SODMVJR12A6D4F985D'
p25
sg10
S'If I...'
p26
sg12
F0.188511
sg13
F0.120629
sg14
F0.89348
sg15
L4L
sg16
F-9.443
sg17
F0.523966
sg18
F0.413224913956
saa(lp27
a(lp28
a.