(lp0
(dp1
S'liveness'
p2
F0.090593
sS'artist'
p3
S'Paramore'
p4
sS'albumArtRef'
p5
S'http://lh6.ggpht.com/n79ma1GC5eGh6eMr9wWnAoElTcSD6gZYGGi6ZbUzI2FEXVx6fOzTVmzQS3f1jEIuBd6x0wcHizE'
p6
sS'energy'
p7
F0.894473
sS'title'
p8
S"Ain't it fun"
p9
sS'tempo'
p10
F104.07
sS'speechiness'
p11
F0.107239
sS'id'
p12
S'0d6d61c1-8c3b-39bc-a884-763db5063468'
p13
sS'acousticness'
p14
F0.168065
sS'cluster'
p15
I4
sS'danceability'
p16
F0.635435
sS'time_signature'
p17
F4.0
sS'year'
p18
F2013.0
sS'duration'
p19
F220.85873
sS'loudness'
p20
F-3.457
sS'storeId'
p21
S'Tzf7d2wsb3eqgosyy34ob2nhzha'
p22
sS'valence'
p23
F0.689844
sS'trackType'
p24
L4L
sS'artist_discovery'
p25
F0.402165130573
sS'instrumentalness'
p26
F0.000264
sa(dp27
g2
F0.345218
sg3
S'Bob Mould'
p28
sg5
S'http://lh5.ggpht.com/S-_szR8Znle9ofSuhTb3LYjsBndlS79PPfyJTE75CjhuDQp8A0EyOyLhyIp4gdwjMX7CcYnp4w'
p29
sg7
F0.992514
sg8
S'Makes No Sense At All'
p30
sg10
F184.487
sg11
F0.348382
sg12
S'c4e389bd-328f-33c1-b15a-ce47ff149b7a'
p31
sg14
F0.014667
sg15
I0
sg16
F0.14642
sg17
F4.0
sg18
F2012.0
sg19
F148.77288
sg20
F-3.895
sg21
S'Tomulm2twtscfdq7jlupdez5vxq'
p32
sg23
F0.131003
sg24
L6L
sg25
F0.477314504435
sg26
F0.036649
sa(dp33
g2
F0.704776
sg3
g28
sg5
g29
sg7
F0.931926
sg8
S'Hoover Dam'
p34
sg10
F112.631
sg11
F0.110934
sg12
S'c124db32-ed38-3dc5-9775-a42c587c7ba3'
p35
sg14
F0.030926
sg15
I1
sg16
F0.375139
sg17
F4.0
sg18
F2012.0
sg19
F278.59955
sg20
F-4.738
sg21
S'T3cdtx2ejfl3bufyti4kwa2r57a'
p36
sg23
F0.383736
sg24
L6L
sg25
F0.477314504435
sg26
F0.142562
sa(dp37
g2
F0.741292
sg3
g28
sg5
g29
sg7
F0.988793
sg8
S'Celebrated Summer'
p38
sg10
F110.951
sg11
F0.13355
sg12
S'029303d6-8209-37a4-b0ca-1feff5b0950e'
p39
sg14
F0.024074
sg15
I4
sg16
F0.227757
sg17
F4.0
sg18
F2012.0
sg19
F220.65288
sg20
F-4.376
sg21
S'Teee4e3ii54r3ha2wchbt3ombue'
p40
sg23
F0.099879
sg24
L6L
sg25
F0.477314504435
sg26
F0.101425
sa(dp41
g2
F0.413744
sg3
g28
sg5
g29
sg7
F0.994101
sg8
S'I Apologize'
p42
sg10
F113.77
sg11
F0.225832
sg12
S'a6ed2d45-9a62-38ac-b021-585eeeddce10'
p43
sg14
F0.011545
sg15
I1
sg16
F0.324268
sg17
F4.0
sg18
F2012.0
sg19
F198.97288
sg20
F-3.904
sg21
S'Tnqxbfcxjzuyzmumozt4x4bqvqi'
p44
sg23
F0.191411
sg24
L6L
sg25
F0.477314504435
sg26
F0.028939
sa(dp45
g2
F0.866208
sg3
g28
sg5
g29
sg7
F0.991287
sg8
S"If I Can't Change Your Mind"
p46
sg10
F186.134
sg11
F0.263337
sg12
S'7ea79dcb-e203-3753-a644-fda330b40fa4'
p47
sg14
F0.000177
sg15
I0
sg16
F0.132623
sg17
F4.0
sg18
F2012.0
sg19
F193.0068
sg20
F-4.535
sg21
S'Tghumkzfvdywagkq76xxbfbb55q'
p48
sg23
F0.268686
sg24
L6L
sg25
F0.378260564963
sg26
F0.000194
sa(dp49
g2
F0.206739
sg3
S'Game'
p50
sg5
S'http://lh6.ggpht.com/oZ_JqtTVqIxK3tWwTp2HcGqG7Yxm3NmSTwiu0SbN8t98OO9XGL5z81Lp6Cy8FSCFpNoI9tVnzQ'
p51
sg7
F0.926596
sg8
S'Gotta Take Your Love (Re-edit)'
p52
sg10
F122.06
sg11
F0.402797
sg12
S'5e10ddfa-ef06-3699-a985-f2df0b25c7d9'
p53
sg14
F0.00408
sg15
I1
sg16
F0.73503
sg17
F4.0
sg18
F2013.0
sg19
F154.90458
sg20
F-6.818
sg21
S'Tsbq7lclazcrwxerz6hlhhsrkfu'
p54
sg23
F0.561494
sg24
L6L
sg25
F0.411385030937
sg26
F4.9e-05
sa(dp55
g2
F0.112827
sg3
S'Dave Matthews Band'
p56
sg5
S'http://lh3.ggpht.com/Sfj0Bxs0Us8Uh9fH2vNb-igajLPG1evA_mTm9P3e-IO7VIKsYqO0DZghd59T7VZoye4YtMRTj4k'
p57
sg7
F0.513172
sg8
S'Typical Situation'
p58
sg10
F110.144
sg11
F0.056832
sg12
S'e18e1be5-f93a-3ffd-85ae-978e479081a6'
p59
sg14
F0.223218
sg15
I4
sg16
F0.35606
sg17
F4.0
sg18
F2011.0
sg19
F357.66667
sg20
F-9.478
sg21
S'Tkxq7pvvgdn64fqnrjwj6ji36im'
p60
sg23
F0.245124
sg24
L6L
sg25
F0.381223175296
sg26
F3e-06
sa(dp61
g2
F0.985793
sg3
g56
sg5
g57
sg7
F0.84503
sg8
S'Help Myself'
p62
sg10
F119.216
sg11
F0.039802
sg12
S'84e9b70e-1f09-3911-81eb-5f16a4b95bc2'
p63
sg14
F0.102073
sg15
I1
sg16
F0.51541
sg17
F4.0
sg18
F2011.0
sg19
F323.55955
sg20
F-6.906
sg21
S'Tm4kghu2uwphg67cxh7qo66snte'
p64
sg23
F0.506898
sg24
L6L
sg25
F0.381223175296
sg26
F0.001221
sa(dp65
g2
F0.974162
sg3
g56
sg5
g57
sg7
F0.940381
sg8
S'What Would You Say'
p66
sg10
F112.601
sg11
F0.069971
sg12
S'93393bb2-5304-3d11-ab2a-44046cdb1490'
p67
sg14
F0.06518
sg15
I1
sg16
F0.570784
sg17
F4.0
sg18
F2011.0
sg19
F293.63955
sg20
F-4.551
sg21
S'T42rm6poc7gwig5sqmswk225hom'
p68
sg23
F0.639763
sg24
L6L
sg25
F0.381223175296
sg26
F1e-06
sa(dp69
g2
F0.49226
sg3
g56
sg5
g57
sg7
F0.59431
sg8
S'Jimi Thing'
p70
sg10
F96.232
sg11
F0.054819
sg12
S'df082f2e-8cb4-3a75-a1b3-ce473b2473d3'
p71
sg14
F0.053667
sg15
I4
sg16
F0.480039
sg17
F4.0
sg18
F2011.0
sg19
F851.90485
sg20
F-15.76
sg21
S'Tfz7cofkhrhgnb7ivxq2vnwjjry'
p72
sg23
F0.467242
sg24
L6L
sg25
F0.381223175296
sg26
F0.00036
sa(dp73
g2
F0.995975
sg3
g56
sg5
g57
sg7
F0.680163
sg8
S'Dancing Nancies'
p74
sg10
F108.746
sg11
F0.050117
sg12
S'8d5809d3-a581-3783-8563-74cf0665a4f5'
p75
sg14
F0.631317
sg15
I4
sg16
F0.401177
sg17
F4.0
sg18
F2011.0
sg19
F491.89288
sg20
F-10.662
sg21
S'T5pcng3hj25fbdtqa6askfgnjgu'
p76
sg23
F0.588296
sg24
L6L
sg25
F0.381223175296
sg26
F0.000412
sa(dp77
g2
F0.946814
sg3
g56
sg5
g57
sg7
F0.518542
sg8
S'Ants Marching'
p78
sg10
F109.029
sg11
F0.048423
sg12
S'99abe840-38f9-30d7-8f3a-a13f9027b1df'
p79
sg14
F0.404146
sg15
I4
sg16
F0.600029
sg17
F4.0
sg18
F2011.0
sg19
F361.89333
sg20
F-13.682
sg21
S'Taa35hesnw4ed2q5nhcflz2ajfi'
p80
sg23
F0.762312
sg24
L6L
sg25
F0.381223175296
sg26
F7e-06
sa(dp81
g2
F0.679387
sg3
g56
sg5
g57
sg7
F0.478698
sg8
S'Say Goodbye'
p82
sg10
F102.438
sg11
F0.047663
sg12
S'fc22a7c0-4744-30d3-8024-d0da4821b6e3'
p83
sg14
F0.252648
sg15
I4
sg16
F0.409587
sg17
F4.0
sg18
F2011.0
sg19
F521.27302
sg20
F-17.905
sg21
S'Tmruhh36m4qz3cs6wqzh3ehz2w4'
p84
sg23
F0.215042
sg24
L6L
sg25
F0.381223175296
sg26
F0.001227
sa(dp85
g2
F0.984992
sg3
g56
sg5
g57
sg7
F0.86857
sg8
S'One Sweet World (2.25.10)'
p86
sg10
F103.692
sg11
F0.10245
sg12
S'babd71d5-02e8-3c06-9333-ea0c52480f8b'
p87
sg14
F0.064524
sg15
I4
sg16
F0.393021
sg17
F4.0
sg18
F2011.0
sg19
F434.77451
sg20
F-6.662
sg21
S'Tvzitfz7i5kch7oujlokryejsby'
p88
sg23
F0.42208
sg24
L6L
sg25
F0.381223175296
sg26
F0.011752
sa(dp89
g2
F0.14228
sg3
g56
sg5
g57
sg7
F0.898703
sg8
S'Halloween'
p90
sg10
F111.157
sg11
F0.057786
sg12
S'f4e2ae35-1b45-3274-81cb-bf80ff983c9f'
p91
sg14
F0.097279
sg15
I4
sg16
F0.585067
sg17
F4.0
sg18
F2011.0
sg19
F307.93333
sg20
F-5.071
sg21
S'Tqhnwtaefqq7ett2264yqp4h5je'
p92
sg23
F0.449565
sg24
L6L
sg25
F0.381223175296
sg26
F0.000101
sa(dp93
g2
F0.493363
sg3
S'The Ramones'
p94
sg5
S'http://lh3.ggpht.com/iSOHMYMrHbjGXcpdcjed1LP-5FBKmtY2jekLNVs_SD0TN-oOIKbW5smG1vdagpAswwHFCd2N'
p95
sg7
F0.757064
sg8
S'Rockaway Beach'
p96
sg10
F98.296
sg11
F0.050496
sg12
S'9dc5a186-5145-3615-b4c4-94daee5ce188'
p97
sg14
F0.001155
sg15
I4
sg16
F0.342374
sg17
F4.0
sg18
F2009.0
sg19
F147.53333
sg20
F-11.727
sg21
S'Tfyaw5qvqp22ij4pwqtn4hegzga'
p98
sg23
F0.737457
sg24
L6L
sg25
F0.29736985343
sg26
F0.000661
sa(dp99
g2
F0.110628
sg3
S'Vienna Teng'
p100
sg5
S'http://lh4.ggpht.com/2Pw18bR8fL0yKDxTpvlCZv-8ArylwBzVmZw6a-epiY7eUSrQ6BqCQ6LXAY9O1uimC1LY_Ep3'
p101
sg7
F0.647937
sg8
S'Level Up - Social Action Song'
p102
sg10
F170.06
sg11
F0.042408
sg12
S'5cb669ca-8e3f-3e45-ae3c-1c0ca895f877'
p103
sg14
F0.195267
sg15
I0
sg16
F0.512594
sg17
F1.0
sg18
F2014.0
sg19
F233.89995
sg20
F-8.075
sg21
S'Teytpb7qfxcqsalolqddwfyucwm'
p104
sg23
F0.402763
sg24
L6L
sg25
F0.471455234415
sg26
F0.043689
sa(dp105
g2
F0.218013
sg3
S'Audego'
p106
sg5
g101
sg7
F0.458144
sg8
S'Liar - Dance / Electronica Song'
p107
sg10
F179.062
sg11
F0.168968
sg12
S'49b64cc8-f976-3ff4-a846-e2e32b75cec1'
p108
sg14
F0.88014
sg15
I0
sg16
F0.266372
sg17
F3.0
sg18
F2014.0
sg19
F256.83546
sg20
F-10.422
sg21
S'Tgk4i2u65ajomss7u3ygswptn5m'
p109
sg23
F0.450179
sg24
L6L
sg25
F0.429842559251
sg26
F0.000111
sa(dp110
g2
F0.121774
sg3
S'Ararur'
p111
sg5
g101
sg7
F0.297548
sg8
S'Archa\xc3\xafko - Jazz With Vocals Album'
p112
sg10
F91.006
sg11
F0.049438
sg12
S'535fc3b5-577e-35f7-bb18-14b923750d8a'
p113
sg14
F0.891406
sg15
I4
sg16
F0.504315
sg17
F1.0
sg18
F2014.0
sg19
F451.52608
sg20
F-13.144
sg21
S'Tinallpqlrcd5cn5nk6s4ugkvwe'
p114
sg23
F0.393609
sg24
L6L
sg25
F0.308059832776
sg26
F0.009416
sa(dp115
g2
F0.269214
sg3
S'Classick'
p116
sg5
g101
sg7
F0.892009
sg8
S'This Heart - Rock / Hard Rock Song'
p117
sg10
F119.996
sg11
F0.041597
sg12
S'ff2c6925-d4f8-36a0-915f-5c0b737a702b'
p118
sg14
F0.000596
sg15
I1
sg16
F0.496551
sg17
F4.0
sg18
F2014.0
sg19
F208.22159
sg20
F-4.496
sg21
S'Tc733d5tno3q65chktw25uhess4'
p119
sg23
F0.146288
sg24
L6L
sg25
F0.340148122382
sg26
F0.000177
sa(dp120
g2
F0.2892
sg3
S'Natalie Howard'
p121
sg5
g101
sg7
F0.804726
sg8
S'Paradise - Country Album'
p122
sg10
F124.998
sg11
F0.042883
sg12
S'34a9566e-cea3-3edf-9389-895f69f7fed4'
p123
sg14
F0.000302
sg15
I1
sg16
F0.581093
sg17
F4.0
sg18
F2014.0
sg19
F255.58159
sg20
F-9.085
sg21
S'Trwylshzj3mrt5bjp2zypfkqvq4'
p124
sg23
F0.302652
sg24
L6L
sg25
F0.295212838718
sg26
F0.000871
sa(dp125
g2
F0.447561
sg3
S'Sultans Of String'
p126
sg5
g101
sg7
F0.278823
sg8
S'Josie - Instrumental Song'
p127
sg10
F132.004
sg11
F0.033259
sg12
S'dbdaca0f-e0ab-3656-a111-097a4c8ec9da'
p128
sg14
F0.870403
sg15
I1
sg16
F0.276762
sg17
F4.0
sg18
F2014.0
sg19
F370.52036
sg20
F-12.791
sg21
S'T2xc6mz4xte25syxzlmcjaur25y'
p129
sg23
F0.129893
sg24
L6L
sg25
F0.367688608638
sg26
F0.047702
sa(dp130
g2
F0.102569
sg3
S'Rozina P\xc3\xa1tkai'
p131
sg5
g101
sg7
F0.202763
sg8
S'El Hombre Que Yo Ame (The Man I Love) - Jazz With Vocals Song'
p132
sg10
F85.308
sg11
F0.03079
sg12
S'b6b5782c-25ee-3c69-aa1d-ac6ddd99644e'
p133
sg14
F0.783143
sg15
I2
sg16
F0.301503
sg17
F3.0
sg18
F2014.0
sg19
F349.67465
sg20
F-12.222
sg21
S'T74s5lc6b4666zcrxfb2z4bpivq'
p134
sg23
F0.18832
sg24
L6L
sg25
F0.377197739029
sg26
F0.000201
sa(dp135
g2
F0.080997
sg3
S'Chris Kelsey & What I Say'
p136
sg5
g101
sg7
F0.534603
sg8
S'Sivad - Tribute Album'
p137
sg10
F81.207
sg11
F0.107646
sg12
S'6eeee237-ef73-3475-880a-392a9ad7b9fc'
p138
sg14
F0.099222
sg15
I2
sg16
F0.448401
sg17
F4.0
sg18
F2014.0
sg19
F1074.20689
sg20
F-10.038
sg21
S'Thjlpiqx2a5sj7cjw7o5iuobwfu'
p139
sg23
F0.75994
sg24
L6L
sg25
F0.243608528334
sg26
F0.120631
sa(dp140
g2
F0.079365
sg3
S'Rabbit Rabbit'
p141
sg5
g101
sg7
F0.140309
sg8
S'After the Storm - Eclectic Song'
p142
sg10
F83.415
sg11
F0.0323
sg12
S'737d6d7c-09de-31b8-a8e7-a00cbeee32bc'
p143
sg14
F0.913889
sg15
I2
sg16
F0.452551
sg17
F4.0
sg18
F2014.0
sg19
F167.47057
sg20
F-12.968
sg21
S'Tdejvs6seonvxhdilfrt5v2zpqy'
p144
sg23
F0.137714
sg24
L6L
sg25
F0.426769848505
sg26
F0.000725
sa(dp145
g2
F0.257887
sg3
S'Fold'
p146
sg5
g101
sg7
F0.952564
sg8
S'Salvation - Spoken Word (with Music Accompaniment) Song (feat. Mr Gee)'
p147
sg10
F101.034
sg11
F0.074036
sg12
S'cf88f568-1478-3a13-824e-d40f3400a15a'
p148
sg14
F0.014799
sg15
I4
sg16
F0.539875
sg17
F4.0
sg18
F2014.0
sg19
F186.09587
sg20
F-5.297
sg21
S'Tzxelel6f5e3duzuosjrrbpdlvi'
p149
sg23
F0.69679
sg24
L6L
sg25
F0.425636904781
sg26
F0.211756
sa(dp150
g2
F0.107638
sg3
S'Akuseka Takuwa Kongo Group'
p151
sg5
g101
sg7
F0.50856
sg8
S'The Benefits of Coffee - World Traditional Album'
p152
sg10
F183.687
sg11
F0.067717
sg12
S'5806ee75-98fd-36d4-9acd-3f20ed710da6'
p153
sg14
F0.846371
sg15
I0
sg16
F0.451862
sg17
F3.0
sg18
F2014.0
sg19
F262.89587
sg20
F-9.627
sg21
S'Tab77twe6go3eex3afua2tkiwni'
p154
sg23
F0.957693
sg24
L6L
sg25
F0.303774310654
sg26
F3e-06
sa(dp155
g2
F0.110004
sg3
S"Robert Walter's 20th Congress"
p156
sg5
g101
sg7
F0.907972
sg8
S'Hunk - Funk / Fusion / Jam Album'
p157
sg10
F95.788
sg11
F0.067495
sg12
S'9646c33f-985e-3a81-9deb-4690319dffed'
p158
sg14
F0.017254
sg15
I4
sg16
F0.756042
sg17
F4.0
sg18
F2014.0
sg19
F241.26649
sg20
F-6.064
sg21
S'Tix6vghj2bbay7qwj3k6ah2rhdy'
p159
sg23
F0.906728
sg24
L6L
sg25
F0.428165490956
sg26
F0.371074
sa(dp160
g2
F0.087666
sg3
S'Scarecrow'
p161
sg5
g101
sg7
F0.29466
sg8
S'Evil and Crossroads - Blues Album'
p162
sg10
F97.061
sg11
F0.211026
sg12
S'f03cb5dc-ca32-3315-82d8-7805a897b7bb'
p163
sg14
F0.119558
sg15
I4
sg16
F0.840959
sg17
F4.0
sg18
F2014.0
sg19
F249.59955
sg20
F-14.366
sg21
S'Tjfoz3jzszl46yvliggzr3dedni'
p164
sg23
F0.180929
sg24
L6L
sg25
F0.467981504505
sg26
F0.000196
sa(dp165
g2
F0.112809
sg3
S'Elizabeth Mitchell'
p166
sg5
g101
sg7
F0.254349
sg8
S"Hop up My Ladies - Children's Music Album"
p167
sg10
F197.061
sg11
F0.08809
sg12
S'94f3ee1d-be53-3709-b4ee-a80392c793c4'
p168
sg14
F0.882233
sg15
I0
sg16
F0.515265
sg17
F4.0
sg18
F2014.0
sg19
F109.26975
sg20
F-13.532
sg21
S'Texmh54z54u34xpskpbalsx2coa'
p169
sg23
F0.88931
sg24
L6L
sg25
F0.485530902477
sg26
F3e-06
sa(dp170
g2
F0.075758
sg3
S'Hilary Weeks'
p171
sg5
g101
sg7
F0.457669
sg8
S'Say Love - Contemporary Christian / Gospel Album'
p172
sg10
F106.981
sg11
F0.029265
sg12
S'33e9f510-daf4-348b-9205-6d2e0e2e97ea'
p173
sg14
F0.162804
sg15
I4
sg16
F0.613915
sg17
F4.0
sg18
F2014.0
sg19
F236.14649
sg20
F-7.896
sg21
S'Trmg4gaxr4g3agv4todj6mejm3q'
p174
sg23
F0.299011
sg24
L6L
sg25
F0.458357506423
sg26
F3e-06
sa(dp175
g2
F0.297054
sg3
S'Alejandro Escuer'
p176
sg5
g101
sg7
F0.290651
sg8
S'C\xc3\xb3digos Secretos - Contemporary Classical Album'
p177
sg10
F66.403
sg11
F0.101
sg12
S'7620e99b-128a-3e75-b2eb-b611c728ed1a'
p178
sg14
F0.907753
sg15
I2
sg16
F0.236022
sg17
F5.0
sg18
F2014.0
sg19
F465.60608
sg20
F-20.195
sg21
S'Tanyez6vrlc42lgofvzvy7laane'
p179
sg23
F0.065556
sg24
L6L
sg25
F0.252243707039
sg26
F0.068738
sa(dp180
g2
F0.124294
sg3
S'Maddy Rodriguez'
p181
sg5
g101
sg7
F0.666091
sg8
S'Some Nights (Cecilia) - (Orig. by Fun. / Simon & Garfunkel) - Cover Song'
p182
sg10
F108.023
sg11
F0.034691
sg12
S'f26f054e-f2f8-34d1-a0c3-0a238b1a0a9a'
p183
sg14
F0.23728
sg15
I4
sg16
F0.619342
sg17
F4.0
sg18
F2014.0
sg19
F275.98322
sg20
F-5.355
sg21
S'T2whfkss5ymqjnzanxfx25szjyi'
p184
sg23
F0.635094
sg24
L6L
sg25
F0.314817881956
sg26
F2.1e-05
sa(dp185
g2
F0.219712
sg3
S'I See Stars'
p186
sg5
g101
sg7
F0.330485
sg8
S'Ten Thousand Feet - Metal / Hardcore Album'
p187
sg10
F139.855
sg11
F0.056755
sg12
S'c399f57d-032b-3d86-9c7b-5c8dec771928'
p188
sg14
F0.000569
sg15
I3
sg16
F0.391643
sg17
F4.0
sg18
F2014.0
sg19
F343.97995
sg20
F-29.055
sg21
S'Tq2c72maawqbbuksampq4feohsq'
p189
sg23
F0.258227
sg24
L6L
sg25
F0.50262695251
sg26
F0.005218
sa(dp190
g2
F0.092916
sg3
S'Kelley James'
p191
sg5
g101
sg7
F0.859017
sg8
S'Marinade - Pop Album'
p192
sg10
F86.098
sg11
F0.047947
sg12
S'1cf33da8-84cf-3639-b539-f1130cdbc6d0'
p193
sg14
F0.265941
sg15
I2
sg16
F0.660757
sg17
F4.0
sg18
F2014.0
sg19
F206.44526
sg20
F-6.908
sg21
S'Tooucsztlphoqtvxsdqycaezr6m'
p194
sg23
F0.79224
sg24
L6L
sg25
F0.436224416742
sg26
F1.2e-05
sa(dp195
g2
F0.363376
sg3
S'Darlene Koldenhoven'
p196
sg5
g101
sg7
F0.357322
sg8
S'Lucid See - New Age Album'
p197
sg10
F132.01
sg11
F0.037142
sg12
S'6dc4a566-b565-3009-9ded-dd078a337893'
p198
sg14
F0.944728
sg15
I1
sg16
F0.565485
sg17
F4.0
sg18
F2014.0
sg19
F250.33098
sg20
F-16.038
sg21
S'Tgt66mgc4c43o32aj5w5k5bakmy'
p199
sg23
F0.075995
sg24
L6L
sg25
F0.323816808351
sg26
F0.924659
sa(dp200
g2
F0.413416
sg3
g106
sg5
g101
sg7
F0.538238
sg8
S'From My Blue - Dance / Electronica Album'
p201
sg10
F112.512
sg11
F0.155705
sg12
S'2e963965-b80e-3fbb-89d9-df28456fb41f'
p202
sg14
F0.173612
sg15
I1
sg16
F0.579983
sg17
F3.0
sg18
F2014.0
sg19
F189.41342
sg20
F-6.821
sg21
S'Tg4tkie2wuevcucspfahqsxo6n4'
p203
sg23
F0.28638
sg24
L6L
sg25
F0.429842559251
sg26
F0.072122
sa(dp204
g2
F0.352625
sg3
S'Jean Rohe'
p205
sg5
g101
sg7
F0.713607
sg8
S'Umbrella - Story Song'
p206
sg10
F97.285
sg11
F0.113137
sg12
S'7be573e5-8567-3a67-9ce8-abcdc3bf0bc6'
p207
sg14
F0.279494
sg15
I4
sg16
F0.549263
sg17
F4.0
sg18
F2014.0
sg19
F351.92118
sg20
F-7.243
sg21
S'Tqzddsj6vpmqb5vtex4lw3fwiye'
p208
sg23
F0.729726
sg24
L6L
sg25
F0.296439051324
sg26
F0.000173
sa(dp209
g2
F0.099163
sg3
S'Amusium'
p210
sg5
S'http://lh5.ggpht.com/dPXd9CI289BMHPSYdcsSnGFiU9eWEhtc_a4qRLgkLqPVvKV4KXs-pylUlh67jE126ZpCYR6LSQ'
p211
sg7
F0.509066
sg8
S'Kick Drum High Hat (Oscilot Remix)'
p212
sg10
F125.136
sg11
F0.176429
sg12
S'5a9bb070-cf7c-31b0-ad9e-e2f8f22aac42'
p213
sg14
F0.628131
sg15
I1
sg16
F0.69268
sg17
F4.0
sg18
F2012.0
sg19
F339.04281
sg20
F-10.049
sg21
S'Tlinptpafuhxcsro6xughqvtzs4'
p214
sg23
F0.269535
sg24
L6L
sg25
F0.309031421999
sg26
F0.029808
sa(dp215
g2
F0.108543
sg3
g210
sg5
g211
sg7
F0.789953
sg8
S'Turn Out'
p216
sg10
F90.049
sg11
F0.035427
sg12
S'bf15b6c7-9de8-3302-86ef-ac746b6ad2d7'
p217
sg14
F0.052505
sg15
I4
sg16
F0.660419
sg17
F4.0
sg18
F2012.0
sg19
F230.47791
sg20
F-5.929
sg21
S'Tgzi73nozpi2phjju6zqgei72ea'
p218
sg23
F0.503032
sg24
L6L
sg25
F0.309031421999
sg26
F3.1e-05
sa(dp219
g2
F0.111209
sg3
S'Metric'
p220
sg5
S'http://lh5.ggpht.com/MWze-VfT6JHYtGv9bCxa5xCmts_tnyAwgzaXV03p4Yj8-rtcF4e3p0zqT8X2k8lpZSkLib317RU'
p221
sg7
F0.87687
sg8
S'Gimme Sympathy'
p222
sg10
F139.028
sg11
F0.083271
sg12
S'be1d0f78-a960-3868-8a32-627f276e2272'
p223
sg14
F0.007975
sg15
I3
sg16
F0.449014
sg17
F4.0
sg18
F2009.0
sg19
F234.21288
sg20
F-6.496
sg21
S'Tgbto5kph4feg7znfwdknu3o3ne'
p224
sg23
F0.120814
sg24
L6L
sg25
F0.432251555576
sg26
F0.00125
sa(dp225
g2
F0.073711
sg3
S'Rebelution'
p226
sg5
S'http://lh3.ggpht.com/Sm3LfPh2pVCBAtFRfBkZOY4g_hxqknre1GmURs9DqdQl3HsLcYU84hPmkoqYutN3wlBDfjLNeUw'
p227
sg7
F0.692904
sg8
S'De-Stress'
p228
sg10
F96.967
sg11
F0.067373
sg12
S'973f8525-ef97-38ab-a493-e872d7ae4e96'
p229
sg14
F0.042693
sg15
I4
sg16
F0.848715
sg17
F4.0
sg18
F2014.0
sg19
F223.02621
sg20
F-6.374
sg21
S'Tif5gwo2mf7z5a4hhw6ivbimypy'
p230
sg23
F0.812565
sg24
L6L
sg25
F0.451966312978
sg26
F1e-06
sa(dp231
g2
F0.372651
sg3
S'Sylvan Esso'
p232
sg5
S'http://lh6.ggpht.com/d6j3m1R_24gCRo_shMqVFkqQehvrx5RtGUD75Cns65RGuEKj0rYCpxcwPVdiBMZDRtPbwPYf'
p233
sg7
F0.745656
sg8
S'Hey Mami'
p234
sg10
F119.58
sg11
F0.535543
sg12
S'a3aa3a90-b9fa-3a9d-a2ec-ef4f0ed9d70b'
p235
sg14
F0.268542
sg15
I1
sg16
F0.668226
sg17
F4.0
sg18
F2014.0
sg19
F200.19048
sg20
F-6.019
sg21
S'Ttgbsuayqeo5eohjdblistpckia'
p236
sg23
F0.605725
sg24
L6L
sg25
F0.591491394823
sg26
F1e-06
sa(dp237
g2
F0.472298
sg3
S'Two Gallants'
p238
sg5
S'http://lh3.ggpht.com/Qxe-LcUp5L9DDerxF7O0zxzwOahPuBIui-RQzEkwOURkXl1I9GuTiW9Uof7HZMg_R3k-YS909A'
p239
sg7
F0.907509
sg8
S'Incidental'
p240
sg10
F161.98
sg11
F0.067308
sg12
S'aa199090-5589-38e0-8766-f3e71a11ba2a'
p241
sg14
F2.1e-05
sg15
I0
sg16
F0.225446
sg17
F4.0
sg18
F2015.0
sg19
F148.22354
sg20
F-3.996
sg21
S'Txbagepv75wddyi64g5vvduumru'
p242
sg23
F0.242289
sg24
L6L
sg25
F0.493368037261
sg26
F1.2e-05
sa(dp243
g2
F0.094756
sg3
g226
sg5
S'http://lh5.ggpht.com/VzSSQBCl8jQcBZ-AeYeJsz9QHHiFqVaEcK2GBVxzjL-dDnXeBfBqwCAzxgcjrV0FBKV73_PKsZQ'
p244
sg7
F0.62988
sg8
S'Outta Control'
p245
sg10
F180.022
sg11
F0.100631
sg12
S'a5b1f791-c064-3fed-b4a8-a2aac1ad5865'
p246
sg14
F0.053409
sg15
I0
sg16
F0.67432
sg17
F4.0
sg18
F2009.0
sg19
F245.29333
sg20
F-6.915
sg21
S'Tjwowvt2bge4zjx3eprn776l5yi'
p247
sg23
F0.665613
sg24
L6L
sg25
F0.451966312978
sg26
F3e-06
sa(dp248
g2
F0.045247
sg3
S'Cannibal Corpse'
p249
sg5
S'http://lh4.ggpht.com/DZUHmoys3wIRdR_RBm6EQXM0r3IeppZPzNDOG7w0DanMaG9ysGns4m-zSckoMnQ22-tBExdM9g'
p250
sg7
F0.996089
sg8
S'Demented Aggression'
p251
sg10
F149.949
sg11
F0.182938
sg12
S'7754a68c-4fad-359b-b717-0cea76af8e18'
p252
sg14
F0.000749
sg15
I3
sg16
F0.410649
sg17
F4.0
sg18
F2012.0
sg19
F193.59955
sg20
F-5.313
sg21
S'Tzws44bgrs66mka26nm34q6tnhm'
p253
sg23
F0.217743
sg24
L6L
sg25
F0.366528583775
sg26
F0.468132
sa(dp254
g2
F0.314415
sg3
S'The M...'
p255
sg5
S'http://lh3.ggpht.com/hDXzIjKalPSDaTJTuka6ualCXxo4KAU9bkjkY9RZfQbYtKnOj-nJoVMtamYPkfJ_L7fYc6F9'
p256
sg7
F0.586208
sg8
S'Face the Music'
p257
sg10
F102.26
sg11
F0.091712
sg12
S'f8ccf270-0bae-3a23-ab2f-7d6ad5168bca'
p258
sg14
F0.01875
sg15
I4
sg16
F0.832224
sg17
F4.0
sg18
F2013.0
sg19
F221.30041
sg20
F-8.12
sg21
S'T66jef6x57bzpjva27vmebqrzuq'
p259
sg23
F0.283424
sg24
L6L
sg25
F0.439177508455
sg26
F2.4e-05
sa(dp260
g2
F0.12797
sg3
g255
sg5
g256
sg7
F0.577071
sg8
S'The Book Monument'
p261
sg10
F120.098
sg11
F0.042635
sg12
S'70a9bc1e-7e9f-3c7d-85f1-771e33653c5f'
p262
sg14
F0.928356
sg15
I1
sg16
F0.241849
sg17
F4.0
sg18
F2013.0
sg19
F306.0
sg20
F-8.908
sg21
S'Tnbqeinxqwaetibccrrx2kpum3u'
p263
sg23
F0.092613
sg24
L6L
sg25
F0.25991974052
sg26
F0.871088
sa(dp264
g2
F0.723171
sg3
S'Free Bears'
p265
sg5
S'http://lh4.ggpht.com/usiMiiPvnw6B2bCRixvxb0Pjkuv5rjOTk6IGJOwOXPzDEgexRXSaAwaDowRmYvn4f244kJoY'
p266
sg7
F0.943235
sg8
S'Say What You Mean'
p267
sg10
F126.066
sg11
F0.036638
sg12
S'dc25e77c-3e4f-3586-94b8-a28afa1e3524'
p268
sg14
F0.044206
sg15
I1
sg16
F0.511998
sg17
F4.0
sg18
F2012.0
sg19
F202.13288
sg20
F-3.346
sg21
S'Tv5bv64fywfgzi7kqh36li3uaxm'
p269
sg23
F0.961883
sg24
L6L
sg25
F0.257350533155
sg26
F1.3e-05
sa(dp270
g2
F0.351945
sg3
S'Best Coast'
p271
sg5
S'http://lh4.ggpht.com/sL_O79LkzEGx2gsrlix7ws9eUF16TGUqZS-jBZstBOlZ--ULXs7kBGY0d9T4He0i3sj4l5dI0Q'
p272
sg7
F0.62196
sg8
S'Do You Love Me Like You Used To'
p273
sg10
F116.722
sg11
F0.026709
sg12
S'4aef81ec-8a4f-3f11-8cac-8c56f34fee73'
p274
sg14
F0.003469
sg15
I1
sg16
F0.618934
sg17
F4.0
sg18
F2012.0
sg19
F195.77692
sg20
F-6.153
sg21
S'T677ovkrd5hyih24shotha5gqmm'
p275
sg23
F0.632316
sg24
L6L
sg25
F0.468873175959
sg26
F2.6e-05
sa(dp276
g2
F0.138389
sg3
g271
sg5
g272
sg7
F0.526636
sg8
S'How They Want Me To Be'
p277
sg10
F106.317
sg11
F0.025082
sg12
S'e6afae31-b9f0-3046-b927-79f57266f01a'
p278
sg14
F0.534604
sg15
I4
sg16
F0.52702
sg17
F4.0
sg18
F2012.0
sg19
F232.47302
sg20
F-8.38
sg21
S'Tdicxlu7nrep4ufvcfgbnm3ipuy'
p279
sg23
F0.325479
sg24
L6L
sg25
F0.468873175959
sg26
F0.002193
sa(dp280
g2
F0.10218
sg3
g271
sg5
g272
sg7
F0.515314
sg8
S'Last Year'
p281
sg10
F94.659
sg11
F0.025284
sg12
S'b16ff455-be8f-3e75-a41e-15395ebf85e1'
p282
sg14
F0.004788
sg15
I4
sg16
F0.501094
sg17
F3.0
sg18
F2012.0
sg19
F213.22621
sg20
F-7.374
sg21
S'Tvtfqmw4fetizmqnjvjhjscjgyq'
p283
sg23
F0.616961
sg24
L6L
sg25
F0.468873175959
sg26
F1e-06
sa(dp284
g2
F0.147798
sg3
g271
sg5
g272
sg7
F0.875429
sg8
S'Boyfriend'
p285
sg10
F115.101
sg11
F0.052552
sg12
S'5b6ff226-5e1f-376a-8c03-460b960549ac'
p286
sg14
F0.120742
sg15
I1
sg16
F0.251596
sg17
F4.0
sg18
F2012.0
sg19
F149.81288
sg20
F-3.864
sg21
S'T7jbnjo7bzfxzlicspr2lumtgl4'
p287
sg23
F0.584839
sg24
L6L
sg25
F0.468873175959
sg26
F0.160026
sa(dp288
g2
F0.193944
sg3
g271
sg5
g272
sg7
F0.80422
sg8
S'The Only Place'
p289
sg10
F105.455
sg11
F0.029271
sg12
S'e25de644-5643-31e7-b874-bf6d9b8a2ce3'
p290
sg14
F0.001398
sg15
I4
sg16
F0.551381
sg17
F4.0
sg18
F2012.0
sg19
F162.66621
sg20
F-6.549
sg21
S'Tnjah34hehfcexhsott2zvstetq'
p291
sg23
F0.708936
sg24
L6L
sg25
F0.468873175959
sg26
F0.000183
sa(dp292
g2
F0.065932
sg3
S'Rimes'
p293
sg5
S'http://lh4.ggpht.com/lf0N2Zku-ns5DiaVkKwSj7v36mQ5fWB2B4P5dAcfX4Ix0XY02sVkvP3Tovtj7chPIdTTa7-Xgw'
p294
sg7
F0.533767
sg8
S'Wasted Days And Wasted Nights'
p295
sg10
F82.418
sg11
F0.023963
sg12
S'131fdeef-c2f1-30c7-a816-79069193af9a'
p296
sg14
F0.20243
sg15
I2
sg16
F0.633677
sg17
F4.0
sg18
F2012.0
sg19
F246.93288
sg20
F-6.097
sg21
S'Thuht253jo2nkuoxjjauplfn5zi'
p297
sg23
F0.401249
sg24
L6L
sg25
F0.40997164097
sg26
F1.6e-05
sa(dp298
g2
F0.472298
sg3
g238
sg5
S'http://lh6.ggpht.com/KiAk5iTg7S0Bbq9LIGKB48rTZo5EqUc1wIp45CbG6raiVDbFWFSKH7tswJpsPJ1lzBHr7tCj6Q'
p299
sg7
F0.907509
sg8
g240
sg10
F161.98
sg11
F0.067308
sg12
S'5592eb40-c09d-334c-a888-e06820fe4c2e'
p300
sg14
F2.1e-05
sg15
I0
sg16
F0.225446
sg17
F4.0
sg18
F2015.0
sg19
F148.22354
sg20
F-3.996
sg21
S'T2cxsnwqtje7r62z7iyxe22w34e'
p301
sg23
F0.242289
sg24
L6L
sg25
F0.493368037261
sg26
F1.2e-05
sa(dp302
g2
F0.233171
sg3
S'Chamber of Noize'
p303
sg5
S'http://lh6.ggpht.com/bZuyBCojBZvUjJzGIf1KRGq-nFysxa2KbEZ1MZxlzTQBZGPmKQ2rPJPnblChy8knKz2_YSpxoI8'
p304
sg7
F0.705751
sg8
S'Dead Pinky'
p305
sg10
F140.03
sg11
F0.082625
sg12
S'04b33997-2081-39a6-8738-6ec26f33f2db'
p306
sg14
F0.071466
sg15
I3
sg16
F0.438953
sg17
F4.0
sg18
F2011.0
sg19
F125.99955
sg20
F-9.631
sg21
S'Termcpw4rngjjdgp5v36ck6od3m'
p307
sg23
F0.198898
sg24
L6L
sg25
F0.254321855023
sg26
F0.902654
sa(dp308
g2
F0.198817
sg3
S'Jarrod Factor'
p309
sg5
S'http://lh4.ggpht.com/ZTmp-tvS8DUi7vdUMXUgowCc993IC1OGoqoyTw_kuL6apsH4FbdKse4l-7nv6m-UKyCKt6X3BQ'
p310
sg7
F0.407223
sg8
S'"Design Obsession" from Insignia'
p311
sg10
F113.017
sg11
F0.072577
sg12
S'a5c7813b-486d-3756-b3ae-7e2d5adcf30b'
p312
sg14
F0.00152
sg15
I1
sg16
F0.714951
sg17
F4.0
sg18
F2006.0
sg19
F74.77288
sg20
F-16.247
sg21
S'Tbcbob4ck32nkxokmamda76rg7a'
p313
sg23
F0.276962
sg24
L6L
sg25
F0.273430095496
sg26
F0.908448
sa(dp314
g2
F0.083872
sg3
g309
sg5
g310
sg7
F0.039854
sg8
S'"Last Dance" from Insignia'
p315
sg10
F62.519
sg11
F0.043539
sg12
S'd30909a0-db68-3d4a-a929-35ef9c41e09e'
p316
sg14
F0.912285
sg15
I2
sg16
F0.203489
sg17
F4.0
sg18
F2006.0
sg19
F42.10621
sg20
F-25.057
sg21
S'Ts74odiqhcshckaczkh72a7kasm'
p317
sg23
F0.098357
sg24
L6L
sg25
F0.273430095496
sg26
F0.175082
sa(dp318
g2
F0.070995
sg3
g309
sg5
g310
sg7
F0.073962
sg8
S'"The Retrospective / End Credits" from Insignia'
p319
sg10
F110.999
sg11
F0.058726
sg12
S'846e4a01-3752-371d-a840-1b63dc42f99f'
p320
sg14
F0.984689
sg15
I4
sg16
F0.468001
sg17
F3.0
sg18
F2006.0
sg19
F91.31955
sg20
F-23.537
sg21
S'Tix3utwxfeopz2m2xh466tafcbe'
p321
sg23
F0.243531
sg24
L6L
sg25
F0.273430095496
sg26
F0.973361
sa(dp322
g2
F0.14579
sg3
g309
sg5
g310
sg7
F0.028413
sg8
S'"Hands In Blood" from Insignia'
p323
sg10
F73.345
sg11
F0.040851
sg12
S'e42fc942-8835-3afb-b03d-75d5ac6644a3'
p324
sg14
F0.981716
sg15
I2
sg16
F0.084938
sg17
F3.0
sg18
F2006.0
sg19
F67.14621
sg20
F-28.263
sg21
S'Tgcfz7jyob2gu76icfoh6ynbcqi'
p325
sg23
F0.019146
sg24
L6L
sg25
F0.273430095496
sg26
F0.985107
sa(dp326
g2
F0.097516
sg3
S'LIV'
p327
sg5
S'http://lh3.ggpht.com/iAhtsjioBovPE0Yz0OSCXHxfMwVSZ8mdmtan3czsD0FHEw6mUeIHMHojXJlX3s6iExwwoujWli8'
p328
sg7
F0.177545
sg8
S'Good Christian Friends  Rejoice'
p329
sg10
F110.319
sg11
F0.055385
sg12
S'f573b191-ca21-31a1-9594-47e22958707e'
p330
sg14
F0.984475
sg15
I4
sg16
F0.55923
sg17
F4.0
sg18
F2012.0
sg19
F121.70621
sg20
F-15.477
sg21
S'Tizkveedriqkvjbdchebsdiulba'
p331
sg23
F0.462483
sg24
L6L
sg25
F0.354734404735
sg26
F0.003066
sa(dp332
g2
F0.123024
sg3
S'Dregas'
p333
sg5
S'http://lh6.ggpht.com/mFZdS05sDxgUW4noMAxWHmOLFz4taUJUupOp194jLsrFSuq5NLO-vnPoj1bosVGM6PkiVqm8'
p334
sg7
F0.784997
sg8
S'Fall Back In'
p335
sg10
F129.99
sg11
F0.066059
sg12
S'350a9f5e-4fff-3164-b493-98c2586129e9'
p336
sg14
F0.029019
sg15
I1
sg16
F0.787743
sg17
F4.0
sg18
F2012.0
sg19
F247.63224
sg20
F-3.942
sg21
S'Tsvhkzebg24kinkahwjzesc5lne'
p337
sg23
F0.774422
sg24
L6L
sg25
F0.309731157687
sg26
F8.8e-05
sa(dp338
g2
F0.330526
sg3
S'Joshua Burnell'
p339
sg5
S'http://lh6.ggpht.com/iDhbOZh2fu_cevbqdsdMv_MNv3WN6nMmz1oqB55Ow1-OUMhThujHhH8xoGvIBGgOpotvHT9lfX0'
p340
sg7
F0.072824
sg8
S'Far Over the Misty Mountains Cold'
p341
sg10
F116.917
sg11
F0.044037
sg12
S'ff796f66-63d9-33c2-8bea-79d8971540a5'
p342
sg14
F0.906649
sg15
I1
sg16
F0.564542
sg17
F4.0
sg18
F2013.0
sg19
F233.83955
sg20
F-16.614
sg21
S'T35vayeb3r3cwedazomzekioz7a'
p343
sg23
F0.158143
sg24
L6L
sg25
F0.338486369779
sg26
F3e-06
sa(dp344
g2
F0.073908
sg3
S'Valentina Lisitsa'
p345
sg5
S'http://lh5.ggpht.com/BFO4tfaAvTI_lRpHONPZeng3gPXOO8-rqYcTQcoLgxAfpuj4vFo31HpXh58G82fz4kUhQdQuzQo'
p346
sg7
F0.017179
sg8
S'Ellens Gesang III (Ave Maria)  S558 no.12 (after Schubert\xe2\x80\x99s D839)'
p347
sg10
F81.851
sg11
F0.036504
sg12
S'b2f22c1c-b12f-3125-a86c-696f12950412'
p348
sg14
F0.992143
sg15
I2
sg16
F0.198088
sg17
F3.0
sg18
F2011.0
sg19
F331.81288
sg20
F-29.981
sg21
S'Tbvamxp53ufufmnhqlzduqggfz4'
p349
sg23
F0.038902
sg24
L6L
sg25
F0.559777263004
sg26
F0.926795
sa(dp350
g2
F0.093374
sg3
S'Trampled by Turtles'
p351
sg5
S'http://lh3.ggpht.com/uuozqrfkyjv_zbD9syuHA4EEeCUK7QJN1Wtqg7Nn8xFm-bfsrfLCSQd7GO1JNUektY216jfO'
p352
sg7
F0.421042
sg8
S'Alone'
p353
sg10
F141.076
sg11
F0.030858
sg12
S'41095070-d713-3b0d-9445-edd7d3591b60'
p354
sg14
F0.775325
sg15
I3
sg16
F0.551884
sg17
F4.0
sg18
F2012.0
sg19
F266.79955
sg20
F-10.505
sg21
S'Tkrm2upw3cd5ticlomgqojqe5ma'
p355
sg23
F0.34217
sg24
L6L
sg25
F0.462073569169
sg26
F0.504282
sa(dp356
g2
F0.333886
sg3
S'Matt Nathanson'
p357
sg5
S'http://lh5.ggpht.com/7L1bMzR7u3vBOVOBxn1J0iKT_CC4k0vQ5VfMiLosmQs1enWXVKiChiL-SzXOSDKKkcuTmqQM'
p358
sg7
F0.850832
sg8
S'Faster'
p359
sg10
F107.018
sg11
F0.038588
sg12
S'b272c043-9dbe-3b3b-b8ad-cefa95842f8b'
p360
sg14
F0.009181
sg15
I4
sg16
F0.742982
sg17
F4.0
sg18
F2011.0
sg19
F208.27955
sg20
F-4.17
sg21
S'Tx7bi32l6sw7ftuwtcv6guvs354'
p361
sg23
F0.953739
sg24
L6L
sg25
F0.499727972349
sg26
F8e-06
sa(dp362
g2
F0.09704
sg3
g357
sg5
g358
sg7
F0.410028
sg8
S'Kept'
p363
sg10
F153.888
sg11
F0.02767
sg12
S'd5c3746e-008b-3008-8399-d82f1084f966'
p364
sg14
F0.506025
sg15
I3
sg16
F0.489147
sg17
F4.0
sg18
F2011.0
sg19
F201.21288
sg20
F-9.398
sg21
S'Ti3qwd6uvkxv5lnpfdfx5arajry'
p365
sg23
F0.432331
sg24
L6L
sg25
F0.499727972349
sg26
F4.6e-05
sa(dp366
g2
F0.150731
sg3
g357
sg5
g358
sg7
F0.858754
sg8
S'To The Beat Of Our Noisy Hearts'
p367
sg10
F76.02
sg11
F0.061065
sg12
S'7c55df05-3cf5-3269-a6c4-9d1004b4a2e5'
p368
sg14
F0.000719
sg15
I2
sg16
F0.588833
sg17
F4.0
sg18
F2011.0
sg19
F181.89288
sg20
F-4.465
sg21
S'T3ft2zqjexcsg4n6cpdpwqlj4aa'
p369
sg23
F0.659838
sg24
L6L
sg25
F0.499727972349
sg26
F7e-06
sa(dp370
g2
F0.243777
sg3
g357
sg5
g358
sg7
F0.893739
sg8
S'Laid'
p371
sg10
F119.844
sg11
F0.028386
sg12
S'2987036f-fbf7-331a-9d61-ddef79fcef92'
p372
sg14
F0.004303
sg15
I1
sg16
F0.558825
sg17
F4.0
sg18
F2011.0
sg19
F182.82621
sg20
F-5.477
sg21
S'T5hdaqnmb76itghvqn2pz2evnr4'
p373
sg23
F0.71016
sg24
L6L
sg25
F0.499727972349
sg26
F4.6e-05
sa(dp374
g2
F0.17607
sg3
S'Mia Martini'
p375
sg5
S'http://lh4.ggpht.com/l-Mic_YbVwrNVI-0i1B5oQPLunBVbaR0vkBoLuUNfQdzZPTWpKj0SARq8rgWpbGaZqLZWyI76A'
p376
sg7
F0.617277
sg8
S'Donna'
p377
sg10
F136.144
sg11
F0.028122
sg12
S'd59ead91-44ac-3fc6-9d25-f099529a0a0b'
p378
sg14
F0.618205
sg15
I3
sg16
F0.523574
sg17
F4.0
sg18
F1989.0
sg19
F242.85995
sg20
F-7.697
sg21
S'Tijw5yxxqg4iuygtqc7e2hhco5a'
p379
sg23
F0.276643
sg24
L6L
sg25
F0.472619405113
sg26
F6.3e-05
sa(dp380
g2
F0.336811
sg3
S'The Black Dahlia Murder'
p381
sg5
S'http://lh6.ggpht.com/3WyXXSw30T9ZhePnUr93-mqE9_hIqSArCM23V9jmXoV0LgtJzzm3X_PEFM6AVV-DsZG1jZES'
p382
sg7
F0.973737
sg8
S'Moonlight Equilibrium'
p383
sg10
F108.955
sg11
F0.079588
sg12
S'db47b36f-3cb0-3dd4-8550-9777d7f0f0a4'
p384
sg14
F3e-05
sg15
I4
sg16
F0.477216
sg17
F4.0
sg18
F2011.0
sg19
F208.4683
sg20
F-6.292
sg21
S'Tiqjo63otmb4x6oh5iogkrtbmo4'
p385
sg23
F0.328289
sg24
L6L
sg25
F0.380335878318
sg26
F0.878772
sa(dp386
g2
F0.098949
sg3
S'Brian Crain'
p387
sg5
S'http://lh4.ggpht.com/sqeLFogMoCJ9wVk-PTWaABFfkqjVZfiFGXpGbHQuTGZx_W1lE5z95Q8XiujwwOg3VzYpd07xj7I'
p388
sg7
F0.148782
sg8
S'Autumn - Dual Piano'
p389
sg10
F125.925
sg11
F0.038159
sg12
S'0e118798-e640-3d08-9bdc-f799480d7651'
p390
sg14
F0.978796
sg15
I1
sg16
F0.356202
sg17
F4.0
sg18
F2009.0
sg19
F265.46621
sg20
F-21.435
sg21
S'Ty2sfrtniriofkjs4lbojl64vsq'
p391
sg23
F0.151527
sg24
L6L
sg25
F0.553378844811
sg26
F0.892232
sa(dp392
g2
F0.111155
sg3
g387
sg5
S'http://lh4.ggpht.com/YWovItsp40uXrf9wFan0i-x5eiAneLkz7g74O1XlNu_VekGekgo-8bnOIBc97oIH2UCbSqLajA'
p393
sg7
F0.248191
sg8
S'White Dove'
p394
sg10
F100.067
sg11
F0.031263
sg12
S'babaa23b-b9a0-3232-a992-b8a09532937a'
p395
sg14
F0.789648
sg15
I4
sg16
F0.24073
sg17
F4.0
sg18
F2006.0
sg19
F186.41288
sg20
F-12.185
sg21
S'Tpvcyinqxziqhmykz37x3w5gqeu'
p396
sg23
F0.232742
sg24
L6L
sg25
F0.553378844811
sg26
F0.667771
sa(dp397
g2
F0.119636
sg3
g387
sg5
S'http://lh4.ggpht.com/I8xEhgNBQF2bGScDcTlHAfE9Igo-fJc9V8Df1GUX_4k2S00I5DmyazVK1bvb26dFWjluE4vl6g'
p398
sg7
F0.0807
sg8
S'Pastel Garden'
p399
sg10
F114.707
sg11
F0.038507
sg12
S'14382c26-fb68-324a-9800-3036083e4d53'
p400
sg14
F0.988842
sg15
I1
sg16
F0.437436
sg17
F3.0
sg18
F2011.0
sg19
F173.41823
sg20
F-22.448
sg21
S'Tfwgnvthsoswjk4m34s75jbyghi'
p401
sg23
F0.307531
sg24
L6L
sg25
F0.553378844811
sg26
F0.948228
sa(dp402
g2
F0.302008
sg3
S'Katie Sky'
p403
sg5
S'http://lh3.ggpht.com/uFV67xkYczYSsM814M6oiNdFLveWy4wkTEIvzwfIeDrREcLpn8plyAuI1q5V8NjoPUHBLjzqm48'
p404
sg7
F0.82051
sg8
S'Right Words'
p405
sg10
F135.0
sg11
F0.074995
sg12
S'4de0065f-8690-33ea-b8e8-6d8d6effe370'
p406
sg14
F0.0568
sg15
I3
sg16
F0.723309
sg17
F4.0
sg18
F2011.0
sg19
F206.72218
sg20
F-4.958
sg21
S'Tssksrds3zr7nbtjkrx52vpgjua'
p407
sg23
F0.559721
sg24
L6L
sg25
F0.489884858802
sg26
F1e-06
sa(dp408
g2
F0.329648
sg3
S'King Diamond'
p409
sg5
S'http://lh6.ggpht.com/F2OhDp6f06mnoW7XQ1Bq7396dexUMA0ArJ5tI953Q-7hBkW9UlN-0VZ9gPFVdOWN1dKQLQSkWj8'
p410
sg7
F0.941216
sg8
S'Never Ending Hill'
p411
sg10
F192.055
sg11
F0.042728
sg12
S'a39a59b1-0866-34bd-9e5b-676ad6659362'
p412
sg14
F0.000259
sg15
I0
sg16
F0.398205
sg17
F4.0
sg18
F2007.0
sg19
F276.77333
sg20
F-5.021
sg21
S'Tz27gfm4yr7u56tdto3jrsp53m4'
p413
sg23
F0.633262
sg24
L6L
sg25
F0.382461900079
sg26
F0.002794
sa(dp414
g2
F0.024467
sg3
S'Blank & Jones'
p415
sg5
S'http://lh5.ggpht.com/1somRZh1Ms3xRLEWmW4xHydX-jQZqhtuN3luE74lTw_ppdmROWElFpNJedJaKW50PvIm0FQOAO0'
p416
sg7
F0.758711
sg8
S'Breakout'
p417
sg10
F129.941
sg11
F0.057676
sg12
S'41e23b1c-f736-3f13-a789-7bb8e5b8dba6'
p418
sg14
F0.001884
sg15
I1
sg16
F0.786752
sg17
F4.0
sg18
F2008.0
sg19
F384.49955
sg20
F-5.447
sg21
S'Tdga52o4rhaqxfp6qqj5rityjju'
p419
sg23
F0.780387
sg24
L6L
sg25
F0.451393701203
sg26
F0.850039
sa(dp420
g2
F0.084694
sg3
S'The Staves'
p421
sg5
S'http://lh5.ggpht.com/OWCT2xIeY41CXtYijVFje8GPlt-w3-VLBYuj5WsioTXpiYzq-k4MK-3XTf4AEjnvZpVPsVDE1A'
p422
sg7
F0.117221
sg8
S'Mexico'
p423
sg10
F131.847
sg11
F0.034454
sg12
S'bb90d234-a742-33ad-9326-6d4707c9663a'
p424
sg14
F0.964347
sg15
I1
sg16
F0.558383
sg17
F4.0
sg18
F2012.0
sg19
F246.41374
sg20
F-16.958
sg21
S'Tj35g2xsma5gqeach3h3h6vx3be'
p425
sg23
F0.171579
sg24
L6L
sg25
F0.49402576793
sg26
F0.000686
sa(dp426
g2
F0.889599
sg3
S'Dr. Dog'
p427
sg5
S'http://lh3.ggpht.com/1h1bCAf0m-xshobe-sYh_1oOzoB7ccNotIyLZkwUZRlT9sBC0Bs-ZbpkrfoC3n1RMTAztVdLSg'
p428
sg7
F0.844234
sg8
S'Lonesome'
p429
sg10
F140.127
sg11
F0.136575
sg12
S'0b1d22a2-59fd-3a6f-b1c1-b68ec2fc8e49'
p430
sg14
F0.01839
sg15
I3
sg16
F0.423804
sg17
F4.0
sg18
F2012.0
sg19
F264.13188
sg20
F-7.082
sg21
S'Tn4uzj5akxqh3ubhm4nom3bkefu'
p431
sg23
F0.330515
sg24
L6L
sg25
F0.44277217852
sg26
F2.9e-05
sa(dp432
g2
F0.735992
sg3
g427
sg5
g428
sg7
F0.920479
sg8
S'Vampire'
p433
sg10
F145.645
sg11
F0.052382
sg12
S'57fa4aa3-0d8a-37e7-8b9e-19870f0f8caa'
p434
sg14
F0.172498
sg15
I3
sg16
F0.411746
sg17
F4.0
sg18
F2012.0
sg19
F266.69823
sg20
F-3.641
sg21
S'Thxtkgpyqu5fncfgp6lltucrxli'
p435
sg23
F0.557554
sg24
L6L
sg25
F0.44277217852
sg26
F0.000166
sa(dp436
g2
F0.060042
sg3
g427
sg5
g428
sg7
F0.816924
sg8
S'Do The Trick'
p437
sg10
F97.71
sg11
F0.029784
sg12
S'f784e2af-0ff3-3d91-9727-0d70e46d32b6'
p438
sg14
F0.182439
sg15
I4
sg16
F0.549465
sg17
F4.0
sg18
F2012.0
sg19
F272.44517
sg20
F-4.861
sg21
S'Trs44g52i72igzsxxdzr4m7hnba'
p439
sg23
F0.848776
sg24
L6L
sg25
F0.44277217852
sg26
F3e-06
sa(dp440
g2
F0.680955
sg3
g427
sg5
g428
sg7
F0.901423
sg8
S'That Old Black Hole'
p441
sg10
F97.366
sg11
F0.065156
sg12
S'76b729e9-4092-3bb4-8241-5f4c58a8d455'
p442
sg14
F0.001734
sg15
I4
sg16
F0.45891
sg17
F4.0
sg18
F2012.0
sg19
F228.32952
sg20
F-7.135
sg21
S'Tkxnmff3wwf564n257mghxzyfzy'
p443
sg23
F0.59184
sg24
L6L
sg25
F0.44277217852
sg26
F0.014862
sa(dp444
g2
F0.075545
sg3
S'San Fermin'
p445
sg5
S'http://lh6.ggpht.com/RGT_JMEK5jFKzFsXPX0Ox5Hqk-3f8AEwnXBUZwOHHv8mLWMVwF0cUMiqcYv-_TiHfsZ5I76_'
p446
sg7
F0.616872
sg8
S'Sonsick'
p447
sg10
F74.029
sg11
F0.064726
sg12
S'd3bdcf44-ea5d-33b7-be84-de42ecd8e60d'
p448
sg14
F0.017306
sg15
I2
sg16
F0.462577
sg17
F4.0
sg18
F2013.0
sg19
F273.37601
sg20
F-8.593
sg21
S'Tklm4dcphrupovws5kyeseyzvka'
p449
sg23
F0.527527
sg24
L6L
sg25
F0.50060709663
sg26
F2.9e-05
sa(dp450
g2
F0.084694
sg3
g421
sg5
S'http://lh6.ggpht.com/jNi1VOJQ652fI70r5uhsyOtxLaOCI0HxBS9lpgHDYjoLT_k7y0oBtswoUzl4FRoHmpaT6r9-Eg'
p451
sg7
F0.117221
sg8
g423
sg10
F131.847
sg11
F0.034454
sg12
S'3f73eece-5499-3608-81d0-adad439b2eea'
p452
sg14
F0.964347
sg15
I1
sg16
F0.558383
sg17
F4.0
sg18
F2011.0
sg19
F246.41374
sg20
F-16.958
sg21
S'Txzflomnxbdlhmmbnwjihwuhn3i'
p453
sg23
F0.171579
sg24
L6L
sg25
F0.49402576793
sg26
F0.000686
sa(dp454
g2
F0.090198
sg3
S"Umphrey's McGee"
p455
sg5
S'http://lh3.ggpht.com/QoupF-KouAWPKldwsD0k9nWRjtP9yWG72FAX5m2874ZmhfACmSBxeyJYWMoFV8A7X_RjGkQC'
p456
sg7
F0.715897
sg8
S'Turn and Dub'
p457
sg10
F90.023
sg11
F0.040442
sg12
S'99b009eb-3da9-3272-88d6-12cd7e93704d'
p458
sg14
F0.025117
sg15
I4
sg16
F0.712105
sg17
F4.0
sg18
F2011.0
sg19
F455.61333
sg20
F-6.125
sg21
S'Tgszg7yvv77hghldmo7mcezfcou'
p459
sg23
F0.533935
sg24
L6L
sg25
F0.415381464026
sg26
F0.045025
sa(dp460
g2
F0.13177
sg3
g455
sg5
g456
sg7
F0.443365
sg8
S'Jajunk>'
p461
sg10
F131.638
sg11
F0.03644
sg12
S'ee5cae07-3f6a-3e38-9066-d97f0e6ed394'
p462
sg14
F0.162648
sg15
I1
sg16
F0.455793
sg17
F3.0
sg18
F2011.0
sg19
F788.15447
sg20
F-18.827
sg21
S'Tgcmz362ble3n4uh52lxcnrntcu'
p463
sg23
F0.350895
sg24
L6L
sg25
F0.415381464026
sg26
F0.792072
sa(dp464
g2
F0.673882
sg3
g455
sg5
g456
sg7
F0.501421
sg8
S'Glory'
p465
sg10
F102.361
sg11
F0.031955
sg12
S'6b6c07fc-b85a-348a-ac33-5b413df063c4'
p466
sg14
F0.35736
sg15
I4
sg16
F0.291331
sg17
F4.0
sg18
F2011.0
sg19
F296.33261
sg20
F-13.653
sg21
S'Tp43l5gihqgq3fqcj753k26pmxa'
p467
sg23
F0.176022
sg24
L6L
sg25
F0.415381464026
sg26
F0.828454
sa(dp468
g2
F0.089518
sg3
g455
sg5
g456
sg7
F0.260017
sg8
S'Deeper'
p469
sg10
F88.036
sg11
F0.057939
sg12
S'f77b2a20-fddb-36b5-aa09-142cbf5390b1'
p470
sg14
F0.106969
sg15
I2
sg16
F0.773756
sg17
F4.0
sg18
F2011.0
sg19
F225.17506
sg20
F-18.455
sg21
S'Tnqlagmnu2behg4olm5hkjo7awu'
p471
sg23
F0.769306
sg24
L6L
sg25
F0.415381464026
sg26
F0.006053
sa(dp472
g2
F0.716392
sg3
g455
sg5
g456
sg7
F0.723258
sg8
S'The Fussy Dutchman'
p473
sg10
F149.397
sg11
F0.040254
sg12
S'e4ccdfde-ea7d-318e-8f90-1e10b5c7f275'
p474
sg14
F0.249457
sg15
I3
sg16
F0.27866
sg17
F4.0
sg18
F2011.0
sg19
F455.92336
sg20
F-11.628
sg21
S'Ts4wqjnnwus2axozyfv4ekkovba'
p475
sg23
F0.448044
sg24
L6L
sg25
F0.415381464026
sg26
F0.747088
sa(dp476
g2
F0.245253
sg3
g455
sg5
g456
sg7
F0.537843
sg8
S'2x2'
p477
sg10
F101.989
sg11
F0.034254
sg12
S'f9785e64-90d4-33ac-919f-c95d3b7d6876'
p478
sg14
F0.01439
sg15
I4
sg16
F0.402734
sg17
F4.0
sg18
F2011.0
sg19
F695.78549
sg20
F-12.948
sg21
S'Tah2nnuunlnsobep3pj6oioot7i'
p479
sg23
F0.187079
sg24
L6L
sg25
F0.415381464026
sg26
F0.054119
sa(dp480
g2
F0.89807
sg3
g455
sg5
g456
sg7
F0.573315
sg8
S'All In Time LIVE'
p481
sg10
F143.616
sg11
F0.067211
sg12
S'103e768a-f78d-336b-ae49-dac53dc431ac'
p482
sg14
F0.020146
sg15
I3
sg16
F0.356015
sg17
F4.0
sg18
F2011.0
sg19
F1061.48526
sg20
F-17.274
sg21
S'Tley2hr2t6pfw56uxy7d7elmqle'
p483
sg23
F0.471832
sg24
L6L
sg25
F0.415381464026
sg26
F0.693941
sa(dp484
g2
F0.89807
sg3
g455
sg5
g456
sg7
F0.573315
sg8
g481
sg10
F143.616
sg11
F0.067211
sg12
S'014095ed-48c9-3347-a472-2a3e5938b1ee'
p485
sg14
F0.020146
sg15
I3
sg16
F0.356015
sg17
F4.0
sg18
F2011.0
sg19
F1061.48526
sg20
F-17.274
sg21
S'Tgvdb3uyeqcfkwyi3rcgrizbcdq'
p486
sg23
F0.471832
sg24
L6L
sg25
F0.415381464026
sg26
F0.693941
sa(dp487
g2
F0.13177
sg3
g455
sg5
g456
sg7
F0.443365
sg8
g461
sg10
F131.638
sg11
F0.03644
sg12
S'a029190c-dcbf-3689-9c79-7b959d53ccb7'
p488
sg14
F0.162648
sg15
I1
sg16
F0.455793
sg17
F3.0
sg18
F2011.0
sg19
F788.15447
sg20
F-18.827
sg21
S'Tmrlfhqrf26q5eewzmkdgiquin4'
p489
sg23
F0.350895
sg24
L6L
sg25
F0.415381464026
sg26
F0.792072
sa(dp490
g2
F0.736986
sg3
g455
sg5
g456
sg7
F0.415023
sg8
S'Hajimemashite'
p491
sg10
F103.378
sg11
F0.036912
sg12
S'9e13b90b-715e-37d6-a826-de5d0e13c045'
p492
sg14
F0.8367
sg15
I4
sg16
F0.302663
sg17
F4.0
sg18
F2011.0
sg19
F518.60853
sg20
F-21.119
sg21
S'Teuh3wh2cvg2h7sofcqstw4nw2a'
p493
sg23
F0.357704
sg24
L6L
sg25
F0.415381464026
sg26
F0.643514
sa(dp494
g2
F0.176214
sg3
g455
sg5
g456
sg7
F0.619352
sg8
S'The Triple Wide >'
p495
sg10
F121.87
sg11
F0.036965
sg12
S'fa2288db-0d30-3e5a-a958-4f8444715ba6'
p496
sg14
F0.434324
sg15
I1
sg16
F0.482606
sg17
F4.0
sg18
F2011.0
sg19
F560.15773
sg20
F-15.034
sg21
S'Tzuxpw42yddukwgabcm6lq4kkly'
p497
sg23
F0.558575
sg24
L6L
sg25
F0.415381464026
sg26
F0.880747
sa(dp498
g2
F0.245253
sg3
g455
sg5
g456
sg7
F0.537843
sg8
g477
sg10
F101.989
sg11
F0.034254
sg12
S'5003d10c-e367-37a8-a5d4-e120b450ed39'
p499
sg14
F0.01439
sg15
I4
sg16
F0.402734
sg17
F4.0
sg18
F2011.0
sg19
F695.78549
sg20
F-12.948
sg21
S'Temjqwb6oqmf7b7yqpm3qjokzve'
p500
sg23
F0.187079
sg24
L6L
sg25
F0.415381464026
sg26
F0.054119
sa(dp501
g2
F0.672494
sg3
g455
sg5
g456
sg7
F0.791328
sg8
S'Layla (Live)'
p502
sg10
F112.972
sg11
F0.037449
sg12
S'f2ce1b60-e5ad-30e9-a635-0bb013c2228d'
p503
sg14
F0.217912
sg15
I1
sg16
F0.390743
sg17
F4.0
sg18
F2011.0
sg19
F446.62667
sg20
F-6.175
sg21
S'Tp5gkhyvax3q5h77woatw73isa4'
p504
sg23
F0.362721
sg24
L6L
sg25
F0.415381464026
sg26
F0.764743
sa(dp505
g2
F0.122302
sg3
g455
sg5
g456
sg7
F0.621438
sg8
S'End Of The Road'
p506
sg10
F99.269
sg11
F0.0318
sg12
S'572b60f2-f470-32b9-b1eb-7c7cd58ec202'
p507
sg14
F0.88532
sg15
I4
sg16
F0.257019
sg17
F4.0
sg18
F2011.0
sg19
F186.57288
sg20
F-10.007
sg21
S'Teujkcw7uzw3daz7m6tuhwcelpa'
p508
sg23
F0.334279
sg24
L6L
sg25
F0.415381464026
sg26
F0.944632
sa(dp509
g2
F0.465085
sg3
g455
sg5
g456
sg7
F0.585189
sg8
S'August'
p510
sg10
F103.688
sg11
F0.031755
sg12
S'6ff8d930-cb6a-3c1e-8105-b2cf1bb9c35c'
p511
sg14
F0.594032
sg15
I4
sg16
F0.467086
sg17
F4.0
sg18
F2011.0
sg19
F467.32435
sg20
F-15.271
sg21
S'Txxmsirkrbfyqsrduztcufnu3ai'
p512
sg23
F0.468435
sg24
L6L
sg25
F0.415381464026
sg26
F0.675192
sa(dp513
g2
F0.847409
sg3
g455
sg5
g456
sg7
F0.509892
sg8
S"Partyin' Peeps"
p514
sg10
F98.65
sg11
F0.040628
sg12
S'ada5a566-f7f3-3425-b292-314c564311ce'
p515
sg14
F0.372976
sg15
I4
sg16
F0.569149
sg17
F4.0
sg18
F2011.0
sg19
F473.36154
sg20
F-16.238
sg21
S'Tfcyv6jbnorjy5sr5uqsvalw2bq'
p516
sg23
F0.531608
sg24
L6L
sg25
F0.415381464026
sg26
F0.578872
sa(dp517
g2
F0.312415
sg3
S'Satellite Stories'
p518
sg5
S'http://lh3.ggpht.com/Dvud53Xt33HeWo814zqMhLhiLP9a2u3Uyx_umYdcgJkXvjXM2xB3xvcIVBMUb-6cpW0jg6hO'
p519
sg7
F0.622066
sg8
S'Campfire'
p520
sg10
F155.88
sg11
F0.07533
sg12
S'b5e6270a-6560-3b8f-9add-6cc6bae256bf'
p521
sg14
F0.002271
sg15
I3
sg16
F0.44273
sg17
F4.0
sg18
F2014.0
sg19
F207.80032
sg20
F-7.072
sg21
S'Tutfylibfzg5ahgvalq53ez34za'
p522
sg23
F0.31396
sg24
L6L
sg25
F0.532878507099
sg26
F0.00147
sa(dp523
g2
F0.361451
sg3
S'Nick Lowe'
p524
sg5
S'http://lh6.ggpht.com/OXUI3_ccrbc2Q0yUzxlBzjZkTP8byUOVRIE5xF4Yws6_7LF4H6NeAx-d4viAZMT2A5Cfjvf0brw'
p525
sg7
F0.203148
sg8
S'Stoplight Roses'
p526
sg10
F152.363
sg11
F0.033896
sg12
S'e182e068-a1c6-3975-b751-726da149963e'
p527
sg14
F0.878124
sg15
I3
sg16
F0.426048
sg17
F3.0
sg18
F2011.0
sg19
F208.14621
sg20
F-13.604
sg21
S'Tipmjhn7ledecwbblvazwx25fiu'
p528
sg23
F0.20272
sg24
L6L
sg25
F0.3952684428
sg26
F0.000148
sa(dp529
g2
F0.097418
sg3
g524
sg5
g525
sg7
F0.556249
sg8
S'Sensitive Man'
p530
sg10
F134.147
sg11
F0.039176
sg12
S'c887e9be-7c21-30dd-8508-f75ec6377a53'
p531
sg14
F0.450265
sg15
I1
sg16
F0.749502
sg17
F4.0
sg18
F2011.0
sg19
F172.34621
sg20
F-8.872
sg21
S'T55pcf6qvbflbbwirn5bryp6hwa'
p532
sg23
F0.668804
sg24
L6L
sg25
F0.3952684428
sg26
F0.225798
sa(dp533
g2
F0.751581
sg3
g455
sg5
S'http://lh3.ggpht.com/eHbRnjDBLR_i-zjiAYChmA5issATnGmDju5cF5WpfuKBbVmqVemX5URpzFxrIJ8rxj3QDybETg'
p534
sg7
F0.921286
sg8
S'Come As Your Kids (10/29/11 Atlanta  Georgia)'
p535
sg10
F127.017
sg11
F0.056658
sg12
S'ecdec6fc-265b-32ae-aa8d-f695e76b1fd3'
p536
sg14
F0.049181
sg15
I1
sg16
F0.277751
sg17
F4.0
sg18
F2011.0
sg19
F606.54395
sg20
F-5.38
sg21
S'Ty33cht5rkgocao4a2bfr5jif5i'
p537
sg23
F0.314592
sg24
L6L
sg25
F0.415381464026
sg26
F0.009953
sa(dp538
g2
F0.141208
sg3
g455
sg5
g534
sg7
F0.599522
sg8
S'Pay the Snucka'
p539
sg10
F113.541
sg11
F0.094706
sg12
S'ca4205a5-7ad8-3523-b0b2-c130d59d30d9'
p540
sg14
F0.599863
sg15
I1
sg16
F0.415488
sg17
F4.0
sg18
F2011.0
sg19
F511.21007
sg20
F-15.268
sg21
S'Tbp6sjdht5gj3n22nkbva6ivwoi'
p541
sg23
F0.135295
sg24
L6L
sg25
F0.415381464026
sg26
F0.724698
sa(dp542
g2
F0.900277
sg3
g455
sg5
g534
sg7
F0.478125
sg8
S'Ringo'
p543
sg10
F98.589
sg11
F0.054291
sg12
S'bbce6e31-2af6-390f-b40b-adb82ffc4523'
p544
sg14
F0.622379
sg15
I4
sg16
F0.504299
sg17
F4.0
sg18
F2011.0
sg19
F311.4488
sg20
F-19.534
sg21
S'T2cur7mm3vmxqfjtuaplllded3q'
p545
sg23
F0.601321
sg24
L6L
sg25
F0.415381464026
sg26
F0.398542
sa(dp546
g2
F0.141208
sg3
g455
sg5
g534
sg7
F0.599522
sg8
g539
sg10
F113.541
sg11
F0.094706
sg12
S'31cdf476-8169-35e5-97df-afd72bdf87d9'
p547
sg14
F0.599863
sg15
I1
sg16
F0.415488
sg17
F4.0
sg18
F2011.0
sg19
F511.21007
sg20
F-15.268
sg21
S'Tmwwaysn42qnajdznrce64iblhe'
p548
sg23
F0.135295
sg24
L6L
sg25
F0.415381464026
sg26
F0.724698
sa(dp549
g2
F0.176144
sg3
g455
sg5
g534
sg7
F0.548299
sg8
S'Hurt Bird Bath'
p550
sg10
F137.597
sg11
F0.041686
sg12
S'13459492-7de0-3d5f-965a-8f122f26cf27'
p551
sg14
F0.483828
sg15
I3
sg16
F0.426143
sg17
F4.0
sg18
F2011.0
sg19
F1034.40209
sg20
F-17.829
sg21
S'T5f5m5lqxq7l3m77ouvkiheqsri'
p552
sg23
F0.602635
sg24
L6L
sg25
F0.415381464026
sg26
F0.804425
sa(dp553
g2
F0.951079
sg3
g455
sg5
g534
sg7
F0.622982
sg8
S'Bridgeless'
p554
sg10
F105.99
sg11
F0.052487
sg12
S'c227bff2-a817-3135-a896-aa2abc97bf07'
p555
sg14
F0.113679
sg15
I4
sg16
F0.554666
sg17
F4.0
sg18
F2011.0
sg19
F564.13995
sg20
F-16.22
sg21
S'Trm2lbqjlcdlkwqsst3gxwwu2vi'
p556
sg23
F0.351475
sg24
L6L
sg25
F0.415381464026
sg26
F0.001667
sa(dp557
g2
F0.89807
sg3
g455
sg5
g534
sg7
F0.573315
sg8
g481
sg10
F143.616
sg11
F0.067211
sg12
S'bfdb686b-b677-38fc-abc7-745fecfd55f2'
p558
sg14
F0.020146
sg15
I3
sg16
F0.356015
sg17
F4.0
sg18
F2011.0
sg19
F1061.48526
sg20
F-17.274
sg21
S'Tvotbk2m27ndxticwwxakcdz5nu'
p559
sg23
F0.471832
sg24
L6L
sg25
F0.415381464026
sg26
F0.693941
sa(dp560
g2
F0.308845
sg3
g455
sg5
g534
sg7
F0.50215
sg8
S'The Haunt'
p561
sg10
F102.256
sg11
F0.032281
sg12
S'e8839246-3599-3363-b435-e0231bb207af'
p562
sg14
F0.181945
sg15
I4
sg16
F0.430221
sg17
F4.0
sg18
F2011.0
sg19
F645.39819
sg20
F-13.403
sg21
S'T26h2itwwzyxwqaiuwladbmwrhm'
p563
sg23
F0.118054
sg24
L6L
sg25
F0.415381464026
sg26
F0.753941
sa(dp564
g2
F0.673882
sg3
g455
sg5
g534
sg7
F0.501421
sg8
g465
sg10
F102.361
sg11
F0.031955
sg12
S'93184f6c-cfeb-3fa8-a040-c81fcf2e2125'
p565
sg14
F0.35736
sg15
I4
sg16
F0.291331
sg17
F4.0
sg18
F2011.0
sg19
F296.33261
sg20
F-13.653
sg21
S'Tmq3izaxk2oh535wz74x22pufri'
p566
sg23
F0.176022
sg24
L6L
sg25
F0.415381464026
sg26
F0.828454
sa(dp567
g2
F0.89807
sg3
g455
sg5
g534
sg7
F0.573315
sg8
g481
sg10
F143.616
sg11
F0.067211
sg12
S'06be1140-39ba-321a-8fca-5a8a504ff5d9'
p568
sg14
F0.020146
sg15
I3
sg16
F0.356015
sg17
F4.0
sg18
F2011.0
sg19
F1061.48526
sg20
F-17.274
sg21
S'Trfin643yfv4vfntbl2fbfog4d4'
p569
sg23
F0.471832
sg24
L6L
sg25
F0.415381464026
sg26
F0.693941
sa(dp570
g2
F0.147927
sg3
g455
sg5
g534
sg7
F0.828804
sg8
S'The Linear'
p571
sg10
F166.85
sg11
F0.040237
sg12
S'a2d6d1ee-dbd0-3e30-97ef-e7e177952cf6'
p572
sg14
F0.424319
sg15
I0
sg16
F0.308665
sg17
F4.0
sg18
F2011.0
sg19
F491.89288
sg20
F-11.303
sg21
S'Tltrnxcu6aru5uxauveqxnx6p5y'
p573
sg23
F0.589495
sg24
L6L
sg25
F0.415381464026
sg26
F0.784653
sa(dp574
g2
F0.119825
sg3
g455
sg5
g534
sg7
F0.311775
sg8
S'Mantis'
p575
sg10
F100.362
sg11
F0.032594
sg12
S'1dd9d6ca-54ee-3ad1-a175-433da00327e7'
p576
sg14
F0.336935
sg15
I4
sg16
F0.332457
sg17
F4.0
sg18
F2011.0
sg19
F740.77995
sg20
F-20.42
sg21
S'Tpusym3prh3zvqshdryi6ofn3yq'
p577
sg23
F0.274851
sg24
L6L
sg25
F0.415381464026
sg26
F0.661014
sa(dp578
g2
F0.119825
sg3
g455
sg5
g534
sg7
F0.311775
sg8
g575
sg10
F100.362
sg11
F0.032594
sg12
S'c2197aab-467f-35fa-ab74-53a928dbed26'
p579
sg14
F0.336935
sg15
I4
sg16
F0.332457
sg17
F4.0
sg18
F2011.0
sg19
F740.77995
sg20
F-20.42
sg21
S'Tdgnicopxkrbcipuwlnqyfwy3lq'
p580
sg23
F0.274851
sg24
L6L
sg25
F0.415381464026
sg26
F0.661014
sa(dp581
g2
F0.938948
sg3
g455
sg5
g456
sg7
F0.757323
sg8
S'Immigrant Song'
p582
sg10
F111.465
sg11
F0.058713
sg12
S'e064d832-7836-37b2-951a-d392477205b9'
p583
sg14
F0.612588
sg15
I4
sg16
F0.478219
sg17
F4.0
sg18
F2011.0
sg19
F244.80753
sg20
F-13.251
sg21
S'Tkkx3plyhc4mm2y3tncu2pq2a74'
p584
sg23
F0.260446
sg24
L6L
sg25
F0.415381464026
sg26
F0.016244
sa(dp585
g2
F0.115687
sg3
S'Khamelijon'
p586
sg5
S'http://lh3.ggpht.com/lY24viAjw-HAh5-zt8UJMxe2-NmYaNb-f9bcS3NcIYUg2d_p8dYr-z8punRYKoPTbkNPkzrDGw'
p587
sg7
F0.708675
sg8
S'Useless Music (Remix)'
p588
sg10
F121.96
sg11
F0.235667
sg12
S'b53485d9-9c05-360e-bb3d-79a6300b1a57'
p589
sg14
F0.371095
sg15
I1
sg16
F0.895519
sg17
F4.0
sg18
F2012.0
sg19
F206.28961
sg20
F-7.503
sg21
S'Tzieuo3oyozkx2oq6jncsc5femq'
p590
sg23
F0.833276
sg24
L6L
sg25
F0.232344793957
sg26
F1.2e-05
sa(dp591
g2
F0.980844
sg3
g455
sg5
S'http://lh3.ggpht.com/QG2C8i7ywY9rc8jqlYHL44p5g3AD5hGKOmTvY2PCvrd1waKI0sB_lRfx2ywXP-SxlO5u5IUgAQ'
p592
sg7
F0.501346
sg8
S'The Bottom Half'
p593
sg10
F96.632
sg11
F0.041055
sg12
S'8a2b6052-c7f5-3e3a-8938-44c73c54cb70'
p594
sg14
F0.434847
sg15
I4
sg16
F0.50809
sg17
F4.0
sg18
F2010.0
sg19
F481.23311
sg20
F-13.135
sg21
S'Tpargiezibsp6mqvm4mh7hwl5aa'
p595
sg23
F0.222856
sg24
L6L
sg25
F0.415381464026
sg26
F0.635267
sa(dp596
g2
F0.38418
sg3
g455
sg5
g592
sg7
F0.600401
sg8
S"Phil's Farm>"
p597
sg10
F140.263
sg11
F0.039546
sg12
S'9643ae14-ae6a-3f6f-b901-e8bb946adac1'
p598
sg14
F0.03341
sg15
I3
sg16
F0.412459
sg17
F4.0
sg18
F2010.0
sg19
F768.06921
sg20
F-20.44
sg21
S'T44nmjmm4pexhyf6sfonx3nzjdq'
p599
sg23
F0.424761
sg24
L6L
sg25
F0.415381464026
sg26
F0.773308
sa(dp600
g2
F0.101423
sg3
g455
sg5
g592
sg7
F0.693003
sg8
S'Intentions Clear'
p601
sg10
F106.071
sg11
F0.054087
sg12
S'327cfea0-9af3-3e3b-be71-a5d1d202db39'
p602
sg14
F0.080508
sg15
I4
sg16
F0.664405
sg17
F4.0
sg18
F2010.0
sg19
F350.83955
sg20
F-8.996
sg21
S'Tirsmmr55ij5hxtsgztp6x4uecm'
p603
sg23
F0.324325
sg24
L6L
sg25
F0.415381464026
sg26
F0.020218
sa(dp604
g2
F0.279192
sg3
g455
sg5
g592
sg7
F0.355198
sg8
S'Hangover'
p605
sg10
F88.255
sg11
F0.081615
sg12
S'6700324e-35c4-3d00-8356-7a59bc149af8'
p606
sg14
F0.747004
sg15
I2
sg16
F0.512707
sg17
F4.0
sg18
F2010.0
sg19
F528.50893
sg20
F-16.325
sg21
S'Teihafjesqcvrfiomn5gvp4mmsa'
p607
sg23
F0.379441
sg24
L6L
sg25
F0.415381464026
sg26
F0.031291
sa(dp608
g2
F0.788278
sg3
g455
sg5
g592
sg7
F0.58344
sg8
S'Much Obliged'
p609
sg10
F101.51
sg11
F0.034249
sg12
S'1af4f184-74f2-392e-9a04-87a9fbc5b63c'
p610
sg14
F0.75886
sg15
I4
sg16
F0.524255
sg17
F4.0
sg18
F2010.0
sg19
F582.30957
sg20
F-16.362
sg21
S'T73xcbls4pgnggrogt5jxkd4qam'
p611
sg23
F0.518425
sg24
L6L
sg25
F0.415381464026
sg26
F0.771327
sa(dp612
g2
F0.183813
sg3
g455
sg5
g592
sg7
F0.272611
sg8
S'Turn & Dub'
p613
sg10
F90.98
sg11
F0.042545
sg12
S'0da43a36-f019-3fbc-bde9-50ac1fd54808'
p614
sg14
F0.451601
sg15
I2
sg16
F0.463462
sg17
F4.0
sg18
F2010.0
sg19
F641.56689
sg20
F-21.349
sg21
S'Tdljeivdexuvhf4dhkynpii7qzq'
p615
sg23
F0.35678
sg24
L6L
sg25
F0.415381464026
sg26
F0.440392
sa(dp616
g2
F0.830528
sg3
g455
sg5
g592
sg7
F0.419735
sg8
S"Can't You Hear Me Knocking"
p617
sg10
F76.738
sg11
F0.033052
sg12
S'895b8022-36dc-3731-b695-f01af7f175cf'
p618
sg14
F0.600867
sg15
I2
sg16
F0.502976
sg17
F4.0
sg18
F2010.0
sg19
F598.04689
sg20
F-18.35
sg21
S'Ttujmvyh3wr3oum7vfuuxpl7fiy'
p619
sg23
F0.764377
sg24
L6L
sg25
F0.415381464026
sg26
F0.413587
sa(dp620
g2
F0.173991
sg3
g455
sg5
g592
sg7
F0.203923
sg8
S'Intro...'
p621
sg10
F112.554
sg11
F0.037354
sg12
S'8c8cd4ce-3020-3038-99be-71d89d674460'
p622
sg14
F0.976239
sg15
I1
sg16
F0.337736
sg17
F4.0
sg18
F2010.0
sg19
F172.73279
sg20
F-19.451
sg21
S'Th3anhp26etkb65tycvozhdvj4e'
p623
sg23
F0.154083
sg24
L6L
sg25
F0.415381464026
sg26
F0.866681
sa(dp624
g2
F0.314058
sg3
g455
sg5
g592
sg7
F0.428849
sg8
S'Resolution >'
p625
sg10
F102.095
sg11
F0.035106
sg12
S'10144241-7785-3715-bbdd-e5849031b135'
p626
sg14
F0.007328
sg15
I4
sg16
F0.569002
sg17
F4.0
sg18
F2010.0
sg19
F622.94449
sg20
F-14.594
sg21
S'Trpbyujctgc5nidfe5y5n5evuzy'
p627
sg23
F0.173302
sg24
L6L
sg25
F0.415381464026
sg26
F0.449843
sa(dp628
g2
F0.286774
sg3
g455
sg5
g592
sg7
F0.550725
sg8
S"White Man's Moccasins"
p629
sg10
F101.418
sg11
F0.030733
sg12
S'5bf8dfd2-101b-3a30-836b-e26ad1fc9f80'
p630
sg14
F0.604852
sg15
I4
sg16
F0.30642
sg17
F4.0
sg18
F2010.0
sg19
F713.89995
sg20
F-17.898
sg21
S'Tk7uttu3fv7dg7ckowvpqi6my54'
p631
sg23
F0.36211
sg24
L6L
sg25
F0.415381464026
sg26
F0.873684
sa(dp632
g2
F0.305397
sg3
g455
sg5
g592
sg7
F0.838886
sg8
S"Mulche's Odyssey"
p633
sg10
F142.801
sg11
F0.04373
sg12
S'8cfaa0a0-b10c-325d-bf3a-8e667e76ea49'
p634
sg14
F0.094172
sg15
I3
sg16
F0.435973
sg17
F4.0
sg18
F2010.0
sg19
F298.49288
sg20
F-7.342
sg21
S'Tox2getzjcpixegxbzjhs64cxeu'
p635
sg23
F0.574904
sg24
L6L
sg25
F0.415381464026
sg26
F0.025991
sa(dp636
g2
F0.135682
sg3
g455
sg5
g592
sg7
F0.504275
sg8
S"Alex's House"
p637
sg10
F96.214
sg11
F0.032426
sg12
S'2e1cd307-afdf-347d-9061-91709d4b7776'
p638
sg14
F0.451504
sg15
I4
sg16
F0.595478
sg17
F4.0
sg18
F2010.0
sg19
F316.11601
sg20
F-15.653
sg21
S'T4akcxqxgtx5vaz7nvnnk5s2ig4'
p639
sg23
F0.328381
sg24
L6L
sg25
F0.415381464026
sg26
F0.204085
sa(dp640
g2
F0.07632
sg3
g455
sg5
g592
sg7
F0.94506
sg8
S'The Floor'
p641
sg10
F143.236
sg11
F0.062742
sg12
S'7e270619-88c4-314e-8fc1-22f3a3ded1bc'
p642
sg14
F0.00375
sg15
I3
sg16
F0.413496
sg17
F4.0
sg18
F2010.0
sg19
F330.10621
sg20
F-7.179
sg21
S'Txsye3fbydhws7ki2wipcpevivm'
p643
sg23
F0.437949
sg24
L6L
sg25
F0.415381464026
sg26
F0.284784
sa(dp644
g2
F0.132585
sg3
g455
sg5
g592
sg7
F0.49399
sg8
S'Words'
p645
sg10
F109.634
sg11
F0.029246
sg12
S'6769719d-4bf2-3cbb-981e-5fa49b4a9392'
p646
sg14
F0.605677
sg15
I4
sg16
F0.350039
sg17
F4.0
sg18
F2010.0
sg19
F520.18621
sg20
F-10.841
sg21
S'T324cxjjqn2jbhipopbuylmxyvy'
p647
sg23
F0.177524
sg24
L6L
sg25
F0.415381464026
sg26
F0.006573
sa(dp648
g2
F0.119457
sg3
S'Hey Rosetta!'
p649
sg5
S'http://lh3.ggpht.com/XVb2dGKDxexLUPRMJFVHgxTqgtulZPWKmmqrCMKtCVepCgogEm64s7Pf0fWSDsqtZ65UyAmfMg'
p650
sg7
F0.866346
sg8
S'Soft Offering (For the Oft Suffering)'
p651
sg10
F126.022
sg11
F0.069092
sg12
S'b53be5fb-2efa-3b19-a376-50090b47dcc0'
p652
sg14
F0.072264
sg15
I1
sg16
F0.543584
sg17
F4.0
sg18
F2014.0
sg19
F237.84
sg20
F-6.424
sg21
S'Tshblfrfi5pzny2naradgzvust4'
p653
sg23
F0.241175
sg24
L6L
sg25
F0.496795028709
sg26
F1e-06
sa(dp654
g2
F0.063295
sg3
S'Quadron'
p655
sg5
S'http://lh6.ggpht.com/a4NELcNmRZW0qZvREtmOWke6ygACW-L0__9YAfCYOG9oOpP1qNfC5WqYHOBtSV36lLfRYKtu81Y'
p656
sg7
F0.373179
sg8
S'Buster Keaton'
p657
sg10
F105.046
sg11
F0.065761
sg12
S'a543994d-2f8a-34fe-9653-c1711f799f36'
p658
sg14
F0.498667
sg15
I4
sg16
F0.861227
sg17
F4.0
sg18
F2011.0
sg19
F235.42621
sg20
F-8.991
sg21
S'Trsgyc7dc5zbxrsrycna5l2p47e'
p659
sg23
F0.411938
sg24
L6L
sg25
F0.491559266938
sg26
F1e-06
sa(dp660
g2
F0.121778
sg3
g655
sg5
g656
sg7
F0.329753
sg8
S'Day'
p661
sg10
F159.968
sg11
F0.03839
sg12
S'fc037a8f-8128-3bb2-95d1-055b8197e860'
p662
sg14
F0.833324
sg15
I3
sg16
F0.254012
sg17
F4.0
sg18
F2011.0
sg19
F207.62621
sg20
F-14.255
sg21
S'Tnxszrzkdyxdesl76j57knbgl64'
p663
sg23
F0.103951
sg24
L6L
sg25
F0.491559266938
sg26
F0.191495
sa(dp664
g2
F0.045516
sg3
g655
sg5
g656
sg7
F0.285891
sg8
S'Jeans'
p665
sg10
F85.915
sg11
F0.146776
sg12
S'de13eb15-96b2-3685-ab57-4f8a3ca1d024'
p666
sg14
F0.58492
sg15
I2
sg16
F0.598226
sg17
F4.0
sg18
F2011.0
sg19
F205.05288
sg20
F-10.48
sg21
S'Tscwudgti7z65qnkwlanepni4hy'
p667
sg23
F0.836654
sg24
L6L
sg25
F0.491559266938
sg26
F5e-06
sa(dp668
g2
F0.076116
sg3
g655
sg5
g656
sg7
F0.467486
sg8
S'Pressure'
p669
sg10
F118.031
sg11
F0.060141
sg12
S'22ce45cb-35d8-353f-86ce-902a2b4cc400'
p670
sg14
F0.646962
sg15
I1
sg16
F0.781883
sg17
F4.0
sg18
F2011.0
sg19
F205.42621
sg20
F-8.58
sg21
S'Ta7pdtpg2l5zzunf2zgosq753qy'
p671
sg23
F0.77116
sg24
L6L
sg25
F0.491559266938
sg26
F0.000186
sa(dp672
g2
F0.146218
sg3
S'Highly Explosive'
p673
sg5
Fnan
sg7
F0.488703
sg8
S'Crash Landing'
p674
sg10
F105.022
sg11
F0.025547
sg12
S'4c7493b2-462b-36db-92cc-d4d8cf906217'
p675
sg14
F0.472817
sg15
I4
sg16
F0.62036
sg17
F4.0
sg18
F2009.0
sg19
F251.99955
sg20
F-11.744
sg21
S'T7h355yva5qgwuopwkifqmnzoui'
p676
sg23
F0.547062
sg24
L6L
sg25
F0.259683304522
sg26
F0.000344
sa(dp677
g2
F0.350251
sg3
g673
sg5
Fnan
sg7
F0.601133
sg8
S'All Stars'
p678
sg10
F89.864
sg11
F0.044683
sg12
S'f402fc85-ec38-3dde-83af-45b771bb31bb'
p679
sg14
F0.01265
sg15
I4
sg16
F0.300565
sg17
F4.0
sg18
F2009.0
sg19
F320.79955
sg20
F-12.188
sg21
S'Tdditgrcoicjhzloebx7kxt2jsq'
p680
sg23
F0.379127
sg24
L6L
sg25
F0.259683304522
sg26
F6e-06
sa(dp681
g2
F0.190513
sg3
g673
sg5
Fnan
sg7
F0.317244
sg8
S'Protected'
p682
sg10
F100.019
sg11
F0.026608
sg12
S'ca776b59-2573-3941-b493-48cee4419da4'
p683
sg14
F0.621716
sg15
I4
sg16
F0.596651
sg17
F4.0
sg18
F2009.0
sg19
F251.55955
sg20
F-12.895
sg21
S'Teqbxvnk45yd6dtri7gzmv2z2f4'
p684
sg23
F0.236286
sg24
L6L
sg25
F0.259683304522
sg26
F1e-06
sa(dp685
g2
F0.107502
sg3
g673
sg5
Fnan
sg7
F0.412081
sg8
S'Not For Sale'
p686
sg10
F90.021
sg11
F0.033248
sg12
S'b637f25d-168d-345c-ae87-907a1fa31848'
p687
sg14
F0.000214
sg15
I2
sg16
F0.545928
sg17
F4.0
sg18
F2009.0
sg19
F271.99955
sg20
F-14.907
sg21
S'Txxkxkboomhpfmediss2vr66l74'
p688
sg23
F0.658094
sg24
L6L
sg25
F0.259683304522
sg26
F0.000504
sa(dp689
g2
F0.128515
sg3
g673
sg5
Fnan
sg7
F0.221765
sg8
S'Set You Free'
p690
sg10
F110.074
sg11
F0.035691
sg12
S'3dc98dc9-c922-3fac-8b24-62b0b58e5891'
p691
sg14
F0.007989
sg15
I4
sg16
F0.687869
sg17
F4.0
sg18
F2009.0
sg19
F231.09955
sg20
F-15.097
sg21
S'Tmsekosbeugunxwdvml5cp7oizq'
p692
sg23
F0.221434
sg24
L6L
sg25
F0.259683304522
sg26
F0.002256
sa(dp693
g2
F0.107826
sg3
g673
sg5
Fnan
sg7
F0.478591
sg8
S'When It Comes Down'
p694
sg10
F120.019
sg11
F0.055752
sg12
S'11e86d69-de71-32d2-b36b-d3182f1cabe0'
p695
sg14
F0.032634
sg15
I1
sg16
F0.841219
sg17
F4.0
sg18
F2009.0
sg19
F236.63955
sg20
F-13.062
sg21
S'Tpdjausvdhpczhv74talydeszim'
p696
sg23
F0.646362
sg24
L6L
sg25
F0.259683304522
sg26
F0.000521
sa(dp697
g2
F0.060514
sg3
g673
sg5
Fnan
sg7
F0.514742
sg8
S'Heartbroken'
p698
sg10
F94.958
sg11
F0.028062
sg12
S'8913bf49-5575-3d30-8488-1ee3359990d1'
p699
sg14
F0.075533
sg15
I4
sg16
F0.635735
sg17
F4.0
sg18
F2009.0
sg19
F207.09955
sg20
F-11.216
sg21
S'Ts4iwmlpmd5ptd3s3wjujcww77u'
p700
sg23
F0.384219
sg24
L6L
sg25
F0.259683304522
sg26
F0.000121
sa(dp701
g2
F0.169822
sg3
g673
sg5
Fnan
sg7
F0.14042
sg8
S'Ocean Breeze'
p702
sg10
F99.999
sg11
F0.034411
sg12
S'cedcc03a-2649-33fd-8a35-cf21d07271db'
p703
sg14
F0.734029
sg15
I4
sg16
F0.67301
sg17
F4.0
sg18
F2009.0
sg19
F205.47206
sg20
F-17.268
sg21
S'Tlmhxplbrn45iw2udtyu2sfnrwq'
p704
sg23
F0.205282
sg24
L6L
sg25
F0.259683304522
sg26
F0.000208
sa(dp705
g2
F0.032165
sg3
g673
sg5
Fnan
sg7
F0.562737
sg8
S'Faces'
p706
sg10
F100.01
sg11
F0.027154
sg12
S'f8e3dce2-2ae7-35de-900d-ab14dcb721ab'
p707
sg14
F0.012457
sg15
I4
sg16
F0.629081
sg17
F4.0
sg18
F2009.0
sg19
F211.09955
sg20
F-13.423
sg21
S'Tikg5abyhr7c76uzobug62nibou'
p708
sg23
F0.655771
sg24
L6L
sg25
F0.259683304522
sg26
F0.008461
sa(dp709
g2
F0.04213
sg3
g673
sg5
Fnan
sg7
F0.421439
sg8
S'Careless Love'
p710
sg10
F87.029
sg11
F0.026144
sg12
S'c2d5a4db-5e10-3baf-a355-946e96c8142d'
p711
sg14
F0.114678
sg15
I2
sg16
F0.571095
sg17
F4.0
sg18
F2009.0
sg19
F212.19955
sg20
F-12.277
sg21
S'T6k3r2qfum3rnim7b5twjtrbpvq'
p712
sg23
F0.381393
sg24
L6L
sg25
F0.259683304522
sg26
F0.424984
sa(dp713
g2
F0.090649
sg3
g673
sg5
Fnan
sg7
F0.35908
sg8
S'In My Head'
p714
sg10
F97.984
sg11
F0.025305
sg12
S'c18553d5-5105-3a6a-8dc1-66e83c49de79'
p715
sg14
F0.392418
sg15
I4
sg16
F0.632506
sg17
F4.0
sg18
F2009.0
sg19
F254.79955
sg20
F-15.216
sg21
S'Twzs2su7nribxpf5z52ntb4qgxe'
p716
sg23
F0.484545
sg24
L6L
sg25
F0.259683304522
sg26
F0.000237
sa(dp717
g2
F0.324349
sg3
S'The 2 Bears'
p718
sg5
S'http://lh4.ggpht.com/s3KeCWE2yMDB1bdznnDXN3tgJwVhhg-Vso1qbGhvZidnry62rq6XpN_jnaSYjLaczfNc_hDZjg'
p719
sg7
F0.784877
sg8
S'Get Out'
p720
sg10
F122.914
sg11
F0.033861
sg12
S'591f7a68-492b-3d78-8547-1f4c3abf87ee'
p721
sg14
F0.065091
sg15
I1
sg16
F0.664173
sg17
F4.0
sg18
F2014.0
sg19
F352.77374
sg20
F-6.038
sg21
S'Ta7xb5zwqbmhys3alf76lkcy37e'
p722
sg23
F0.109534
sg24
L6L
sg25
F0.5358796057
sg26
F0.098508
sa(dp723
g2
F0.473382
sg3
S'Colie Brice'
p724
sg5
S'http://lh6.ggpht.com/LCrdvmyVf3bkL_AmPxNUzbnSk96pNNga_C1Z87mMPZrvtY--7t-rMBFuNTlEm2cIppMt-85ulg'
p725
sg7
F0.176454
sg8
S'Happiness (Live)'
p726
sg10
F117.772
sg11
F0.059696
sg12
S'117897ca-2c66-3652-afc0-cb71618fda1a'
p727
sg14
F0.928137
sg15
I1
sg16
F0.471396
sg17
F3.0
sg18
F2011.0
sg19
F172.419
sg20
F-18.626
sg21
S'Tueowsaq4xhbhlgigvnchi4vgo4'
p728
sg23
F0.241836
sg24
L6L
sg25
F0.261711676507
sg26
F2e-06
sa(dp729
g2
F0.369566
sg3
g724
sg5
g725
sg7
F0.474616
sg8
S'Free and Clear'
p730
sg10
F95.913
sg11
F0.031629
sg12
S'817323eb-50ac-303e-93d9-52420a9b2e65'
p731
sg14
F0.05193
sg15
I4
sg16
F0.385358
sg17
F4.0
sg18
F2011.0
sg19
F133.51955
sg20
F-14.725
sg21
S'Tnyibsrms5i4bjqzxescsdh3lja'
p732
sg23
F0.305637
sg24
L6L
sg25
F0.261711676507
sg26
F0.00036
sa(dp733
g2
F0.265918
sg3
g724
sg5
g725
sg7
F0.297802
sg8
S"Can't Escape"
p734
sg10
F125.398
sg11
F0.037694
sg12
S'81028750-4226-3e6a-9331-61d9162d6dbf'
p735
sg14
F0.349985
sg15
I1
sg16
F0.631881
sg17
F4.0
sg18
F2011.0
sg19
F173.19129
sg20
F-13.413
sg21
S'T3lod3mmqw7yjcjtj3etwiffniq'
p736
sg23
F0.540984
sg24
L6L
sg25
F0.261711676507
sg26
F0.001623
sa(dp737
g2
F0.885216
sg3
g724
sg5
g725
sg7
F0.197797
sg8
S"Just Can't Wait (Live)"
p738
sg10
F128.151
sg11
F0.034645
sg12
S'edc7ce72-6b18-347b-8a56-bc289111f3aa'
p739
sg14
F0.907841
sg15
I1
sg16
F0.433848
sg17
F4.0
sg18
F2011.0
sg19
F244.09347
sg20
F-15.937
sg21
S'T4ku5g5aifm7xvyr33b5dqrgdoe'
p740
sg23
F0.205249
sg24
L6L
sg25
F0.261711676507
sg26
F3.5e-05
sa(dp741
g2
F0.077021
sg3
g724
sg5
g725
sg7
F0.314594
sg8
S'Damage Done'
p742
sg10
F94.005
sg11
F0.027323
sg12
S'95d1fda8-4b5d-3bbd-8870-078723961e87'
p743
sg14
F0.127873
sg15
I4
sg16
F0.703228
sg17
F4.0
sg18
F2011.0
sg19
F289.18966
sg20
F-15.145
sg21
S'Tvps3lrbymqyvogsxbrwzaqnxia'
p744
sg23
F0.380776
sg24
L6L
sg25
F0.261711676507
sg26
F0.000896
sa(dp745
g2
F0.964875
sg3
g724
sg5
g725
sg7
F0.160476
sg8
S'Give Me Your Love (Live)'
p746
sg10
F183.031
sg11
F0.049204
sg12
S'5a94a44e-7d7f-3ed0-b967-cd9571917f2f'
p747
sg14
F0.931532
sg15
I0
sg16
F0.341883
sg17
F4.0
sg18
F2011.0
sg19
F162.72898
sg20
F-20.269
sg21
S'Tck6bmtp4v2726p4hx7kkdwlb5u'
p748
sg23
F0.184572
sg24
L6L
sg25
F0.261711676507
sg26
F3e-06
sa(dp749
g2
F0.369975
sg3
g724
sg5
g725
sg7
F0.143808
sg8
S'Giving Up (Live)'
p750
sg10
F90.091
sg11
F0.051942
sg12
S'536a310c-dac2-3a5b-8199-3faaa53356c1'
p751
sg14
F0.940496
sg15
I2
sg16
F0.438949
sg17
F4.0
sg18
F2011.0
sg19
F234.00259
sg20
F-17.902
sg21
S'Tpfodevgnq5x34cfeh7if7gxu7m'
p752
sg23
F0.211327
sg24
L6L
sg25
F0.261711676507
sg26
F3.3e-05
sa(dp753
g2
F0.354246
sg3
g724
sg5
g725
sg7
F0.243803
sg8
S'Searching'
p754
sg10
F138.3
sg11
F0.028643
sg12
S'66608cce-57f5-30ec-8b4d-4b57867da814'
p755
sg14
F0.250819
sg15
I3
sg16
F0.498685
sg17
F4.0
sg18
F2011.0
sg19
F229.54685
sg20
F-14.678
sg21
S'Tb5mi4qy62sugepaq3od7geml4y'
p756
sg23
F0.245883
sg24
L6L
sg25
F0.261711676507
sg26
F0.000669
sa(dp757
g2
F0.131333
sg3
S'Colie Brice & The New Age Blues Experience'
p758
sg5
S'http://lh4.ggpht.com/yc5uHaN4Zq7WIwiggRRoDU7xqRH329_qdS5aqXeHxdCUlQWEwDGmymdY6rjsuaug4_QeQiaR'
p759
sg7
F0.251917
sg8
S'Only Love Is Real'
p760
sg10
F111.677
sg11
F0.034041
sg12
S'cad9f7cb-8975-3e9b-b826-fd396c8afbfe'
p761
sg14
F0.807484
sg15
I4
sg16
F0.279058
sg17
F4.0
sg18
F2011.0
sg19
F228.03701
sg20
F-15.525
sg21
S'Thsy3qx6vanzoxpjusnbhewjpde'
p762
sg23
F0.075639
sg24
L6L
sg25
F0.269127343221
sg26
F0.002039
sa(dp763
g2
F0.386971
sg3
g758
sg5
g759
sg7
F0.752706
sg8
S"Joe Savio's New Age Blues Experience"
p764
sg10
F132.371
sg11
F0.045712
sg12
S'92987af5-3d8e-37e6-a893-f16522210e4f'
p765
sg14
F0.005333
sg15
I1
sg16
F0.478864
sg17
F4.0
sg18
F2011.0
sg19
F228.0361
sg20
F-7.048
sg21
S'Tlbwffnce653fgzrdamqq4katay'
p766
sg23
F0.642798
sg24
L6L
sg25
F0.269127343221
sg26
F0.843559
sa(dp767
g2
F0.136443
sg3
g758
sg5
g759
sg7
F0.869809
sg8
g730
sg10
F165.315
sg11
F0.103505
sg12
S'b564ad88-626f-329e-b0e5-9aca67070483'
p768
sg14
F0.167899
sg15
I0
sg16
F0.228199
sg17
F4.0
sg18
F2011.0
sg19
F137.7478
sg20
F-8.325
sg21
S'Tm5nvjhi4ofyoyjmy2yzzfxsnzi'
p769
sg23
F0.361097
sg24
L6L
sg25
F0.269127343221
sg26
F0.002556
sa(dp770
g2
F0.107551
sg3
g758
sg5
g759
sg7
F0.288196
sg8
S'Happiness'
p771
sg10
F109.003
sg11
F0.036446
sg12
S'1deb239d-8bf1-36f5-b8e0-b6587b4ac532'
p772
sg14
F0.382436
sg15
I4
sg16
F0.513654
sg17
F4.0
sg18
F2011.0
sg19
F264.73905
sg20
F-12.526
sg21
S'Tuhfdp4ammkl5vrrrufi532i3ha'
p773
sg23
F0.226113
sg24
L6L
sg25
F0.269127343221
sg26
F2.6e-05
sa(dp774
g2
F0.308909
sg3
g758
sg5
g759
sg7
F0.653437
sg8
g742
sg10
F114.854
sg11
F0.034173
sg12
S'da6e002d-3119-3eb4-b334-f8893ae2180c'
p775
sg14
F0.076559
sg15
I1
sg16
F0.445109
sg17
F4.0
sg18
F2011.0
sg19
F342.99959
sg20
F-7.401
sg21
S'Tada7nmyzgbxxzlsjoxmvsxlox4'
p776
sg23
F0.308249
sg24
L6L
sg25
F0.269127343221
sg26
F0.000227
sa(dp777
g2
F0.239625
sg3
g758
sg5
g759
sg7
F0.096786
sg8
S"Jaco's Serenade"
p778
sg10
F81.016
sg11
F0.032607
sg12
S'6c1136c6-087e-34d9-b46e-e974cecc1e8f'
p779
sg14
F0.844797
sg15
I2
sg16
F0.239031
sg17
F4.0
sg18
F2011.0
sg19
F255.99955
sg20
F-21.513
sg21
S'Tqwu2ucdi326baifzel3n37dptm'
p780
sg23
F0.130409
sg24
L6L
sg25
F0.269127343221
sg26
F0.864139
sa(dp781
g2
F0.127935
sg3
g758
sg5
g759
sg7
F0.354437
sg8
S'Beyond'
p782
sg10
F122.237
sg11
F0.04341
sg12
S'07fd1b88-00cc-3f85-9e2f-7b4a64599ce5'
p783
sg14
F0.33303
sg15
I1
sg16
F0.345482
sg17
F4.0
sg18
F2011.0
sg19
F316.04354
sg20
F-13.567
sg21
S'T3q2xyadxmk73v4m6lmms32zi5u'
p784
sg23
F0.115813
sg24
L6L
sg25
F0.269127343221
sg26
F0.005009
sa(dp785
g2
F0.957786
sg3
g758
sg5
g759
sg7
F0.291129
sg8
S'Another Day'
p786
sg10
F118.106
sg11
F0.038191
sg12
S'11f4207b-8920-3429-b4e6-5d98a686f6b3'
p787
sg14
F0.783779
sg15
I1
sg16
F0.378899
sg17
F4.0
sg18
F2011.0
sg19
F202.32975
sg20
F-13.019
sg21
S'Txxj37tohhf4z3c6rcizfgik3dm'
p788
sg23
F0.182656
sg24
L6L
sg25
F0.269127343221
sg26
F0.000403
sa(dp789
g2
F0.110364
sg3
g758
sg5
g759
sg7
F0.794541
sg8
S'Against the Grain'
p790
sg10
F147.912
sg11
F0.139935
sg12
S'de6e3d1b-1b39-3f0c-92ee-e9d8ccd50a9e'
p791
sg14
F0.306238
sg15
I3
sg16
F0.386481
sg17
F4.0
sg18
F2011.0
sg19
F272.221
sg20
F-7.856
sg21
S'Tyi5yrrnpa52i7fyakpd2y5pxhq'
p792
sg23
F0.576159
sg24
L6L
sg25
F0.269127343221
sg26
F1e-06
sa(dp793
g2
F0.121055
sg3
S'Wake Owl'
p794
sg5
S'http://lh5.ggpht.com/EsL-UDWxMdD-c2P0UjqVCzWyfLzwhkhk5DHK0jQtG2zfIEgL2z1qKH7gyv4sqUaDgJCphw-0'
p795
sg7
F0.590055
sg8
S'Gold'
p796
sg10
F86.042
sg11
F0.029587
sg12
S'9dcc9b10-1f9a-3ec7-8881-747fea019678'
p797
sg14
F0.111321
sg15
I2
sg16
F0.484962
sg17
F4.0
sg18
F2013.0
sg19
F224.04027
sg20
F-9.021
sg21
S'Txjgdniq6kftbjc2ltl6jhezt7i'
p798
sg23
F0.439051
sg24
L6L
sg25
F0.52529093909
sg26
F0.000866
sa(dp799
g2
F0.107388
sg3
S'Peter Bradley Adams'
p800
sg5
S'http://lh4.ggpht.com/a8Fa9Q7i4rycLE1eM29s3bV7Gt3V2RzxukJomkC-iBLM5LWidzSXuKKtR_FlzwBgtPLuD_VZ'
p801
sg7
F0.252202
sg8
S'London Bridge Is Falling Down'
p802
sg10
F128.896
sg11
F0.033243
sg12
S'f1154113-3947-32dd-9f3d-a79c74cbe761'
p803
sg14
F0.865424
sg15
I1
sg16
F0.33118
sg17
F3.0
sg18
F2011.0
sg19
F257.61914
sg20
F-12.675
sg21
S'Tjjamuw5llvnmmfqkxjxjhbbjau'
p804
sg23
F0.282439
sg24
L6L
sg25
F0.5435561165
sg26
F0.050021
sa(dp805
g2
F0.061049
sg3
S'Blaxy Girls'
p806
sg5
S'http://lh5.ggpht.com/MbNGczpvDfqg4Ifgq65yA0M5o6SCgjb8ts4hqgGUDoZijP4lYYe1GaJK88ti3MLL855oZ_A6NA'
p807
sg7
F0.824839
sg8
S'Leaga-Ma la ochi'
p808
sg10
F83.059
sg11
F0.033386
sg12
S'b50d440a-62b5-3b23-abee-cf675ebe7469'
p809
sg14
F0.084896
sg15
I2
sg16
F0.654004
sg17
F4.0
sg18
F2014.0
sg19
F187.06671
sg20
F-5.631
sg21
S'T7ylkvri4ieigroidplqajhg7jq'
p810
sg23
F0.946057
sg24
L6L
sg25
F0.508299106973
sg26
F0.000315
sa(dp811
g2
F0.375161
sg3
S'The Afghan Whigs'
p812
sg5
S'http://lh4.ggpht.com/Am3g_JcZjPzF_3pLsmd7SfVByYLLvTvHI7ToEEeXZyJfZf1sErXRaTaJ9gWEi0CE7fyQFx6bdVQ'
p813
sg7
F0.455485
sg8
S'Lovecrimes'
p814
sg10
F94.97
sg11
F0.028943
sg12
S'9128dd75-9e49-3285-a5a3-7a1d6d368b43'
p815
sg14
F0.502712
sg15
I4
sg16
F0.448466
sg17
F4.0
sg18
F2012.0
sg19
F263.26159
sg20
F-11.306
sg21
S'Tbtg3fxvwsneuazhnifw7wa726u'
p816
sg23
F0.068237
sg24
L6L
sg25
F0.395206280428
sg26
F0.393884
sa(dp817
g2
F0.102456
sg3
S'The Shaolin Afronauts'
p818
sg5
S'http://lh6.ggpht.com/MBhy37qcrvf68oymrPFHRtXpeDudJKXBpvRvA9bfTKkIc8mMMLRvvQM4vQE8h4aka8keFOzF'
p819
sg7
F0.900815
sg8
S'Brooklyn'
p820
sg10
F95.101
sg11
F0.037579
sg12
S'3c110fbe-7612-3d33-806d-6a2287206e78'
p821
sg14
F0.010963
sg15
I4
sg16
F0.422643
sg17
F4.0
sg18
F2012.0
sg19
F213.89288
sg20
F-5.835
sg21
S'Tyysjv2t73gpm636badzy7ki3x4'
p822
sg23
F0.701908
sg24
L6L
sg25
F0.477268557358
sg26
F0.897221
sa(dp823
g2
F0.15746
sg3
S'Figure'
p824
sg5
S'http://lh4.ggpht.com/zjmMST_NLobXRGnHuxCdLhgVIp9WLmCVJM8r5drKjo7hKekRD3PVauHYvSm4JqJmIt01DA_Y'
p825
sg7
F0.94234
sg8
S'Dominate (Instrumental Mix)'
p826
sg10
F174.11
sg11
F0.553082
sg12
S'8afbb2a2-068a-3eca-a21f-0aa20967ad66'
p827
sg14
F0.000668
sg15
I0
sg16
F0.41096
sg17
F4.0
sg18
F2011.0
sg19
F248.48649
sg20
F-3.888
sg21
S'Tiyowedzr3l4jkfc5okirfq6jdi'
p828
sg23
F0.455431
sg24
L6L
sg25
F0.536887447902
sg26
F0.077068
sa(dp829
g2
F0.092598
sg3
g824
sg5
S'http://lh4.ggpht.com/_GtPyX94bhTri6oPEcxK3lRPhEpTkT3nUK1-DOB8ar4MHwnx-xlzAPqcRPZmo6iqYMxxmk2C5w'
p830
sg7
F0.966646
sg8
S'The Brink (Original Mix)'
p831
sg10
F139.952
sg11
F0.100236
sg12
S'4987cf57-3803-3871-9bbb-bfb5c5df88c6'
p832
sg14
F4.6e-05
sg15
I3
sg16
F0.581791
sg17
F4.0
sg18
F2012.0
sg19
F240.06485
sg20
F-4.19
sg21
S'Twnjfkru54zriosobjxknydy7fe'
p833
sg23
F0.103379
sg24
L6L
sg25
F0.536887447902
sg26
F0.269971
sa(dp834
g2
F0.222163
sg3
g824
sg5
S'http://lh3.ggpht.com/HVYxGmED2QlDV_hdb-QEnYwxwjlsgbN9E_wv8WP5DWWc_CyuiGUPD9mWf1tw_HkYS0VIXO9otz4'
p835
sg7
F0.982031
sg8
S'Mission of Destruction (Original Mix)'
p836
sg10
F127.98
sg11
F0.432763
sg12
S'8ee92632-4c13-3665-b5e5-3363b7dbf132'
p837
sg14
F4.5e-05
sg15
I1
sg16
F0.606073
sg17
F4.0
sg18
F2012.0
sg19
F324.23138
sg20
F-2.625
sg21
S'Teudykuszgkh4fzyfxtcs65rpvq'
p838
sg23
F0.112207
sg24
L6L
sg25
F0.536887447902
sg26
F0.143952
sa(dp839
g2
F0.159069
sg3
S'Clap Your Hands Say Yeah'
p840
sg5
S'http://lh6.ggpht.com/XcUsb6ALgxCdpkB7y0TGRQIQWWURncJVZvgDE_1093aK3GX4z47KmDTWZscKjObMuoonYCNC9A'
p841
sg7
F0.926121
sg8
S'Is This Love?'
p842
sg10
F148.56
sg11
F0.107787
sg12
S'1d71fed4-f55a-306f-9cac-5496d3996ef6'
p843
sg14
F0.018449
sg15
I3
sg16
F0.326008
sg17
F4.0
sg18
F2011.0
sg19
F191.78621
sg20
F-4.542
sg21
S'Tqacm2gya3appfrxuaguuyumh5a'
p844
sg23
F0.118749
sg24
L6L
sg25
F0.418719856012
sg26
F0.088925
sa(dp845
g2
F0.126171
sg3
g840
sg5
g841
sg7
F0.674445
sg8
S'Gimme Some Salt'
p846
sg10
F101.731
sg11
F0.026787
sg12
S'cba9662e-8031-3600-aa4c-4e5f5242231a'
p847
sg14
F0.08333
sg15
I4
sg16
F0.715943
sg17
F4.0
sg18
F2011.0
sg19
F183.34621
sg20
F-6.477
sg21
S'T6simpqmnkwmqueowjfv2abr76a'
p848
sg23
F0.573512
sg24
L6L
sg25
F0.418719856012
sg26
F0.739654
sa(dp849
g2
F0.094226
sg3
g840
sg5
g841
sg7
F0.879636
sg8
S"The Witness' Dull Surprise"
p850
sg10
F139.591
sg11
F0.056309
sg12
S'b2fc63c2-51f3-331a-b5b9-e1dad2440c55'
p851
sg14
F0.000521
sg15
I3
sg16
F0.290932
sg17
F4.0
sg18
F2011.0
sg19
F248.95955
sg20
F-4.73
sg21
S'Ticqgj3ygcc7kuhjwurvprvzprq'
p852
sg23
F0.25132
sg24
L6L
sg25
F0.418719856012
sg26
F0.012586
sa(dp853
g2
F0.056911
sg3
g840
sg5
g841
sg7
F0.952944
sg8
S'Hysterical'
p854
sg10
F167.646
sg11
F0.074287
sg12
S'86dd5946-852b-3ccc-995b-a3a76d17dcaf'
p855
sg14
F2.7e-05
sg15
I0
sg16
F0.215229
sg17
F4.0
sg18
F2011.0
sg19
F231.37288
sg20
F-3.742
sg21
S'Tdjboywrh5xabd233yznnfmsfsa'
p856
sg23
F0.285298
sg24
L6L
sg25
F0.418719856012
sg26
F0.011365
sa(dp857
g2
F0.133498
sg3
g840
sg5
g841
sg7
F0.524114
sg8
S'Satan Said Dance'
p858
sg10
F148.372
sg11
F0.066664
sg12
S'9f2fa962-d2fc-395e-9560-13b6405ebb14'
p859
sg14
F0.000125
sg15
I3
sg16
F0.43567
sg17
F4.0
sg18
F2011.0
sg19
F194.84689
sg20
F-18.172
sg21
S'Tneqjwadxn7rcvpzs2ff6d5le2e'
p860
sg23
F0.197295
sg24
L6L
sg25
F0.418719856012
sg26
F0.000933
sa(dp861
g2
F0.099138
sg3
g840
sg5
g841
sg7
F0.903011
sg8
S'Upon This Tidal Wave Of Young Blood'
p862
sg10
F161.308
sg11
F0.055365
sg12
S'4bd1f1d2-1fa8-3f1e-a394-a2289e14c73a'
p863
sg14
F0.000149
sg15
I0
sg16
F0.44227
sg17
F4.0
sg18
F2011.0
sg19
F274.46621
sg20
F-4.862
sg21
S'Tvqfv25rkagd4yjdw5a676z6p6q'
p864
sg23
F0.715425
sg24
L6L
sg25
F0.418719856012
sg26
F0.000428
sa(dp865
g2
F0.131383
sg3
g840
sg5
g841
sg7
F0.666081
sg8
S'Over And Over Again (Lost And Found)'
p866
sg10
F139.684
sg11
F0.02737
sg12
S'553b3b7e-115f-3cad-9517-270bb5fb3ab1'
p867
sg14
F0.000185
sg15
I3
sg16
F0.576859
sg17
F4.0
sg18
F2011.0
sg19
F189.31955
sg20
F-8.25
sg21
S'Tmcmn4z4cg6sjqqegklrnzfr33e'
p868
sg23
F0.87206
sg24
L6L
sg25
F0.418719856012
sg26
F0.015535
sa(dp869
g2
F0.228427
sg3
g840
sg5
g841
sg7
F0.972875
sg8
S'Same Mistake'
p870
sg10
F150.064
sg11
F0.101954
sg12
S'fd2e403d-7698-3ebc-af5d-87814be996d4'
p871
sg14
F3.2e-05
sg15
I3
sg16
F0.318986
sg17
F4.0
sg18
F2011.0
sg19
F184.85651
sg20
F-4.598
sg21
S'Tmcldmwpinherq4czcwyitg5csq'
p872
sg23
F0.116245
sg24
L6L
sg25
F0.418719856012
sg26
F0.015608
sa(dp873
g2
F0.363397
sg3
g840
sg5
g841
sg7
F0.881544
sg8
S'Maniac'
p874
sg10
F169.183
sg11
F0.063429
sg12
S'6d450ec4-7832-3ce0-94ee-013a7f462346'
p875
sg14
F5.9e-05
sg15
I0
sg16
F0.321217
sg17
F4.0
sg18
F2011.0
sg19
F181.63955
sg20
F-3.989
sg21
S'T24ib52odcfx5gsagwnmbac5dma'
p876
sg23
F0.205642
sg24
L6L
sg25
F0.418719856012
sg26
F0.010931
sa(dp877
g2
F0.051441
sg3
S'The Lighthouse and the Whaler'
p878
sg5
S'http://lh6.ggpht.com/6Y676aD9vvO24OmW1U9WyXCuLYicUFreOXORn4B66M7Pqk4JY8OuG_oktWilkX1-qY_1Js-5'
p879
sg7
F0.6701
sg8
S'Pioneers'
p880
sg10
F129.979
sg11
F0.029973
sg12
S'fd369b0c-bd74-358f-830f-368997c47af7'
p881
sg14
F0.155989
sg15
I1
sg16
F0.731601
sg17
F4.0
sg18
F2012.0
sg19
F198.13288
sg20
F-7.835
sg21
S'Tqkczeltfz2hniuholf2wxelzcu'
p882
sg23
F0.570496
sg24
L6L
sg25
F0.506836887611
sg26
F0.008245
sa(dp883
g2
F0.292205
sg3
S'Ess Vee'
p884
sg5
S'http://lh5.ggpht.com/GfxHOb3v5ZOEbIZ8W3RIr3WM5KELrsTeerxbCdifLCNttn8cpscm2XUCpn_YAI4U0oLCIU2q'
p885
sg7
F0.58701
sg8
S'The Edge'
p886
sg10
F115.1
sg11
F0.153894
sg12
S'ccb38163-6338-3a62-9e32-88dbace2886e'
p887
sg14
F0.007142
sg15
I1
sg16
F0.683801
sg17
F4.0
sg18
F2011.0
sg19
F322.9561
sg20
F-8.437
sg21
S'Talukhrhdnsio7xjerljjr5fapy'
p888
sg23
F0.212445
sg24
L6L
sg25
F0.341315943912
sg26
F1e-06
sa(dp889
g2
F0.233034
sg3
g884
sg5
g885
sg7
F0.680768
sg8
S"Backyard Sippin'"
p890
sg10
F138.307
sg11
F0.094309
sg12
S'072279af-25fc-3c1c-81f4-fa7698b55710'
p891
sg14
F0.032455
sg15
I3
sg16
F0.430962
sg17
F4.0
sg18
F2011.0
sg19
F194.30354
sg20
F-9.493
sg21
S'Tmnwq22tyckf3qvch7e3dkngfjm'
p892
sg23
F0.695029
sg24
L6L
sg25
F0.341315943912
sg26
F6.7e-05
sa(dp893
g2
F0.11330899999999999
sg3
S'Black Lab'
p894
sg5
S'http://lh3.ggpht.com/2CNH3MYiFockd_rFXzjGuIZqvsHb5dU2XbzAB6d7qKczxI_6C-JCyQlZYTMXRwdwQAp25zlhig'
p895
sg7
F0.491723
sg8
S'Remember'
p896
sg10
F123.909
sg11
F0.035347
sg12
S'2b60b6b3-29b2-3a54-9c20-c4f16b4f2a2f'
p897
sg14
F0.634829
sg15
I1
sg16
F0.558161
sg17
F4.0
sg18
F2011.0
sg19
F257.85637
sg20
F-8.667
sg21
S'Tanhsobxv3auczjwnghpithp22u'
p898
sg23
F0.187115
sg24
L6L
sg25
F0.495380891229
sg26
F8e-05
sa(dp899
g2
F0.174446
sg3
g894
sg5
S'http://lh5.ggpht.com/y4OvhXvSYYQdD8K_Mc2lCoJYLsNJ8cxZ-VITRQPcHeSNHUTrjpcsSVn9_t53TYVz4wppS0Uc'
p900
sg7
F0.857535
sg8
S'New Prayer'
p901
sg10
F119.996
sg11
F0.049998
sg12
S'3bd3a63a-b3f9-3ac4-b8e7-bd54426ce327'
p902
sg14
F0.004016
sg15
I1
sg16
F0.579332
sg17
F4.0
sg18
F2007.0
sg19
F279.37288
sg20
F-7.865
sg21
S'Tgi7yyh2l4deatll5jhtdxgif3a'
p903
sg23
F0.463574
sg24
L6L
sg25
F0.495380891229
sg26
F0.009496
sa(dp904
g2
F0.117501
sg3
S'Austin Lucas'
p905
sg5
S'http://lh5.ggpht.com/xBRkf8iWYDCZ68VtmvWdEQiXtB0VBFOTqXKzhKI2Jya0F9HEJG-iE3kRDUxLe3ISbltE6kRf'
p906
sg7
F0.783913
sg8
S'Alone In Memphis'
p907
sg10
F139.738
sg11
F0.041241
sg12
S'0cf28ca4-8624-3e88-821f-c745d2822eca'
p908
sg14
F0.170387
sg15
I3
sg16
F0.474743
sg17
F4.0
sg18
F2014.0
sg19
F219.34621
sg20
F-5.591
sg21
S'Tbox3qf6l5je7lxj37qz6tfdhoq'
p909
sg23
F0.31956
sg24
L6L
sg25
F0.474687038208
sg26
F1e-06
sa(dp910
g2
F0.114539
sg3
S'American Football'
p911
sg5
g906
sg7
F0.796616
sg8
S'Never Meant'
p912
sg10
F144.452
sg11
F0.03763
sg12
S'9a480466-6cc6-3d11-a168-f341f56e8305'
p913
sg14
F0.020761
sg15
I3
sg16
F0.432618
sg17
F4.0
sg18
F2014.0
sg19
F268.37578
sg20
F-6.708
sg21
S'Ti5bqdzidtjwjoccyomjzvgum7e'
p914
sg23
F0.395821
sg24
L6L
sg25
F0.416711371683
sg26
F0.016724
sa(dp915
g2
F0.213055
sg3
S'Chris Stowe'
p916
sg5
g906
sg7
F0.208904
sg8
S'Blood Drinkers'
p917
sg10
F82.709
sg11
F0.037317
sg12
S'1cf4c851-b7e5-3687-a3f3-29e081e75395'
p918
sg14
F0.245326
sg15
I2
sg16
F0.502858
sg17
F4.0
sg18
F2014.0
sg19
F202.42726
sg20
F-13.449
sg21
S'Twikqrkkrurt7cj25qjmtu7ausu'
p919
sg23
F0.143724
sg24
L6L
sg25
F0.349826682618
sg26
F3e-05
sa(dp920
g2
F0.360479
sg3
S'Sloss Minor'
p921
sg5
g906
sg7
F0.97957
sg8
S'Suburban Commando'
p922
sg10
F122.454
sg11
F0.061382
sg12
S'e840ff35-76ec-36e3-882e-aa1225b2e6cb'
p923
sg14
F0.068836
sg15
I1
sg16
F0.573885
sg17
F4.0
sg18
F2014.0
sg19
F135.04707
sg20
F-2.309
sg21
S'Txrys5qak52ruy5v6hsudqzrcci'
p924
sg23
F0.793716
sg24
L6L
sg25
F0.38653169619
sg26
F0.000178
sa(dp925
g2
F0.114549
sg3
S'Roger Harvey'
p926
sg5
g906
sg7
F0.429131
sg8
S'Lovers Can Be Monsters (7" Version)'
p927
sg10
F113.839
sg11
F0.034359
sg12
S'00d3feea-551e-3cd2-9aee-fe89aadf6a4d'
p928
sg14
F0.000712
sg15
I1
sg16
F0.416207
sg17
F4.0
sg18
F2014.0
sg19
F142.03306
sg20
F-13.524
sg21
S'Tgrjhwxo6uqre2zitjggv4rflpq'
p929
sg23
F0.234356
sg24
L6L
sg25
F0.344159876506
sg26
F0.017189
sa(dp930
g2
F0.309105
sg3
S"'68"
p931
sg5
g906
sg7
F0.891755
sg8
S'Three Is a Crowd (QCA Session)'
p932
sg10
F135.204
sg11
F0.098863
sg12
S'73446205-c456-35e9-b1d5-fb85ab34ac7c'
p933
sg14
F0.000133
sg15
I3
sg16
F0.476061
sg17
F3.0
sg18
F2014.0
sg19
F238.00213
sg20
F-6.683
sg21
S'Tn2py5vsdxl76q4lzeg6lc72k74'
p934
sg23
F0.30177
sg24
L6L
sg25
F0.476866094486
sg26
F0.00458
sa(dp935
g2
F0.2945
sg3
S'Growing Up a Ghost'
p936
sg5
g906
sg7
F0.945177
sg8
S'Burnt Out'
p937
sg10
F104.974
sg11
F0.053667
sg12
S'6c2cad38-7cb7-3eb1-b251-96ac71b44fec'
p938
sg14
F0.004688
sg15
I4
sg16
F0.396295
sg17
F3.0
sg18
F2014.0
sg19
F230.83392
sg20
F-3.509
sg21
S'Tnjwndhxrggad7jmlvf67sq6ney'
p939
sg23
F0.559605
sg24
L6L
sg25
F0.305265676181
sg26
F0.000546
sa(dp940
g2
F0.274171
sg3
S'En Garde'
p941
sg5
g906
sg7
F0.884623
sg8
S'Framed / Slanted'
p942
sg10
F159.853
sg11
F0.046416
sg12
S'030f3f89-bc31-3fbd-b413-943d2505b95b'
p943
sg14
F0.001743
sg15
I3
sg16
F0.41182
sg17
F4.0
sg18
F2014.0
sg19
F218.34907
sg20
F-7.393
sg21
S'T76isl4zorywq5acp7cimaxr3zi'
p944
sg23
F0.534719
sg24
L6L
sg25
F0.371014985536
sg26
F1e-06
sa(dp945
g2
F0.050622
sg3
S'Toe'
p946
sg5
g906
sg7
F0.499801
sg8
S'Goodbye'
p947
sg10
F135.019
sg11
F0.03327
sg12
S'86456a9c-1732-30d5-b6e9-16a133bf9d1a'
p948
sg14
F0.657528
sg15
I3
sg16
F0.545799
sg17
F4.0
sg18
F2014.0
sg19
F454.1122
sg20
F-13.315
sg21
S'Tbp4ey2c5wnun45kej344zqsmhq'
p949
sg23
F0.105964
sg24
L6L
sg25
F0.424985907871
sg26
F0.590903
sa(dp950
g2
F0.061566
sg3
S'Weatherbox'
p951
sg5
g906
sg7
F0.592468
sg8
S'Radio Hive'
p952
sg10
F147.044
sg11
F0.040715
sg12
S'a7fd2838-b467-338b-b454-dfeed8fd77e0'
p953
sg14
F0.320823
sg15
I3
sg16
F0.539743
sg17
F4.0
sg18
F2014.0
sg19
F225.96154
sg20
F-6.503
sg21
S'T7ce3jwyk7ugtetyqdxv4sgobkm'
p954
sg23
F0.757234
sg24
L6L
sg25
F0.449362667055
sg26
F1e-06
sa(dp955
g2
F0.491916
sg3
S'Taking Meds'
p956
sg5
g906
sg7
F0.913154
sg8
S'Taking Meds'
p957
sg10
F182.381
sg11
F0.077721
sg12
S'e026d515-57e2-32f1-9086-cee7d3b5c284'
p958
sg14
F0.000209
sg15
I0
sg16
F0.28982
sg17
F5.0
sg18
F2014.0
sg19
F158.79823
sg20
F-7.048
sg21
S'Tpsoaaqay3g5x5mq3mdnd4sbnfe'
p959
sg23
F0.551438
sg24
L6L
sg25
F0.347539858327
sg26
F0.01257
sa(dp960
g2
F0.30721
sg3
S'Cloudkicker'
p961
sg5
g906
sg7
F0.76872
sg8
S'Signal / Noise'
p962
sg10
F168.206
sg11
F0.093971
sg12
S'28a932c7-d8fe-3c01-ba01-f9bc910b9528'
p963
sg14
F6.3e-05
sg15
I0
sg16
F0.19168
sg17
F3.0
sg18
F2014.0
sg19
F302.85669
sg20
F-14.413
sg21
S'Tsvvr3fs56usjozi4dgds5aha6u'
p964
sg23
F0.197419
sg24
L6L
sg25
F0.477356819164
sg26
F0.743762
sa(dp965
g2
F0.363995
sg3
S'Pray for Sound'
p966
sg5
g906
sg7
F0.856859
sg8
S'Decayer'
p967
sg10
F146.074
sg11
F0.075694
sg12
S'640624f8-80c3-3173-89b7-ab8da06e8937'
p968
sg14
F0.001408
sg15
I3
sg16
F0.384487
sg17
F4.0
sg18
F2014.0
sg19
F286.07955
sg20
F-4.347
sg21
S'T7ln4jlmhcqzqdgyylby6qqcjhe'
p969
sg23
F0.370987
sg24
L6L
sg25
F0.487989541894
sg26
F0.914685
sa(dp970
g2
F0.106684
sg3
S'Major Games'
p971
sg5
g906
sg7
F0.777194
sg8
S'Life'
p972
sg10
F77.593
sg11
F0.097669
sg12
S'8a3cd20d-9700-394b-9d3c-e599d88ad968'
p973
sg14
F0.001128
sg15
I2
sg16
F0.156996
sg17
F4.0
sg18
F2014.0
sg19
F245.77429
sg20
F-7.261
sg21
S'Tntrw23gxfkn3vvzzo4rlah6vbi'
p974
sg23
F0.041745
sg24
L6L
sg25
F0.292518234123
sg26
F0.859897
sa(dp975
g2
F0.073934
sg3
S'People in Cars'
p976
sg5
g906
sg7
F0.74562
sg8
S'On Forgetting to Let Go'
p977
sg10
F108.09
sg11
F0.038829
sg12
S'c3d17098-18e2-3229-9561-32af4b24a65d'
p978
sg14
F0.004296
sg15
I4
sg16
F0.462258
sg17
F4.0
sg18
F2014.0
sg19
F376.92907
sg20
F-8.802
sg21
S'T3bitd3ju5hox5dpmyjrqynbpc4'
p979
sg23
F0.263903
sg24
L6L
sg25
F0.286610205859
sg26
F0.070693
sa(dp980
g2
F0.795919
sg3
S'Greys'
p981
sg5
g906
sg7
F0.98661
sg8
S'Guy Picciotto'
p982
sg10
F103.686
sg11
F0.066787
sg12
S'f1176604-d026-351f-a312-8bb29dea2d51'
p983
sg14
F5e-06
sg15
I4
sg16
F0.328959
sg17
F4.0
sg18
F2014.0
sg19
F90.08
sg20
F-3.915
sg21
S'Tcdyt2vtkdxrk3bnmgstuv5btxu'
p984
sg23
F0.090271
sg24
L6L
sg25
F0.440537657724
sg26
F0.00013
sa(dp985
g2
F0.359435
sg3
S'Tangled Hair'
p986
sg5
g906
sg7
F0.60076
sg8
S'Forty Winks'
p987
sg10
F89.224
sg11
F0.044496
sg12
S'8f074b34-c314-3281-93ee-9f7579e4b2fb'
p988
sg14
F0.598343
sg15
I2
sg16
F0.563303
sg17
F3.0
sg18
F2014.0
sg19
F226.2722
sg20
F-10.913
sg21
S'Ttqiyph6o5egepepvm7gp7ih5aa'
p989
sg23
F0.381859
sg24
L6L
sg25
F0.482105444399
sg26
F0.619658
sa(dp990
g2
F0.603928
sg3
S'Sundiver'
p991
sg5
g906
sg7
F0.894892
sg8
S'Photography'
p992
sg10
F145.03
sg11
F0.045063
sg12
S'b3afc110-af0e-384f-acc4-2b6c6f6a5fcb'
p993
sg14
F6.7e-05
sg15
I3
sg16
F0.298504
sg17
F5.0
sg18
F2014.0
sg19
F300.98621
sg20
F-6.635
sg21
S'Tiddof6ivsihujyzq24vekeutp4'
p994
sg23
F0.429734
sg24
L6L
sg25
F0.280862992364
sg26
F0.371916
sa(dp995
g2
F0.160376
sg3
S'Rust Belt Lights'
p996
sg5
g906
sg7
F0.911783
sg8
S'Pack up and Let Go'
p997
sg10
F176.085
sg11
F0.049731
sg12
S'b503df45-f0ac-30aa-ac3a-9f26c21d4e46'
p998
sg14
F9e-06
sg15
I0
sg16
F0.395176
sg17
F4.0
sg18
F2014.0
sg19
F167.25288
sg20
F-4.445
sg21
S'Ti5xhk4wzut3tai5rpajbj4sos4'
p999
sg23
F0.67322
sg24
L6L
sg25
F0.445573689595
sg26
F1e-06
sa(dp1000
g2
F0.088842
sg3
S'Miracles of Modern Science'
p1001
sg5
S'http://lh6.ggpht.com/CZK8_SILky4zuM_VvCHHMUKFQyQWlp-x4ki2zWealJEqHF63OSJDVruTHsTMjJfegfxe0mi_'
p1002
sg7
F0.672105
sg8
S'Eating Me Alive'
p1003
sg10
F155.088
sg11
F0.048109
sg12
S'9dc44f93-17c1-3110-8a89-4cdb4ac84456'
p1004
sg14
F0.073844
sg15
I3
sg16
F0.504186
sg17
F4.0
sg18
F2011.0
sg19
F205.53098
sg20
F-8.108
sg21
S'Tjq22b7sxzdj2zmrafmvrbwi5va'
p1005
sg23
F0.502669
sg24
L6L
sg25
F0.475421033375
sg26
F0.000169
sa(dp1006
g2
F0.085899
sg3
S'Kasper Bj\xc3\xb8rke'
p1007
sg5
S'http://lh5.ggpht.com/BG6aeAMMzzcY_4NrGu4DZXp6flOlaWW5IbZkjxINXEv7ixSELVwISzEFWrilJ601FHdq_7aP3w'
p1008
sg7
F0.533015
sg8
S'Lies (feat. Nomi Ruiz) - Original Mix'
p1009
sg10
F116.993
sg11
F0.040104
sg12
S'820e4f7b-a096-30c7-8883-aeeb7f6d5a07'
p1010
sg14
F0.099882
sg15
I1
sg16
F0.765196
sg17
F4.0
sg18
F2014.0
sg19
F209.3254
sg20
F-10.321
sg21
S'T6utnfz27z4dagquwreq7tkkfga'
p1011
sg23
F0.202573
sg24
L6L
sg25
F0.579305340907
sg26
F0.542207
sa(dp1012
g2
F0.110476
sg3
S'Christian McBride'
p1013
sg5
S'http://lh5.ggpht.com/LCb00VtXcsUotfGBuGPy2MuJExGabSdYmUHB9xhBiQ45xC-1Oa9J9tzSHl9phYRtOQQDgxw3sA'
p1014
sg7
F0.176575
sg8
S'Sister Rosa (feat. Russell Malone)'
p1015
sg10
F120.679
sg11
F0.044248
sg12
S'2d6643b8-74e6-3ba7-8511-5a3feaa900cc'
p1016
sg14
F0.967405
sg15
I1
sg16
F0.620702
sg17
F4.0
sg18
F2011.0
sg19
F399.11955
sg20
F-21.815
sg21
S'Tzwevb4u47vtyvtlnrl7g5cnnji'
p1017
sg23
F0.452645
sg24
L6L
sg25
F0.441125679892
sg26
F0.954653
sa(dp1018
g2
F0.09451
sg3
S'Jonathan Wilson'
p1019
sg5
S'http://lh3.ggpht.com/B-gLmlXRRj24J4LI-zn8ZfwADFYEsYloJ_jGo-tRZJWtzCuFV9bZnIHnV065aWpwLPaBJa13BQ'
p1020
sg7
F0.752514
sg8
S'Love To Love'
p1021
sg10
F129.758
sg11
F0.037746
sg12
S'4b1db0e6-9a91-396a-90f7-7ccb9832566e'
p1022
sg14
F0.040937
sg15
I1
sg16
F0.595515
sg17
F4.0
sg18
F2013.0
sg19
F249.63955
sg20
F-7.492
sg21
S'To74rsizhh5tkfdryvwzvgh24fa'
p1023
sg23
F0.78162
sg24
L6L
sg25
F0.53413194612
sg26
F0.000251
sa(dp1024
g2
F0.250869
sg3
S'No Age'
p1025
sg5
S'http://lh6.ggpht.com/TwI9cOjuaOzmvPaAUiUcny2mF0-CgU0cZuE5O8sZnqGeosRWi78iTNwW3pLFKeqNJNTrGhkKPFk'
p1026
sg7
F0.747775
sg8
S'Glitter'
p1027
sg10
F160.921
sg11
F0.059762
sg12
S'c07ee430-0c2e-3498-8801-5bbd2a282cd9'
p1028
sg14
F0.000624
sg15
I3
sg16
F0.233352
sg17
F3.0
sg18
F2010.0
sg19
F228.87955
sg20
F-6.373
sg21
S'Tua4b5flrcdd6fdcr4cdg72662y'
p1029
sg23
F0.481657
sg24
L6L
sg25
F0.410896755641
sg26
F0.844402
sa(dp1030
g2
F0.10927
sg3
S'Amy Stroup'
p1031
sg5
S'http://lh4.ggpht.com/HKMDmo2oT06iPylYMZ16YVASPB_5Pg-QIo8KBh_Iv0P09IY10YdAjmBuz-wNj9G2yAYBBAV3Gw'
p1032
sg7
F0.460745
sg8
S'Love You Strongly'
p1033
sg10
F130.005
sg11
F0.028483
sg12
S'91053808-43f6-3c23-8f06-b6163c8c5754'
p1034
sg14
F0.888491
sg15
I1
sg16
F0.643734
sg17
F4.0
sg18
F2010.0
sg19
F219.14077
sg20
F-9.749
sg21
S'Tg2mbwgjjrbuwj4r63a3vgmtzui'
p1035
sg23
F0.401846
sg24
L6L
sg25
F0.52000875725
sg26
F0.001917
sa(dp1036
g2
F0.258864
sg3
S'Paula Reilly'
p1037
sg5
S'http://lh5.ggpht.com/ETzyRPxzl8yvclY2viLGTca9UTPnKPPNbKrc6kM63cA0kPw9ox39v4ulX_GI3pAryNCXMyBJ'
p1038
sg7
F0.193937
sg8
S'MOON SUBLIME BACKING VOCALS'
p1039
sg10
F101.49
sg11
F0.040782
sg12
S'6ac5d80a-fff1-33fa-88da-dcf05edb492f'
p1040
sg14
F0.993556
sg15
I4
sg16
F0.281332
sg17
F3.0
sg18
F2013.0
sg19
F505.94023
sg20
F-17.258
sg21
S'Typujlboaq577ca7o3ai7luyblq'
p1041
sg23
F0.051078
sg24
L6L
sg25
F0.334107039043
sg26
F0.850348
sa(dp1042
g2
F0.110565
sg3
S'Arms and Sleepers'
p1043
sg5
S'http://lh5.ggpht.com/mar9s3sM-kyeK-jWyIpFDS-E4GTusE-9euI37u96rUbqU_mKehmrK-MgM4jbuEaHdf9CTw5N'
p1044
sg7
F0.585425
sg8
S'The Architekt'
p1045
sg10
F184.037
sg11
F0.045324
sg12
S'393f797f-ef49-3409-85fd-e98d1a18b102'
p1046
sg14
F0.813997
sg15
I0
sg16
F0.48153
sg17
F3.0
sg18
F2009.0
sg19
F285.21288
sg20
F-12.914
sg21
S'Tm2hoer7ev3dhygsce6vjvgwiz4'
p1047
sg23
F0.203251
sg24
L6L
sg25
F0.50639870239
sg26
F0.264445
sa(dp1048
g2
F0.09517
sg3
S'Furthur Abuse'
p1049
sg5
S'http://lh5.ggpht.com/WmflS0JhnQQhVpKc1wjNBKuM4GEDOGneLECVEuDebrzBXBHLHI3BYxvFSmyO_27MLf1YZM6e'
p1050
sg7
F0.620842
sg8
S'Collateral Damage'
p1051
sg10
F144.577
sg11
F0.028845
sg12
S'44e49cbd-4d79-3ecd-a6cd-5872a25dc6f1'
p1052
sg14
F0.118241
sg15
I3
sg16
F0.415613
sg17
F4.0
sg18
F1996.0
sg19
F253.34921
sg20
F-10.927
sg21
S'Thjlntfxrcffzidxteii623ck5a'
p1053
sg23
F0.665074
sg24
L6L
sg25
F0.250719795666
sg26
F0.404525
sa(dp1054
g2
F0.081129
sg3
g1049
sg5
g1050
sg7
F0.809652
sg8
S"She's Crying At My Funeral"
p1055
sg10
F93.456
sg11
F0.027618
sg12
S'fe648568-ed70-35b5-855a-53a425372a1d'
p1056
sg14
F0.009917
sg15
I4
sg16
F0.494333
sg17
F4.0
sg18
F1996.0
sg19
F171.11574
sg20
F-10.699
sg21
S'Tvgw3yv7yl76athj32y3jumdneq'
p1057
sg23
F0.798197
sg24
L6L
sg25
F0.250719795666
sg26
F0.278331
sa(dp1058
g2
F0.100063
sg3
g1049
sg5
g1050
sg7
F0.519067
sg8
S"I Won't Cry"
p1059
sg10
F129.727
sg11
F0.028551
sg12
S'5c31e1bb-46a8-34eb-b987-dee436d4c7a6'
p1060
sg14
F0.025822
sg15
I1
sg16
F0.372538
sg17
F4.0
sg18
F1996.0
sg19
F201.679
sg20
F-14.575
sg21
S'Tvv74bpzm7uargfyiqejikhwkeu'
p1061
sg23
F0.683052
sg24
L6L
sg25
F0.250719795666
sg26
F0.053685
sa(dp1062
g2
F0.074573
sg3
g1049
sg5
g1050
sg7
F0.761979
sg8
S'I Wish'
p1063
sg10
F149.141
sg11
F0.033723
sg12
S'3a6da5e6-4294-373e-950d-ba20f87d34bb'
p1064
sg14
F0.00298
sg15
I3
sg16
F0.432004
sg17
F4.0
sg18
F1996.0
sg19
F194.26023
sg20
F-11.048
sg21
S'Tjfkahog343kbdcasgggytciyi4'
p1065
sg23
F0.664265
sg24
L6L
sg25
F0.250719795666
sg26
F0.008937
sa(dp1066
g2
F0.135786
sg3
g1049
sg5
g1050
sg7
F0.750004
sg8
S'In My World'
p1067
sg10
F144.473
sg11
F0.029054
sg12
S'dd2aa1ee-5497-3184-be0c-c468dc6c21e5'
p1068
sg14
F0.059512
sg15
I3
sg16
F0.379865
sg17
F4.0
sg18
F1996.0
sg19
F196.74186
sg20
F-11.823
sg21
S'Tsgu4jl2qnkp5px6awpb65wjshu'
p1069
sg23
F0.931841
sg24
L6L
sg25
F0.250719795666
sg26
F0.158753
sa(dp1070
g2
F0.122296
sg3
g1049
sg5
g1050
sg7
F0.559925
sg8
S'This'
p1071
sg10
F114.069
sg11
F0.029072
sg12
S'32517e7c-3df6-319a-b3ce-05b27fd60ee8'
p1072
sg14
F0.033489
sg15
I1
sg16
F0.46601
sg17
F4.0
sg18
F1996.0
sg19
F256.4839
sg20
F-11.873
sg21
S'Tggg5vtie6scg6jiooobh4hhplu'
p1073
sg23
F0.430864
sg24
L6L
sg25
F0.250719795666
sg26
F0.092466
sa(dp1074
g2
F0.101212
sg3
g1049
sg5
g1050
sg7
F0.78413
sg8
S'From the Front Lines'
p1075
sg10
F169.382
sg11
F0.034852
sg12
S'cc8a384b-a165-3266-98e0-d339061ae824'
p1076
sg14
F0.001588
sg15
I0
sg16
F0.263809
sg17
F4.0
sg18
F1996.0
sg19
F202.88063
sg20
F-11.855
sg21
S'Txbsu2vpd74ozwby42ssxk66hbm'
p1077
sg23
F0.755953
sg24
L6L
sg25
F0.250719795666
sg26
F0.705995
sa(dp1078
g2
F0.081129
sg3
g1049
sg5
g1050
sg7
F0.809652
sg8
g1055
sg10
F93.456
sg11
F0.027618
sg12
S'7ac33e0c-7cea-3aa0-8084-66980cff9753'
p1079
sg14
F0.009917
sg15
I4
sg16
F0.494333
sg17
F4.0
sg18
F1996.0
sg19
F171.11574
sg20
F-10.699
sg21
S'Tz5eh34b4zabnlyss5fusgq7shu'
p1080
sg23
F0.798197
sg24
L6L
sg25
F0.250719795666
sg26
F0.278331
sa(dp1081
g2
F0.11181
sg3
g1043
sg5
S'http://lh4.ggpht.com/XZ3fBvFsGKYUBbJn5JrdKfsDvBkuUW0Luz_o_JptnVwWO0igYCStA5BtUaJiIzQZJpSUZS5WRA'
p1082
sg7
F0.023053
sg8
S'Mimema'
p1083
sg10
F71.415
sg11
F0.045172
sg12
S'76597302-2139-3948-b988-e6a8b1b94f31'
p1084
sg14
F0.600856
sg15
I2
sg16
F0.176726
sg17
F4.0
sg18
F2007.0
sg19
F248.30621
sg20
F-28.545
sg21
S'Txzrjc7rzpbmtbim2vrci7ocare'
p1085
sg23
F0.034256
sg24
L6L
sg25
F0.50639870239
sg26
F0.960707
sa(dp1086
g2
F0.250869
sg3
g1025
sg5
S'http://lh5.ggpht.com/Mn_PscixiALoMGjrlnNG6loDtMur98FJ3Y4j-UoCFIgXBcH5Fvk6e4xKuD4HotvEKQseA9e8Cw'
p1087
sg7
F0.747775
sg8
g1027
sg10
F160.921
sg11
F0.059762
sg12
S'7b51d58a-19fd-3243-8d46-972d2ba29375'
p1088
sg14
F0.000624
sg15
I3
sg16
F0.233352
sg17
F3.0
sg18
F2010.0
sg19
F228.87955
sg20
F-6.373
sg21
S'Tjkvar7s2zqarpaq7hjybx3dhuq'
p1089
sg23
F0.481657
sg24
L6L
sg25
F0.410896755641
sg26
F0.844402
sa(dp1090
g2
F0.754414
sg3
S'Darksun'
p1091
sg5
S'http://lh3.ggpht.com/B1rCctEp9H0MHiOIgdYf9s8GoyWrEKdgNbC5XX9u-NV0C3aM1w4HE-IFR_dlUynC0aZVRSMoWQc'
p1092
sg7
F0.931457
sg8
S'Parasiempre'
p1093
sg10
F105.121
sg11
F0.130029
sg12
S'e3f52581-baac-3166-a5e0-1d4c7181093a'
p1094
sg14
F4.8e-05
sg15
I4
sg16
F0.296275
sg17
F4.0
sg18
F2008.0
sg19
F294.93288
sg20
F-3.713
sg21
S'Tilkse6b6ouhm4kljrattuaprnq'
p1095
sg23
F0.422664
sg24
L6L
sg25
F0.453297584614
sg26
F0.000788
sa(dp1096
g2
F0.156913
sg3
S'Matt Alber'
p1097
sg5
S'http://lh5.ggpht.com/5yK4QuMnP6bTE6OMtN2xVvZI0D0iexVq8TDD3RheYXftWkDKmFm6TaH727TkKauVnO7jkFdG'
p1098
sg7
F0.068355
sg8
S'The Stars'
p1099
sg10
F129.199
sg11
F0.048055
sg12
S'17ff5efc-0778-3776-aba6-7e7ee22f7c29'
p1100
sg14
F0.994858
sg15
I1
sg16
F0.414006
sg17
F4.0
sg18
F2014.0
sg19
F217.34621
sg20
F-25.168
sg21
S'Tvz2ruthdfi5dj6ycijsvumfscq'
p1101
sg23
F0.287966
sg24
L6L
sg25
F0.487129948669
sg26
F0.942032
sa(dp1102
g2
F0.115766
sg3
S'Mike Marshall'
p1103
sg5
S'http://lh4.ggpht.com/BBQNyotbC0WOlPIzQ9zdsbyFBcQwiCFVomlKCktq36Loqzmo_gPkjNqb8jczONx7h9lLl1NjPa8'
p1104
sg7
F0.02746
sg8
S'Do You Hear What I Hear'
p1105
sg10
F176.953
sg11
F0.064089
sg12
S'77f19ce5-6bac-3b8e-aaf1-406de23e60d5'
p1106
sg14
F0.768826
sg15
I0
sg16
F0.458026
sg17
F4.0
sg18
F1997.0
sg19
F299.22621
sg20
F-23.084
sg21
S'Tw4fifznzlspkfe5b6eyrwoz2f4'
p1107
sg23
F0.084312
sg24
L6L
sg25
F0.433222042245
sg26
F0.898992
sa(dp1108
g2
F0.122065
sg3
S'Field Report'
p1109
sg5
S'http://lh5.ggpht.com/DDBu-BnvXtAHkla-hSSOYE__QPeHRLGBehShAeSWKa1F30B809-B1jzqEcH3AjSLsAErV_DwKDo'
p1110
sg7
F0.26371
sg8
S'I Am Not Waiting Anymore'
p1111
sg10
F81.113
sg11
F0.03504
sg12
S'9ea0da72-a943-306b-a835-6cb80ffb6658'
p1112
sg14
F0.769379
sg15
I2
sg16
F0.446855
sg17
F3.0
sg18
F2012.0
sg19
F208.18621
sg20
F-9.256
sg21
S'Tjwfjhj7kv2m4lh3nvq54vvx72e'
p1113
sg23
F0.157976
sg24
L6L
sg25
F0.509141139785
sg26
F0.000254
sa(dp1114
g2
F0.092365
sg3
g1109
sg5
g1110
sg7
F0.373573
sg8
S'Fergus Falls'
p1115
sg10
F94.976
sg11
F0.029749
sg12
S'daf603c6-13f0-3f45-b962-ca6baa0ddfc3'
p1116
sg14
F0.517596
sg15
I4
sg16
F0.424503
sg17
F4.0
sg18
F2012.0
sg19
F303.41288
sg20
F-11.259
sg21
S'Tckgza3wfyib4nlda56d65n3iyi'
p1117
sg23
F0.092823
sg24
L6L
sg25
F0.509141139785
sg26
F0.012532
sa(dp1118
g2
F0.244384
sg3
S'Staff Benda Bilili'
p1119
sg5
S'http://lh5.ggpht.com/rYtd4B_jGP_6fS3ng7D4mKd8-XFQde2aw_2DGyQpIDJTnLGxsURVEgykvrSTlAv0UQ1vDZwwf_I'
p1120
sg7
F0.817834
sg8
S'Osali Mabe'
p1121
sg10
F127.021
sg11
F0.072031
sg12
S'104d8816-f39d-35f0-bbf2-5a312982d405'
p1122
sg14
F0.079183
sg15
I1
sg16
F0.698875
sg17
F4.0
sg18
F2012.0
sg19
F232.03374
sg20
F-6.079
sg21
S'Tsws7vo2yimpsfzwcruisq7nnbu'
p1123
sg23
F0.88097
sg24
L6L
sg25
F0.518222718283
sg26
F0.0002
sa(dp1124
g2
F0.324613
sg3
S'Air Dubai'
p1125
sg5
S'http://lh3.ggpht.com/kLCQZFf35VCIqUfbVHanpFt3y_GYVEYgR2d6WSE6K9TWTBfEsJuR6m_ko5A7P9cMMfnTBenE'
p1126
sg7
F0.864317
sg8
S'Lights Down'
p1127
sg10
F114.992
sg11
F0.081592
sg12
S'2cf5024b-0ab9-3b70-a17a-27a798a9ed65'
p1128
sg14
F0.004886
sg15
I1
sg16
F0.655095
sg17
F4.0
sg18
F2011.0
sg19
F208.01288
sg20
F-6.263
sg21
S'T53yquv2jvwsv62e6xyg4tqulai'
p1129
sg23
F0.49414
sg24
L6L
sg25
F0.527641954497
sg26
F0.004003
sa(dp1130
g2
F0.14248
sg3
S'Latyrx'
p1131
sg5
S'http://lh4.ggpht.com/f-U7uoCOKIkRDRxpRVWWACf-YwB_1qTnd4OHRuXIRxISWSeWi6xbskXZMg4tE7VN0oex5yLj'
p1132
sg7
F0.811512
sg8
S'Storm Warning'
p1133
sg10
F174.998
sg11
F0.235074
sg12
S'e1ac271c-6fbb-357e-a5db-6fe6524f9932'
p1134
sg14
F0.064936
sg15
I0
sg16
F0.719902
sg17
F4.0
sg18
F2011.0
sg19
F345.86621
sg20
F-8.527
sg21
S'Tkybwcfcn224txyktoj57wqbv5a'
p1135
sg23
F0.672402
sg24
L6L
sg25
F0.423050041937
sg26
F0.000139
sa(dp1136
g2
F0.136193
sg3
g1131
sg5
g1132
sg7
F0.46621
sg8
S"03 - The Bumpin' Contraption (The Recalibration)"
p1137
sg10
F95.414
sg11
F0.064641
sg12
S'ab43f24f-a343-3628-8378-1c80cc44acdc'
p1138
sg14
F0.152998
sg15
I4
sg16
F0.828145
sg17
F4.0
sg18
F2011.0
sg19
F276.37506
sg20
F-9.161
sg21
S'Tblujam2zz36ebtg7gcowhwkj5y'
p1139
sg23
F0.401077
sg24
L6L
sg25
F0.423050041937
sg26
F0.761018
sa(dp1140
g2
F0.096695
sg3
S'Alex Diaz'
p1141
sg5
S'http://lh6.ggpht.com/-hGS7tM6u1c6mTcnQj0u60ujQCiZ7FNiiAS_iCswodOl9abv_7cr1vvH6dfjS875cEM7jggpvg'
p1142
sg7
F0.658461
sg8
S'Turn Up The Music - Single'
p1143
sg10
F120.087
sg11
F0.05528
sg12
S'57752be5-d40d-34e0-91a1-8761084b0313'
p1144
sg14
F0.009604
sg15
I1
sg16
F0.792277
sg17
F4.0
sg18
F2012.0
sg19
F135.99955
sg20
F-6.297
sg21
S'Txhykecwuf4xfpebzgymeogflci'
p1145
sg23
F0.450104
sg24
L6L
sg25
F0.347514013097
sg26
F0.732416
sa(dp1146
g2
F0.148016
sg3
S'Assembly Of Dust'
p1147
sg5
S'http://lh3.ggpht.com/Gpf_oZzFFfAS4gje6BZG5qLHQSPDZlE-7dXPMUlvJx0BYgCMjg6od4aoNmCHewU0p9H2WJm3Jg'
p1148
sg7
F0.155774
sg8
S'Of Mortals'
p1149
sg10
F111.403
sg11
F0.480727
sg12
S'ba620ede-5108-33b6-99e6-367d2a76988f'
p1150
sg14
F0.995796
sg15
I4
sg16
F0.484019
sg17
F1.0
sg18
F2003.0
sg19
F6.39955
sg20
F-21.043
sg21
S'Tbx2yjpp7ieaq4m6bneobldhagy'
p1151
sg23
F0.477002
sg24
L6L
sg25
F0.442279716647
sg26
F0.923094
sa(dp1152
g2
F0.302727
sg3
S"Matt Moran's Contra Band"
p1153
sg5
S'http://lh5.ggpht.com/twGOCHFRa5t_tAAvPL28DvN9EylHoogmssDsd_j0LZIYD4u_lEPkYlSRYhoFgioVCG9ckDpRGGE'
p1154
sg7
F0.586599
sg8
S'Draculas Tavern (Remix Arbic Six Song)'
p1155
sg10
F169.935
sg11
F0.035589
sg12
S'6b1e5eb1-d3c7-3494-8a71-e9f94f732d5b'
p1156
sg14
F0.000594
sg15
I0
sg16
F0.389682
sg17
F4.0
sg18
F2013.0
sg19
F206.51147
sg20
F-15.53
sg21
S'Tncb66a54boi6fhekttl3x3kee4'
p1157
sg23
F0.505881
sg24
L6L
sg25
F0.258036867611
sg26
F0.371102
sa(dp1158
g2
F0.106783
sg3
S'Crooked Fingers'
p1159
sg5
S'http://lh6.ggpht.com/K1lz_sq-Oq1Mem4IGNeSD2sWlMX4eCj1QphGSWkrwwno6VTK2V97CTRYXp2DLEWPi0OEi0Bq0w'
p1160
sg7
F0.374452
sg8
S'Your Apocalypse'
p1161
sg10
F178.006
sg11
F0.028733
sg12
S'c1bf6f52-97da-3de9-978e-ceab0c8ec160'
p1162
sg14
F0.876246
sg15
I0
sg16
F0.459113
sg17
F4.0
sg18
F2011.0
sg19
F222.7688
sg20
F-10.842
sg21
S'Tdxqk2zydfidkucy6xtwdv2w6fi'
p1163
sg23
F0.129723
sg24
L6L
sg25
F0.459953872927
sg26
F0.003758
sa(dp1164
g2
F0.105275
sg3
g1159
sg5
g1160
sg7
F0.639965
sg8
S'Bad Blood'
p1165
sg10
F120.434
sg11
F0.039215
sg12
S'05afef5e-1265-3ca6-88c6-6558fb3bfab3'
p1166
sg14
F0.12482
sg15
I1
sg16
F0.556076
sg17
F4.0
sg18
F2011.0
sg19
F201.54091
sg20
F-8.65
sg21
S'Ti5236bgipph6lq7ikcw33ly5be'
p1167
sg23
F0.603304
sg24
L6L
sg25
F0.459953872927
sg26
F0.000472
sa(dp1168
g2
F0.172881
sg3
S'Gemini Club'
p1169
sg5
S'http://lh6.ggpht.com/wNFerksgy9fOHjUYnZ2c7UH30SaNlkEkZtFlAbs6kY0YoEGbRXV6NQkknS8L0anVO-lKlc8-Hzo'
p1170
sg7
F0.654304
sg8
S'By Surprise'
p1171
sg10
F127.018
sg11
F0.033182
sg12
S'c623f16e-ebc1-373b-b837-073814001865'
p1172
sg14
F0.001323
sg15
I1
sg16
F0.568756
sg17
F4.0
sg18
F2012.0
sg19
F240.8224
sg20
F-8.959
sg21
S'Txc3glzhbpbgsuxgkpepuq2xcry'
p1173
sg23
F0.5646
sg24
L6L
sg25
F0.490329923552
sg26
F3e-06
sa(dp1174
g2
F0.113728
sg3
S'Shawn Chrystopher'
p1175
sg5
S'http://lh3.ggpht.com/mabVRT8CSeIJch2z5BOxXtHvTGfXFJ7xHsfwDAEfI60__prXLFORB-cLNeobCr4cu3lc5BOe'
p1176
sg7
F0.692792
sg8
S'One of My Homies'
p1177
sg10
F147.912
sg11
F0.216578
sg12
S'802334d9-5f11-3caa-ad71-85fb74062c7b'
p1178
sg14
F0.088229
sg15
I3
sg16
F0.639507
sg17
F4.0
sg18
F2012.0
sg19
F253.00417
sg20
F-7.402
sg21
S'Tkowsm5qjovl2h2n22255ugixm4'
p1179
sg23
F0.769965
sg24
L6L
sg25
F0.450085095424
sg26
F8e-06
sa(dp1180
g2
F0.110845
sg3
S'JC Brooks & the Uptown Sound'
p1181
sg5
S'http://lh6.ggpht.com/kyNRnn3QDGKw_ZVzaOCu2t0LBBigpUlzMmINv54q2vzelcaHfdbA7IRC6Gmve21S6UBr9bJNfw'
p1182
sg7
F0.420222
sg8
S'The Beat (Of Our Own Drum)'
p1183
sg10
F197.226
sg11
F0.056398
sg12
S'bf931707-2b91-3fea-9724-4c530875bb75'
p1184
sg14
F0.068649
sg15
I0
sg16
F0.597131
sg17
F4.0
sg18
F2012.0
sg19
F234.99955
sg20
F-9.421
sg21
S'Tctxtd2jl44d5cwbksbsmt757by'
p1185
sg23
F0.544814
sg24
L6L
sg25
F0.542871697728
sg26
F0.114935
sa(dp1186
g2
F0.124972
sg3
g1181
sg5
g1182
sg7
F0.750684
sg8
S"Don't Lock the Door"
p1187
sg10
F128.184
sg11
F0.036437
sg12
S'b0487d03-09f5-3517-991d-823f0fe475b8'
p1188
sg14
F0.35144
sg15
I1
sg16
F0.657892
sg17
F4.0
sg18
F2012.0
sg19
F204.99955
sg20
F-5.357
sg21
S'Tf5qadhnbiegsgwppouqfhc7qkm'
p1189
sg23
F0.872422
sg24
L6L
sg25
F0.542871697728
sg26
F9e-06
sa(dp1190
g2
F0.106905
sg3
g1181
sg5
g1182
sg7
F0.762372
sg8
S'Sister Ray Charles'
p1191
sg10
F121.148
sg11
F0.031982
sg12
S'20af3088-1ccf-3604-910c-906958ea01e5'
p1192
sg14
F0.524495
sg15
I1
sg16
F0.65495
sg17
F4.0
sg18
F2012.0
sg19
F205.03955
sg20
F-5.215
sg21
S'Tbixccshtsxq3trnlupzfzuvkqe'
p1193
sg23
F0.943307
sg24
L6L
sg25
F0.542871697728
sg26
F0.001833
sa(dp1194
g2
F0.163357
sg3
S'Tim Halperin'
p1195
sg5
S'http://lh4.ggpht.com/s0LhXUzUrnm6VKbZd3A9MI0lJ-4Xd5eoJXcgS3CdmCg163qJ1_SkZ8O9AOhvekkR28QbYmV6lQ'
p1196
sg7
F0.707916
sg8
S'I Wanna Fall in Love'
p1197
sg10
F136.009
sg11
F0.028838
sg12
S'ef43f660-d0a8-367a-a198-9a729adaea5d'
p1198
sg14
F0.264176
sg15
I3
sg16
F0.530158
sg17
F4.0
sg18
F2011.0
sg19
F215.59859
sg20
F-5.367
sg21
S'T6t6vbonngq3lhysjgcaednkhry'
p1199
sg23
F0.589864
sg24
L6L
sg25
F0.473572689386
sg26
F1e-06
sa(dp1200
g2
F0.12377
sg3
S'Willie P. Richardson'
p1201
sg5
S'http://lh5.ggpht.com/m9UWNhRLlCHvrnjZGgakpNwFtY9K67CEQapuOqH2ZSxyVm-UYqfi_lqTuqU2EYlHUUrKYVaGdQ'
p1202
sg7
F0.384485
sg8
S"Mailin' Goats"
p1203
sg10
F100.16
sg11
F0.542745
sg12
S'b664f3ac-7ce2-3110-9f48-cd66dac8f156'
p1204
sg14
F0.9909
sg15
I4
sg16
F0.686607
sg17
F4.0
sg18
F1996.0
sg19
F182.46667
sg20
F-16.045
sg21
S'Ttrjdlgm444npmtzfvwuk23l7py'
p1205
sg23
F0.557647
sg24
L6L
sg25
F0.382541001143
sg26
F0.001835
sa(dp1206
g2
F0.480007
sg3
S'Dumpstaphunk'
p1207
sg5
S'http://lh6.ggpht.com/qt9kJcuXs0Lxv2E4grTzXrfd8IgnPqWo1tQxYNjWo579QhcZy5IfjRBQMLQGXc01WDgeGz7LFQ'
p1208
sg7
F0.860233
sg8
S'Everybody Want Sum'
p1209
sg10
F106.242
sg11
F0.073582
sg12
S'ca02854a-8db9-3249-ac6c-a219f780efc6'
p1210
sg14
F0.096361
sg15
I4
sg16
F0.687352
sg17
F4.0
sg18
F2011.0
sg19
F336.90621
sg20
F-4.9
sg21
S'Tzqsscesgqzik6wpstrh2vimzcm'
p1211
sg23
F0.823704
sg24
L6L
sg25
F0.486548390104
sg26
F6.5e-05
sa(dp1212
g2
F0.03708
sg3
g1207
sg5
g1208
sg7
F0.746454
sg8
S'Meanwhile...'
p1213
sg10
F160.596
sg11
F0.173353
sg12
S'513cf269-d70f-39db-96d0-eeb33a66521a'
p1214
sg14
F0.093081
sg15
I3
sg16
F0.588053
sg17
F4.0
sg18
F2011.0
sg19
F240.25288
sg20
F-9.284
sg21
S'Tphnpydesxxggd6wxmaf6nwr3em'
p1215
sg23
F0.79914
sg24
L6L
sg25
F0.486548390104
sg26
F3e-06
sa(dp1216
g2
F0.031702
sg3
g1207
sg5
g1208
sg7
F0.436575
sg8
S'Do Ya'
p1217
sg10
F96.259
sg11
F0.125087
sg12
S'2d75df45-40cb-350d-a890-22d3a0db6384'
p1218
sg14
F0.180897
sg15
I4
sg16
F0.862764
sg17
F3.0
sg18
F2011.0
sg19
F264.97288
sg20
F-6.216
sg21
S'Tc4upzmd6r6rn4rw7nivrzzed2u'
p1219
sg23
F0.890534
sg24
L6L
sg25
F0.486548390104
sg26
F0.000713
sa(dp1220
g2
F0.564404
sg3
g1207
sg5
g1208
sg7
F0.445069
sg8
S'Liar'
p1221
sg10
F101.423
sg11
F0.034441
sg12
S'e27f39e7-36c6-3ec9-8dbf-42ba23419839'
p1222
sg14
F0.31146
sg15
I4
sg16
F0.601952
sg17
F4.0
sg18
F2011.0
sg19
F329.66485
sg20
F-18.268
sg21
S'Ths6i7pvggibe74d6wc5g2f4lhm'
p1223
sg23
F0.870399
sg24
L6L
sg25
F0.224822874628
sg26
F0.116926
sa(dp1224
g2
F0.180382
sg3
S'Lanterns On the Lake'
p1225
sg5
S'http://lh6.ggpht.com/oZIwHKyJOvPZUCHTT4W-Fmmr2v58zyaC4q-a_N5cT9Ck0jFuTlFXOs7gVncUqz92sdyeORF6'
p1226
sg7
F0.517516
sg8
S'Until The Colours Run'
p1227
sg10
F123.146
sg11
F0.081285
sg12
S'22c25a3b-2bd2-3eb1-ae53-2a6108320b65'
p1228
sg14
F0.430214
sg15
I1
sg16
F0.20406
sg17
F4.0
sg18
F2013.0
sg19
F330.001
sg20
F-11.474
sg21
S'T5sdaapkwowt3qoht2fmpwq5wvu'
p1229
sg23
F0.16192
sg24
L6L
sg25
F0.520956071682
sg26
F0.61899
sa(dp1230
g2
F0.265032
sg3
S'Kellee Maize'
p1231
sg5
S'http://lh6.ggpht.com/ZwSzvHe9ncs5lqJiuRxpskmCDfnbZZf9A22vFVxXDQVpcsKMBt_ydPyG0ZTjaxcSrEujHe5QOM8'
p1232
sg7
F0.72323
sg8
S'Frack Track (feat. Nice Nate)'
p1233
sg10
F81.847
sg11
F0.13143
sg12
S'd1fe0ef6-fbec-33c8-9e8b-72e0787bcf01'
p1234
sg14
F0.079133
sg15
I2
sg16
F0.354819
sg17
F4.0
sg18
F2014.0
sg19
F330.78844
sg20
F-4.394
sg21
S'Tvo34ygcldrjzrmtzjmue5qcjd4'
p1235
sg23
F0.536707
sg24
L6L
sg25
F0.466890261436
sg26
F0.038351
sa(dp1236
g2
F0.104199
sg3
g1231
sg5
g1232
sg7
F0.744624
sg8
S'Dancing with Lightning (feat. J. Glaze)'
p1237
sg10
F132.011
sg11
F0.132774
sg12
S'b4094667-6d8a-3436-b855-a439fa006010'
p1238
sg14
F0.006033
sg15
I1
sg16
F0.743242
sg17
F4.0
sg18
F2014.0
sg19
F222.9541
sg20
F-3.623
sg21
S'Twfk7uhvyabpxy4s6w75uhdjwca'
p1239
sg23
F0.438774
sg24
L6L
sg25
F0.466890261436
sg26
F0.000418
sa(dp1240
g2
F0.151912
sg3
g1231
sg5
g1232
sg7
F0.899889
sg8
S'Today (feat. Headphone Activist)'
p1241
sg10
F89.684
sg11
F0.062503
sg12
S'fc7371ff-43ca-3598-8c4f-67d8acd05923'
p1242
sg14
F0.000332
sg15
I4
sg16
F0.40005
sg17
F4.0
sg18
F2014.0
sg19
F205.33288
sg20
F-2.111
sg21
S'Til4j767maj4n63gymqntrtbalq'
p1243
sg23
F0.302611
sg24
L6L
sg25
F0.466890261436
sg26
F2e-06
sa(dp1244
g2
F0.138971
sg3
g1231
sg5
g1232
sg7
F0.762594
sg8
S'Rise (feat. the Siren)'
p1245
sg10
F122.367
sg11
F0.063766
sg12
S'0a4d5dc4-262d-3727-8b69-6466bb7a24bd'
p1246
sg14
F0.128966
sg15
I1
sg16
F0.370071
sg17
F1.0
sg18
F2014.0
sg19
F330.66621
sg20
F-5.758
sg21
S'Tq2kslkz4igmp63mkcigk5xmcfy'
p1247
sg23
F0.240276
sg24
L6L
sg25
F0.466890261436
sg26
F3e-06
sa(dp1248
g2
F0.104806
sg3
g1231
sg5
g1232
sg7
F0.419578
sg8
S'Indo Amnesia (feat. Nice Nate)'
p1249
sg10
F122.725
sg11
F0.228955
sg12
S'3869bfb3-e2bf-3133-b1ae-e71800bf8903'
p1250
sg14
F0.247868
sg15
I1
sg16
F0.507019
sg17
F4.0
sg18
F2014.0
sg19
F187.31624
sg20
F-7.673
sg21
S'Tjq5v4g5rzrlkggu2k74bvvjkj4'
p1251
sg23
F0.354271
sg24
L6L
sg25
F0.466890261436
sg26
F0.044476
sa(dp1252
g2
F0.243577
sg3
g1231
sg5
g1232
sg7
F0.679476
sg8
S'Belong (feat. Headphone Activist)'
p1253
sg10
F140.024
sg11
F0.044644
sg12
S'a4d9339a-a86b-3273-bcad-98ef1e66bf6f'
p1254
sg14
F0.182759
sg15
I3
sg16
F0.52916
sg17
F4.0
sg18
F2014.0
sg19
F306.03079
sg20
F-6.793
sg21
S'T5brtwljmyu4xzjixyhs62ky57i'
p1255
sg23
F0.115253
sg24
L6L
sg25
F0.466890261436
sg26
F3.8e-05
sa(dp1256
g2
F0.119063
sg3
S'All We Are'
p1257
sg5
S'http://lh3.ggpht.com/Rt_cBYIy7Cpaue907APZ9KOk-qCFCfKZFxEyeLZbHN7xB8ZrZ_YohjdGj1AXPWLAs22xwLIZaTQ'
p1258
sg7
F0.493471
sg8
S'Feel Safe'
p1259
sg10
F112.704
sg11
F0.054681
sg12
S'027328de-bf87-3111-b356-08a9e212f395'
p1260
sg14
F0.094397
sg15
I1
sg16
F0.702557
sg17
F4.0
sg18
F2015.0
sg19
F267.25333
sg20
F-8.959
sg21
S'T6swnhixzeq3p45mt2otve5cm4e'
p1261
sg23
F0.518395
sg24
L6L
sg25
F0.562163416495
sg26
F0.409503
sa(dp1262
g2
F0.208071
sg3
S'The Whigs'
p1263
sg5
S'http://lh3.ggpht.com/VAWyRNaTP0YU07aG8Mj-JgUirfsLFBLYfed81m88owPJzSQv5EldmPB7BlkQDZwyPlgSuY8VZ_0'
p1264
sg7
F0.865466
sg8
S'Black Lotus'
p1265
sg10
F140.894
sg11
F0.034981
sg12
S'50b5f1ef-7fa9-39f1-a9b5-f3709eae40ac'
p1266
sg14
F5.4e-05
sg15
I3
sg16
F0.41383
sg17
F4.0
sg18
F2012.0
sg19
F216.74621
sg20
F-5.168
sg21
S'Tnwppfahqdem5pwcmk7gj6wwwv4'
p1267
sg23
F0.364126
sg24
L6L
sg25
F0.418299168636
sg26
F1e-06
sa(dp1268
g2
F0.084266
sg3
S'Feather & Belle'
p1269
sg5
g1264
sg7
F0.207823
sg8
S'Rings On Fingers'
p1270
sg10
F114.831
sg11
F0.030752
sg12
S'66bf66d2-79ba-352b-bd37-298a8b730f94'
p1271
sg14
F0.639278
sg15
I1
sg16
F0.546866
sg17
F4.0
sg18
F2012.0
sg19
F220.75955
sg20
F-13.227
sg21
S'Tzw73pto65qpepxrubkek5ro6la'
p1272
sg23
F0.224056
sg24
L6L
sg25
F0.360503634538
sg26
F0.003445
sa(dp1273
g2
F0.09447
sg3
g1269
sg5
g1264
sg7
F0.462789
sg8
S'All Along'
p1274
sg10
F149.936
sg11
F0.071855
sg12
S'236d7414-c909-32ba-9728-7819ecae6a09'
p1275
sg14
F0.325937
sg15
I3
sg16
F0.562277
sg17
F4.0
sg18
F2012.0
sg19
F164.34621
sg20
F-10.067
sg21
S'Tugoopok6znqy6yskcgxnwnuv3i'
p1276
sg23
F0.542521
sg24
L6L
sg25
F0.360503634538
sg26
F0.000933
sa(dp1277
g2
F0.248992
sg3
S'Fort Lean'
p1278
sg5
g1264
sg7
F0.933476
sg8
S'Perfect'
p1279
sg10
F173.382
sg11
F0.04975
sg12
S'55c595e0-ce6c-3a58-befb-36b8c74ef21d'
p1280
sg14
F4e-05
sg15
I0
sg16
F0.307052
sg17
F4.0
sg18
F2012.0
sg19
F156.45288
sg20
F-6.703
sg21
S'Tw22vf7swusz5lpunt7lol6uq5i'
p1281
sg23
F0.428135
sg24
L6L
sg25
F0.487558872394
sg26
F0.531943
sa(dp1282
g2
F0.114648
sg3
S'Pepper Rabbit'
p1283
sg5
S'http://lh3.ggpht.com/LMnoJ5uhH5hAzB0jBGlBFovzoVeCXWKoE1FyxsJJGLQr6JlmFRayfl7nXWaEgUfv7f-rwyOa'
p1284
sg7
F0.826882
sg8
S'Family Planning'
p1285
sg10
F94.97
sg11
F0.047333
sg12
S'de1e8d13-3cbf-39b9-92f4-56f58711d780'
p1286
sg14
F0.124715
sg15
I4
sg16
F0.405738
sg17
F3.0
sg18
F2011.0
sg19
F233.61288
sg20
F-5.493
sg21
S'Ta6dwlgd7ujxcwks2cnislw25ce'
p1287
sg23
F0.337131
sg24
L6L
sg25
F0.529591888426
sg26
F0.056424
sa(dp1288
g2
F0.118089
sg3
g1283
sg5
g1284
sg7
F0.59243
sg8
S'Murder Room'
p1289
sg10
F112.571
sg11
F0.027274
sg12
S'3e1f83ef-16e5-3e2b-b8e7-b33986135929'
p1290
sg14
F0.099267
sg15
I1
sg16
F0.688133
sg17
F4.0
sg18
F2011.0
sg19
F210.03955
sg20
F-5.261
sg21
S'T3vnize5v7yxb42smlk6v5lrgwa'
p1291
sg23
F0.70769
sg24
L6L
sg25
F0.529591888426
sg26
F0.048345
sa(dp1292
g2
F0.120294
sg3
g1283
sg5
g1284
sg7
F0.414351
sg8
S'Older Brother'
p1293
sg10
F120.901
sg11
F0.029093
sg12
S'b96b0342-2dd6-3969-9f79-694ce77180be'
p1294
sg14
F0.450605
sg15
I1
sg16
F0.574715
sg17
F4.0
sg18
F2011.0
sg19
F197.65288
sg20
F-11.148
sg21
S'Traodz3ty3w4gk7s52yoauvcwly'
p1295
sg23
F0.365549
sg24
L6L
sg25
F0.529591888426
sg26
F0.00036
sa(dp1296
g2
F0.071992
sg3
g1283
sg5
g1284
sg7
F0.581168
sg8
S'Allison'
p1297
sg10
F87.976
sg11
F0.025015
sg12
S'b56ea300-6d25-36c8-869b-4ffcc1383151'
p1298
sg14
F0.112266
sg15
I2
sg16
F0.614593
sg17
F4.0
sg18
F2011.0
sg19
F264.15955
sg20
F-7.49
sg21
S'Tymyiz3dpnt2c65inlijjo5x6om'
p1299
sg23
F0.33376
sg24
L6L
sg25
F0.529591888426
sg26
F0.358986
sa(dp1300
g2
F0.213605
sg3
g1283
sg5
g1284
sg7
F0.860198
sg8
S'Rose Mary Stretch'
p1301
sg10
F170.035
sg11
F0.051305
sg12
S'f015d77f-43e1-3c40-a0f3-7ea3e0febe79'
p1302
sg14
F0.007002
sg15
I0
sg16
F0.554987
sg17
F3.0
sg18
F2011.0
sg19
F199.90621
sg20
F-5.1
sg21
S'Tbpmy2wpskjkhs6f5vv2rwasavu'
p1303
sg23
F0.717108
sg24
L6L
sg25
F0.529591888426
sg26
F0.565652
sa(dp1304
g2
F0.083881
sg3
g1283
sg5
g1284
sg7
F0.697764
sg8
S'The Annexation Of Puerto Rico'
p1305
sg10
F90.037
sg11
F0.025721
sg12
S'cb3d4bce-ca0c-3234-87ef-15b0e2fea329'
p1306
sg14
F0.409346
sg15
I4
sg16
F0.534913
sg17
F4.0
sg18
F2011.0
sg19
F269.39955
sg20
F-6.725
sg21
S'Ttiingixlewei7wanjmddeghlgy'
p1307
sg23
F0.266517
sg24
L6L
sg25
F0.529591888426
sg26
F0.72711
sa(dp1308
g2
F0.221057
sg3
g1283
sg5
g1284
sg7
F0.783922
sg8
S'None Shall Sleep'
p1309
sg10
F132.002
sg11
F0.038396
sg12
S'5a61cd74-20ae-371f-8a19-14abaebd25bf'
p1310
sg14
F0.171774
sg15
I1
sg16
F0.478827
sg17
F4.0
sg18
F2011.0
sg19
F321.5912
sg20
F-7.642
sg21
S'T3ztcnmp7sm5d3e3dnmd3ptuv64'
p1311
sg23
F0.117242
sg24
L6L
sg25
F0.529591888426
sg26
F0.045011
sa(dp1312
g2
F0.208833
sg3
S'Tre Ace'
p1313
sg5
S'http://lh6.ggpht.com/ynwmkuRhqOCM3aiBhClmscjAXZWup1BblHSIfE5fs26nvgLXhrBNLXjPlil4F31P7X9LyMIi'
p1314
sg7
F0.72856
sg8
S'So Into You'
p1315
sg10
F139.932
sg11
F0.068888
sg12
S'3880f4d7-5765-3582-8ba4-3295f4869c4b'
p1316
sg14
F0.01052
sg15
I3
sg16
F0.524872
sg17
F4.0
sg18
F2014.0
sg19
F111.46512
sg20
F-9.617
sg21
S'Tqa44l6daottc2q6pbnwollwwku'
p1317
sg23
F0.406386
sg24
L6L
sg25
F0.245935556317
sg26
F0.000352
sa(dp1318
g2
F0.127567
sg3
g1313
sg5
g1314
sg7
F0.431946
sg8
S'Heavenly Father'
p1319
sg10
F87.821
sg11
F0.185972
sg12
S'06c2af34-72e0-34bc-9967-0b02019745dc'
p1320
sg14
F0.572333
sg15
I2
sg16
F0.706462
sg17
F4.0
sg18
F2014.0
sg19
F190.77288
sg20
F-9.291
sg21
S'T5dc3gxc2vzpsktvk4hxnd5ixq4'
p1321
sg23
F0.783823
sg24
L6L
sg25
F0.245935556317
sg26
F5e-06
sa(dp1322
g2
F0.129138
sg3
g1313
sg5
g1314
sg7
F0.361399
sg8
S'I Will'
p1323
sg10
F75.091
sg11
F0.148545
sg12
S'6826aab3-e154-3952-84cb-13f562573284'
p1324
sg14
F0.540319
sg15
I2
sg16
F0.838701
sg17
F4.0
sg18
F2014.0
sg19
F248.00717
sg20
F-11.587
sg21
S'Tjglarhnxzr2nqer5z77bqghzmy'
p1325
sg23
F0.247653
sg24
L6L
sg25
F0.245935556317
sg26
F2.1e-05
sa(dp1326
g2
F0.108596
sg3
S'Marc Enfroy'
p1327
sg5
S'http://lh4.ggpht.com/XNUteZBmRpFNQlyrNqvVUU-mFkYTwhvMkJKwbRpbVWfZow_-ofoTG-YQp7ZSNeZRg5at7Fbo'
p1328
sg7
F0.27134
sg8
S'Uniqueness'
p1329
sg10
F79.986
sg11
F0.028856
sg12
S'63e716a3-15ea-307f-9050-9c655039ea71'
p1330
sg14
F0.931002
sg15
I2
sg16
F0.371784
sg17
F3.0
sg18
F2011.0
sg19
F284.89098
sg20
F-11.96
sg21
S'Tntuojxikhehszrhtfgrdjann2u'
p1331
sg23
F0.084018
sg24
L6L
sg25
F0.457844430734
sg26
F0.563804
sa(dp1332
g2
F0.379013
sg3
S'Sirion'
p1333
sg5
S'http://lh4.ggpht.com/gREGNOMAWC_l2opZxVtnbMDZ5hZzWCOsR9UbDaNwP_mDLxY0HeiywbnCyxtCgxIT6xKHRRUN1g'
p1334
sg7
F0.801005
sg8
S'Intro'
p1335
sg10
F144.049
sg11
F0.069896
sg12
S'268a8c1d-6c03-37d8-9d3c-c332bb06a19d'
p1336
sg14
F0.018552
sg15
I3
sg16
F0.472562
sg17
F4.0
sg18
F2010.0
sg19
F171.22621
sg20
F-12.649
sg21
S'Tqzogvffak5muwxwyjyofvv5m54'
p1337
sg23
F0.128958
sg24
L6L
sg25
F0.466138835288
sg26
F0.917457
sa(dp1338
g2
F0.096424
sg3
S'A*S*Y*S'
p1339
sg5
S'http://lh5.ggpht.com/R2AmPKqs3jV_NOVDaZKDGO2qgZLc9nogUNaC9hN9nzEbIJ6gVSvkS3xfse3BaqmWIzIUAHylrg'
p1340
sg7
F0.592717
sg8
S'Bassturbation - Oyaebu Break Cut'
p1341
sg10
F140.012
sg11
F0.262772
sg12
S'180e63d2-9091-33bc-b948-6613a187a8b9'
p1342
sg14
F0.000393
sg15
I3
sg16
F0.722479
sg17
F4.0
sg18
F2012.0
sg19
F373.71383
sg20
F-7.398
sg21
S'Tntfzpsfkhpxt4hqhvjhs6n6lza'
p1343
sg23
F0.282421
sg24
L6L
sg25
F0.488779257272
sg26
F0.778127
sa(dp1344
g2
F0.099743
sg3
S'The Last Vegas'
p1345
sg5
S'http://lh3.ggpht.com/JzDb6yUXMEl037YI_luJVbshsF2XEpzYCXLWLeVOaT7NDRVXFe4uMizqeTD0gJ_yMrJfVgJtcw'
p1346
sg7
F0.867185
sg8
S'Other Side'
p1347
sg10
F131.923
sg11
F0.067159
sg12
S'd72e32bb-017b-3aae-9083-17fd3188e756'
p1348
sg14
F0.001513
sg15
I1
sg16
F0.537049
sg17
F4.0
sg18
F2011.0
sg19
F187.25333
sg20
F-6.479
sg21
S'Td2kx5scm3f4xgaa3nymtsrhbxi'
p1349
sg23
F0.677895
sg24
L6L
sg25
F0.493533822468
sg26
F0.000108
sa(dp1350
g2
F0.015867
sg3
S'Joe K'
p1351
sg5
S'http://lh5.ggpht.com/sStRtu6sxGvQdmvCZu2TXqmAR8tPLZXKcQKDOHHB_ILFjl-Q30T8Hj6QceoJULTVso_rGkbRxw'
p1352
sg7
F0.950909
sg8
S'Back to Salvador (Back to the 2003 original mix)'
p1353
sg10
F128.0
sg11
F0.064321
sg12
S'f1bb0b10-cbd8-39a5-b106-3be6f1cc34bd'
p1354
sg14
F0.000128
sg15
I1
sg16
F0.701111
sg17
F4.0
sg18
F2010.0
sg19
F377.41669
sg20
F-8.966
sg21
S'Ts4jqvlh7nktsfzafnoytakoikq'
p1355
sg23
F0.469967
sg24
L6L
sg25
F0.431659383237
sg26
F0.867934
sa(dp1356
g2
F0.123024
sg3
S'Robin Spielberg'
p1357
sg5
S'http://lh4.ggpht.com/4Yk8mkiYtj7vqLT_2hEeD4LUm2tXlBQgkQKrHG15TNx0WndY5dsmgPoBNIicXxmrHHSk864S5Q'
p1358
sg7
F0.022272
sg8
S'Amazing Grace/Silent Night'
p1359
sg10
F166.383
sg11
F0.032896
sg12
S'e160be12-e1fe-3804-9689-4a36ff5681a0'
p1360
sg14
F0.983095
sg15
I0
sg16
F0.265498
sg17
F4.0
sg18
F2005.0
sg19
F272.59955
sg20
F-21.385
sg21
S'Tht5yubc3gsazayj3ixd3ofcqke'
p1361
sg23
F0.067347
sg24
L6L
sg25
F0.491936204326
sg26
F0.852588
sa(dp1362
g2
F0.138491
sg3
S'Icebird'
p1363
sg5
S'http://lh3.ggpht.com/29JsN9XVfLVNExr9ggDSMZ-uLu5wxBbEa9LcMnkGjRDdQa43k1bpqp7Hnt8rDaHt2bPo233IYA'
p1364
sg7
F0.820941
sg8
S'Going and Going. and Going. (Feat. rjd2 & Aaron Livingston)'
p1365
sg10
F125.882
sg11
F0.096385
sg12
S'c036b465-74c9-3c3e-b15c-be59b7caad8f'
p1366
sg14
F0.028226
sg15
I1
sg16
F0.586116
sg17
F4.0
sg18
F2011.0
sg19
F258.87955
sg20
F-7.261
sg21
S'Tv4ln7on3mknzkproqmdpu2r7q4'
p1367
sg23
F0.157252
sg24
L6L
sg25
F0.460081479025
sg26
F0.00132
sa(dp1368
g2
F0.11303
sg3
S'Jesse Harris'
p1369
sg5
S'http://lh3.ggpht.com/rAxF4ennzxQkGOlJuOfa62kTCjdfJcjdu0CDORxkd_3cyKU_VyTwbb0QoMm7sFImPB3jV4jAbLo'
p1370
sg7
F0.49506
sg8
S"I Won't Wait (feat. Conor Oberst)"
p1371
sg10
F138.979
sg11
F0.029786
sg12
S'1a526d92-7d4e-3595-ad6c-8a20fc791be4'
p1372
sg14
F0.486549
sg15
I3
sg16
F0.605496
sg17
F4.0
sg18
F2012.0
sg19
F164.67982
sg20
F-9.455
sg21
S'Typfrbfpcplfa3oso33ztcstw5e'
p1373
sg23
F0.618432
sg24
L6L
sg25
F0.439061034445
sg26
F0.054106
sa(dp1374
g2
F0.283787
sg3
S'Torn Hawk'
p1375
sg5
S'http://lh5.ggpht.com/_XUiU9Pu06ihw0fwsMruvt5UjZ0KB0TBfcAD-tHgqJQvpLE7rq7RAs6qMUwKEd3BwAK0brdXZUw'
p1376
sg7
F0.797162
sg8
S"I'm Flexible"
p1377
sg10
F159.925
sg11
F0.088578
sg12
S'329ea40b-ceee-3bd0-b56d-a0f1a5d94995'
p1378
sg14
F0.000289
sg15
I3
sg16
F0.506863
sg17
F4.0
sg18
F2014.0
sg19
F349.69819
sg20
F-7.856
sg21
S'Tczawysdd5zxgbjsvmowzd65tiy'
p1379
sg23
F0.506188
sg24
L6L
sg25
F0.505085747993
sg26
F0.856313
sa(dp1380
g2
F0.111319
sg3
S'Steven Cravis'
p1381
sg5
S'http://lh3.ggpht.com/HP3YLPHLqfrJsph3CctUS8k3-KknLU2oaL6tVGpl-EcIN4I5or-uGdn1Kmu3nWXVPUxPN4LxyQ'
p1382
sg7
F0.767399
sg8
S'Aitzaz'
p1383
sg10
F99.989
sg11
F0.030568
sg12
S'e7e605af-663a-3c7b-a5cc-f99555e0e20a'
p1384
sg14
F0.000218
sg15
I4
sg16
F0.605617
sg17
F4.0
sg18
F2014.0
sg19
F180.00268
sg20
F-7.934
sg21
S'Tqd576l5fx7yozickxopsq75wlm'
p1385
sg23
F0.260782
sg24
L6L
sg25
F0.491604045251
sg26
F0.894873
sa(dp1386
g2
F0.249077
sg3
S'Kelley Stoltz'
p1387
sg5
S'http://lh3.ggpht.com/h3N48N_f_4Ehg4AqGwcTolRzMHnzlok_dnv2ZM79xs6n3QfHE-_mDrE-Kllbr4dFxIcxdm0TWw'
p1388
sg7
F0.804271
sg8
S'Double Exposure'
p1389
sg10
F136.477
sg11
F0.037397
sg12
S'6f01aabb-7219-39a3-bed6-47982681e6f0'
p1390
sg14
F0.001577
sg15
I3
sg16
F0.509203
sg17
F4.0
sg18
F2013.0
sg19
F163.97288
sg20
F-6.304
sg21
S'T4bbxwlqoohj4e36stnbl5uzbcm'
p1391
sg23
F0.897084
sg24
L6L
sg25
F0.47170933954
sg26
F0.126835
sa(dp1392
g2
F0.687127
sg3
S'NO'
p1393
sg5
S'http://lh4.ggpht.com/4gJ7N0ymXT-wOMNL6wMcdHVspECyQeLNmA4cliJkBvWYY5I5FQZS_ps2MvxZfZsk86Z-Ls8i5Rg'
p1394
sg7
F0.892588
sg8
S'Big Waves'
p1395
sg10
F130.982
sg11
F0.035805
sg12
S'6def7a01-dcfa-3acb-8a9c-4ceaf8f79bf1'
p1396
sg14
F0.001438
sg15
I1
sg16
F0.536296
sg17
F4.0
sg18
F2011.0
sg19
F203.65288
sg20
F-4.903
sg21
S'Tmln7udllx5vg6y2jg2ixmjacri'
p1397
sg23
F0.321535
sg24
L6L
sg25
F0.450018983089
sg26
F0.018707
sa(dp1398
g2
F0.161063
sg3
g1393
sg5
g1394
sg7
F0.237602
sg8
S'Another Life'
p1399
sg10
F99.802
sg11
F0.03156
sg12
S'eddef3e6-0e2a-3718-a945-b638559b8855'
p1400
sg14
F0.478931
sg15
I4
sg16
F0.315956
sg17
F4.0
sg18
F2011.0
sg19
F432.32717
sg20
F-18.736
sg21
S'Tltccsliud43y62kslm4d5vbl2e'
p1401
sg23
F0.034516
sg24
L6L
sg25
F0.0627598776851
sg26
F0.943353
sa(dp1402
g2
F0.111614
sg3
g1393
sg5
g1394
sg7
F0.630527
sg8
S'Coming Down'
p1403
sg10
F156.032
sg11
F0.0389
sg12
S'ea36de16-25f4-3528-b3b8-2a67088c8589'
p1404
sg14
F0.050127
sg15
I3
sg16
F0.549475
sg17
F3.0
sg18
F2011.0
sg19
F176.26621
sg20
F-7.523
sg21
S'Tgyt2ghnntq7voevuutgkpx2xue'
p1405
sg23
F0.30577
sg24
L6L
sg25
F0.450018983089
sg26
F0.059244
sa(dp1406
g2
F0.121205
sg3
g1393
sg5
g1394
sg7
F0.553807
sg8
S'Stay With Me'
p1407
sg10
F103.947
sg11
F0.032653
sg12
S'a6b00045-81cd-3905-94f4-b5ae9bc45f25'
p1408
sg14
F0.016466
sg15
I4
sg16
F0.325497
sg17
F4.0
sg18
F2011.0
sg19
F280.04
sg20
F-8.945
sg21
S'Tmo4rjlrh5j7ozliojr2f4vit3y'
p1409
sg23
F0.135632
sg24
L6L
sg25
F0.450018983089
sg26
F0.183058
sa(dp1410
g2
F0.068335
sg3
g1393
sg5
g1394
sg7
F0.723023
sg8
S'The Long Haul'
p1411
sg10
F161.124
sg11
F0.036045
sg12
S'fd9b10bc-de79-3a7f-a80c-f5f04c6ff934'
p1412
sg14
F0.008894
sg15
I3
sg16
F0.449545
sg17
F4.0
sg18
F2011.0
sg19
F256.82667
sg20
F-8.084
sg21
S'Tpgyi6bbjl44w7av6e6um2drjg4'
p1413
sg23
F0.548256
sg24
L6L
sg25
F0.450018983089
sg26
F0.01775
sa(dp1414
g2
F0.079817
sg3
S'Youngin'
p1415
sg5
S'http://lh6.ggpht.com/4-4Bj20mM1tmVjSPQl0zjenHJfacAuf4tsOPM1ezlWSnp4oJoG0OflWXZiGEpOS9Mf1msuLNXw'
p1416
sg7
F0.891944
sg8
S'Greatness'
p1417
sg10
F174.099
sg11
F0.112418
sg12
S'bf381593-0b92-31f4-8a73-da2d77dad132'
p1418
sg14
F0.000133
sg15
I0
sg16
F0.789928
sg17
F4.0
sg18
F2013.0
sg19
F275.21415
sg20
F-6.609
sg21
S'Tbx3nai47ksa4esmsiaxlou3uhy'
p1419
sg23
F0.501164
sg24
L6L
sg25
F0.334559809193
sg26
F7.1e-05
sa(dp1420
g2
F0.068422
sg3
g1415
sg5
g1416
sg7
F0.841297
sg8
S'Dc On Tha Rise'
p1421
sg10
F130.024
sg11
F0.162462
sg12
S'215d9561-02ec-383d-9413-7e4ebf3a34d9'
p1422
sg14
F0.011345
sg15
I1
sg16
F0.822194
sg17
F4.0
sg18
F2013.0
sg19
F313.92762
sg20
F-4.731
sg21
S'Ta42tigndexl6pwdql6ccaztd6e'
p1423
sg23
F0.705009
sg24
L6L
sg25
F0.334559809193
sg26
F6e-06
sa(dp1424
g2
F0.157475
sg3
g1415
sg5
g1416
sg7
F0.591995
sg8
S'Distinction (Intro)'
p1425
sg10
F92.038
sg11
F0.274198
sg12
S'92b5c171-7f6a-3446-9f51-4449653a51d7'
p1426
sg14
F0.032369
sg15
I4
sg16
F0.822595
sg17
F4.0
sg18
F2013.0
sg19
F171.97823
sg20
F-6.2
sg21
S'Tuzrkqfvant2ipcqox2ctsgh3ce'
p1427
sg23
F0.703396
sg24
L6L
sg25
F0.334559809193
sg26
F2e-06
sa(dp1428
g2
F0.154826
sg3
g1415
sg5
g1416
sg7
F0.761056
sg8
S'Mindstate of a Murderer'
p1429
sg10
F89.989
sg11
F0.036796
sg12
S'fb9669e3-e0a2-39e0-90df-f9852399ec06'
p1430
sg14
F0.001577
sg15
I4
sg16
F0.780837
sg17
F4.0
sg18
F2013.0
sg19
F215.13252
sg20
F-5.485
sg21
S'Tvgazqvtrvizg3kfhii7i5t663m'
p1431
sg23
F0.526575
sg24
L6L
sg25
F0.334559809193
sg26
F1e-06
sa(dp1432
g2
F0.062096
sg3
g1415
sg5
g1416
sg7
F0.895992
sg8
S'2095'
p1433
sg10
F120.023
sg11
F0.083357
sg12
S'5de0da1b-6289-32f8-b7a9-0b267b868ba0'
p1434
sg14
F0.026029
sg15
I1
sg16
F0.861372
sg17
F4.0
sg18
F2013.0
sg19
F202.38476
sg20
F-6.0
sg21
S'Tf6i2vfmoc6qgv7ola4msntxk5m'
p1435
sg23
F0.844714
sg24
L6L
sg25
F0.334559809193
sg26
F2.3e-05
sa(dp1436
g2
F0.069058
sg3
g1415
sg5
g1416
sg7
F0.691697
sg8
S"It's Just Us"
p1437
sg10
F139.963
sg11
F0.279152
sg12
S'1f04a27e-faf4-326b-9954-ded26579c678'
p1438
sg14
F0.001001
sg15
I3
sg16
F0.80204
sg17
F4.0
sg18
F2013.0
sg19
F195.3317
sg20
F-6.416
sg21
S'Twmpab7uikmdnw6nzk5qfdsvuia'
p1439
sg23
F0.746087
sg24
L6L
sg25
F0.334559809193
sg26
F2e-06
sa(dp1440
g2
F0.109705
sg3
S'Borntrippy'
p1441
sg5
S'http://lh6.ggpht.com/M5j79Pfi7HTUiFyVpbt72uAVs9Ol4X2lrRvF4BkmVHKLhqqsWVXL1sx7yUC4K4lg9d6kgkiT_A'
p1442
sg7
F0.498794
sg8
S'Been Grey for a While (Short Static Mix)'
p1443
sg10
F120.058
sg11
F0.084642
sg12
S'ce2b5356-75cb-317b-b7b4-ba93dca82bf6'
p1444
sg14
F0.255043
sg15
I1
sg16
F0.525283
sg17
F4.0
sg18
F2007.0
sg19
F226.71628
sg20
F-14.77
sg21
S'T35zazqwszezdxxurt47tbd4bwu'
p1445
sg23
F0.134436
sg24
L6L
sg25
F0.275994516708
sg26
F0.117128
sa(dp1446
g2
F0.183982
sg3
g1441
sg5
g1442
sg7
F0.92687
sg8
S'Been Grey for a While (This Side of the White Mix)'
p1447
sg10
F120.011
sg11
F0.069701
sg12
S'9e70bcfa-de74-31ea-af7a-f1f814a46464'
p1448
sg14
F0.002914
sg15
I1
sg16
F0.560592
sg17
F4.0
sg18
F2007.0
sg19
F384.05955
sg20
F-10.24
sg21
S'T5fbazc3sn3l54zgsmqjj6hm3c4'
p1449
sg23
F0.200814
sg24
L6L
sg25
F0.275994516708
sg26
F0.729275
sa(dp1450
g2
F0.28922
sg3
g1441
sg5
g1442
sg7
F0.355618
sg8
S'Gift for the Aliens (Musicbox On Mars Mix)'
p1451
sg10
F130.011
sg11
F0.049048
sg12
S'dde5d8fa-fa9d-3295-95f6-aa559b968df8'
p1452
sg14
F0.501348
sg15
I1
sg16
F0.484562
sg17
F4.0
sg18
F2007.0
sg19
F373.02812
sg20
F-16.241
sg21
S'Tuukg76pstwbjxr2sydu4s4pgze'
p1453
sg23
F0.047855
sg24
L6L
sg25
F0.275994516708
sg26
F0.355826
sa(dp1454
g2
F0.057162
sg3
g1441
sg5
g1442
sg7
F0.385495
sg8
S'Sun Through Cloud Through Rain'
p1455
sg10
F74.914
sg11
F0.034653
sg12
S'323a0677-d54f-34c4-b6e4-a68f30dfff7e'
p1456
sg14
F0.364223
sg15
I2
sg16
F0.315789
sg17
F5.0
sg18
F2007.0
sg19
F313.53156
sg20
F-13.866
sg21
S'Thw3kdrivcs6iaxkchaghig76sq'
p1457
sg23
F0.126843
sg24
L6L
sg25
F0.275994516708
sg26
F9.1e-05
sa(dp1458
g2
F0.083979
sg3
g1441
sg5
g1442
sg7
F0.42053
sg8
S'The View from My Cave'
p1459
sg10
F119.412
sg11
F0.062771
sg12
S'21b50bb5-2ad3-3fd9-a85a-564041e80eb2'
p1460
sg14
F0.515845
sg15
I1
sg16
F0.387715
sg17
F4.0
sg18
F2007.0
sg19
F308.79556
sg20
F-14.577
sg21
S'T32caeb6f7mh5utozsw67kqs6hu'
p1461
sg23
F0.08391
sg24
L6L
sg25
F0.275994516708
sg26
F0.821236
sa(dp1462
g2
F0.245495
sg3
g1441
sg5
g1442
sg7
F0.809897
sg8
S"I'll Go to My Helix"
p1463
sg10
F140.027
sg11
F0.034914
sg12
S'f196516c-0c50-3b13-b58d-f74398663efb'
p1464
sg14
F0.885055
sg15
I3
sg16
F0.635373
sg17
F4.0
sg18
F2007.0
sg19
F203.13156
sg20
F-10.394
sg21
S'Tnjwbym5imlshjnksaf7i4hn2vy'
p1465
sg23
F0.500484
sg24
L6L
sg25
F0.275994516708
sg26
F0.896825
sa(dp1466
g2
F0.201845
sg3
g1441
sg5
g1442
sg7
F0.393992
sg8
S'Warm Mushy Minds'
p1467
sg10
F159.988
sg11
F0.044187
sg12
S'd81d60d0-def6-3cc6-bf44-1ea80a34043b'
p1468
sg14
F0.019942
sg15
I3
sg16
F0.491327
sg17
F4.0
sg18
F2007.0
sg19
F198.07556
sg20
F-19.668
sg21
S'Tsvcv7z65oibv56jrgoeyfqjcby'
p1469
sg23
F0.178276
sg24
L6L
sg25
F0.275994516708
sg26
F0.591065
sa(dp1470
g2
F0.155824
sg3
g1441
sg5
g1442
sg7
F0.337295
sg8
S'As I Open the Door'
p1471
sg10
F139.954
sg11
F0.153615
sg12
S'ef9b3488-9b51-34c3-a481-48614ce3ad7c'
p1472
sg14
F0.042726
sg15
I3
sg16
F0.40641
sg17
F4.0
sg18
F2007.0
sg19
F360.76354
sg20
F-15.458
sg21
S'Ti47omzfdog7qdxp44h73d7frym'
p1473
sg23
F0.054957
sg24
L6L
sg25
F0.275994516708
sg26
F0.624006
sa(dp1474
g2
F0.045368
sg3
S'No Sports'
p1475
sg5
S'http://lh6.ggpht.com/D3b5GOPzF3g79PeTOw4JfGdMU38SdZzzKcnoIcTjbaOsVxPWP3768UXHnzLiFfrvIr1idGjblg'
p1476
sg7
F0.803217
sg8
S'Five'
p1477
sg10
F126.114
sg11
F0.05286
sg12
S'ae0d13c2-3967-3319-9888-129386df69a5'
p1478
sg14
F0.239295
sg15
I1
sg16
F0.808899
sg17
F4.0
sg18
F2014.0
sg19
F224.09288
sg20
F-11.22
sg21
S'Twh6xjl2eu3csylwg6ienmzm5tq'
p1479
sg23
F0.583269
sg24
L6L
sg25
F0.450211472637
sg26
F0.00018
sa(dp1480
g2
F0.485285
sg3
S'Parachute Musical'
p1481
sg5
S'http://lh5.ggpht.com/emqbAU14oaK1Nw6RSo9yJvqbZWwdGqNEo7xXwsiLJX9J2dmmCuvO1S42WLKDImUDi3KjFwPThg'
p1482
sg7
F0.92692
sg8
S'Back To Life'
p1483
sg10
F169.93
sg11
F0.091328
sg12
S'b46cdd3c-a95b-3e71-9692-7f245e8467ee'
p1484
sg14
F0.005407
sg15
I0
sg16
F0.378072
sg17
F4.0
sg18
F2011.0
sg19
F243.15955
sg20
F-4.791
sg21
S'Txph6oh2d2gmingz6b4vexlucem'
p1485
sg23
F0.541407
sg24
L6L
sg25
F0.443568291148
sg26
F6.7e-05
sa(dp1486
g2
F0.14014
sg3
g1481
sg5
g1482
sg7
F0.873222
sg8
S'Reflection'
p1487
sg10
F181.08
sg11
F0.050934
sg12
S'39d7b02e-bf5b-305c-aec2-524164b0095d'
p1488
sg14
F0.027784
sg15
I0
sg16
F0.541584
sg17
F4.0
sg18
F2011.0
sg19
F210.97288
sg20
F-5.065
sg21
S'Tvg6ndtrtfcj3zdg3rjn74hpzuu'
p1489
sg23
F0.907587
sg24
L6L
sg25
F0.443568291148
sg26
F2e-06
sa(dp1490
g2
F0.200363
sg3
S'Cataldo'
p1491
sg5
S'http://lh6.ggpht.com/r1n3pCVmwvGW0LAwlIc6i-p9GjCzTCGD1bKLGIU15hHtW-c0v9jIlQtwJfFjEtLPKnlm837s'
p1492
sg7
F0.606589
sg8
S'Slow the Time'
p1493
sg10
F87.199
sg11
F0.045643
sg12
S'bdc606e6-2d8e-325e-b0ba-b4b06d83e848'
p1494
sg14
F0.001195
sg15
I2
sg16
F0.458679
sg17
F4.0
sg18
F2014.0
sg19
F269.03909
sg20
F-6.949
sg21
S'Trhilvzpjnakalglwsfp4jq5ayu'
p1495
sg23
F0.428253
sg24
L6L
sg25
F0.498289900117
sg26
F0.000981
sa(dp1496
g2
F0.09374
sg3
S'Junior Astronomers'
p1497
sg5
S'http://lh5.ggpht.com/thw_LycE-nJZT0ZN1hv_JihPmRV9Iio6iJvM1y4aHQgtxPJLJYx_uCMm905z9fG_ZMzZnpfXtw'
p1498
sg7
F0.872174
sg8
S'Settle Down'
p1499
sg10
F133.418
sg11
F0.099492
sg12
S'09179a3a-7b98-3090-8802-b6235b95a5fc'
p1500
sg14
F0.004322
sg15
I1
sg16
F0.307852
sg17
F4.0
sg18
F2010.0
sg19
F277.81179
sg20
F-5.954
sg21
S'Tb3py4hmwfsbkaoqxtx3sywys3u'
p1501
sg23
F0.486609
sg24
L6L
sg25
F0.447664281579
sg26
F0.782821
sa(dp1502
g2
F0.162376
sg3
S'The Rocketboys'
p1503
sg5
S'http://lh6.ggpht.com/cQCXD1e-GQWC3syjKGom5TCREFUoPb4aDSdzw4MZyfEU2x5M0sQl-54GH6863TQe8JIPTT7WCg'
p1504
sg7
F0.911985
sg8
S'The Best'
p1505
sg10
F77.555
sg11
F0.071185
sg12
S'b8b8dab6-4a31-33ff-bd19-d6129e5bae7b'
p1506
sg14
F0.000183
sg15
I2
sg16
F0.269094
sg17
F4.0
sg18
F2012.0
sg19
F233.45297
sg20
F-5.364
sg21
S'Tcrtjmtmzl6i6qtxxhkem4ktdcy'
p1507
sg23
F0.047969
sg24
L6L
sg25
F0.518732266431
sg26
F0.048615
sa(dp1508
g2
F0.092793
sg3
S'Bonerama'
p1509
sg5
S'http://lh5.ggpht.com/ntFar6ATXT5yRVkyrVvZmWIZpTjx3TyamAeL_I_jJ4M_162NewRECob5ZeXfT2zVBbZXz1gh'
p1510
sg7
F0.642298
sg8
S'Lost My House'
p1511
sg10
F96.867
sg11
F0.053085
sg12
S'3676f106-8469-3853-a196-f33c2d5c6b86'
p1512
sg14
F0.109807
sg15
I4
sg16
F0.569067
sg17
F4.0
sg18
F2009.0
sg19
F378.79955
sg20
F-6.604
sg21
S'Towwbkbbbkagqpet67f2bkpue7e'
p1513
sg23
F0.606316
sg24
L6L
sg25
F0.473311153183
sg26
F5.1e-05
sa(dp1514
g2
F0.077742
sg3
g1278
sg5
S'http://lh5.ggpht.com/XZT9x1DvRuehQ-REuRFZ64grcb2mCzu_h8me3tzQEG5mFHv6RyGCgIn6ZNwD8Da8O_XRuo_n'
p1515
sg7
F0.81525
sg8
S'Beach Holiday'
p1516
sg10
F188.512
sg11
F0.07152
sg12
S'4306f4b2-ab8c-3857-bb81-f622f8293a3d'
p1517
sg14
F5e-05
sg15
I0
sg16
F0.181116
sg17
F4.0
sg18
F2011.0
sg19
F163.09288
sg20
F-5.282
sg21
S'T3cnjdnnt4bxa4b5m2mtogthfn4'
p1518
sg23
F0.566068
sg24
L6L
sg25
F0.487558872394
sg26
F0.007342
sa(dp1519
g2
F0.118549
sg3
g1278
sg5
g1515
sg7
F0.56178
sg8
S'High Definition'
p1520
sg10
F155.406
sg11
F0.035035
sg12
S'7dc02f41-22d2-3ae2-b13c-1c9c214cfa1c'
p1521
sg14
F0.002833
sg15
I3
sg16
F0.207419
sg17
F4.0
sg18
F2011.0
sg19
F238.26621
sg20
F-7.553
sg21
S'Tpfy4wnzgwfxi5gumttdvrr6mgq'
p1522
sg23
F0.125722
sg24
L6L
sg25
F0.487558872394
sg26
F0.121572
sa(dp1523
g2
F0.071978
sg3
S'The Alpine Treeline'
p1524
sg5
S'http://lh4.ggpht.com/ln60X0Gp3CSbt8b-AtVzMPiFNj5BG0Be9VMAjHL9DaRi0jDc-I64kkYY32VYuHUY-aegE3Y'
p1525
sg7
F0.598046
sg8
S'Tomorrow Morning'
p1526
sg10
F115.003
sg11
F0.028543
sg12
S'61c1ff39-f635-32da-ae6a-f45dd77f182c'
p1527
sg14
F0.002608
sg15
I1
sg16
F0.618935
sg17
F4.0
sg18
F2013.0
sg19
F268.11315
sg20
F-5.863
sg21
S'Tvacsevwp4xdauwva2mndxbrbka'
p1528
sg23
F0.2862
sg24
L6L
sg25
F0.247097634462
sg26
F1e-06
sa(dp1529
g2
F0.113055
sg3
g1524
sg5
g1525
sg7
F0.2653
sg8
S'Song I Will Always Sing'
p1530
sg10
F77.987
sg11
F0.031234
sg12
S'e0064cff-1873-3ab7-b27b-197b6ccc72ff'
p1531
sg14
F0.914477
sg15
I2
sg16
F0.554319
sg17
F4.0
sg18
F2013.0
sg19
F248.21751
sg20
F-11.218
sg21
S'T6uhc6cxemws6wu3wmj4rk4h7cq'
p1532
sg23
F0.183729
sg24
L6L
sg25
F0.247097634462
sg26
F0.000665
sa(dp1533
g2
F0.119086
sg3
g1524
sg5
g1525
sg7
F0.824322
sg8
S'Character in Disguise'
p1534
sg10
F113.346
sg11
F0.057375
sg12
S'3eb8372c-834b-3375-9b86-570625a16b70'
p1535
sg14
F0.017828
sg15
I1
sg16
F0.358646
sg17
F4.0
sg18
F2013.0
sg19
F375.3171
sg20
F-6.094
sg21
S'Teq5z7eg3t4e752myhqjh5snsb4'
p1536
sg23
F0.176947
sg24
L6L
sg25
F0.247097634462
sg26
F8e-06
sa(dp1537
g2
F0.065683
sg3
S'Ultraklystron'
p1538
sg5
S'http://lh5.ggpht.com/79TxAi5_RUSwLfwiw0BQxS4cohnlI7gIwhBBlZVEy3LvkVHWVLGwMzFoUCx0ddmKC5CS1fBaRnM'
p1539
sg7
F0.800793
sg8
S'Donut'
p1540
sg10
F120.006
sg11
F0.048956
sg12
S'96dd33d8-3504-36d6-87bb-7b4ab645c0e9'
p1541
sg14
F0.005965
sg15
I1
sg16
F0.65533
sg17
F4.0
sg18
F2014.0
sg19
F187.99955
sg20
F-8.332
sg21
S'Tpu7fyswygogmgb6fcaqpzdzwpm'
p1542
sg23
F0.320552
sg24
L6L
sg25
F0.386389068806
sg26
F0.917378
sa(dp1543
g2
F0.114862
sg3
g1538
sg5
g1539
sg7
F0.646472
sg8
S'Gingerbread'
p1544
sg10
F160.005
sg11
F0.040572
sg12
S'c815f37f-f541-34de-a6d1-74cdfbe60ad4'
p1545
sg14
F0.012922
sg15
I3
sg16
F0.521786
sg17
F4.0
sg18
F2014.0
sg19
F268.99955
sg20
F-8.862
sg21
S'Tlau5ri6xh5777uvmwimi6ro3ca'
p1546
sg23
F0.114064
sg24
L6L
sg25
F0.386389068806
sg26
F0.865671
sa(dp1547
g2
F0.052999
sg3
g1538
sg5
g1539
sg7
F0.444343
sg8
S'Queue'
p1548
sg10
F139.99
sg11
F0.05773
sg12
S'29358bc9-db43-380e-a606-a95f2ffb68d1'
p1549
sg14
F0.007049
sg15
I3
sg16
F0.720337
sg17
F4.0
sg18
F2014.0
sg19
F253.99955
sg20
F-15.334
sg21
S'Teroetdciqnlicpxktgkrzeflky'
p1550
sg23
F0.380232
sg24
L6L
sg25
F0.386389068806
sg26
F0.776641
sa(dp1551
g2
F0.101975
sg3
g1538
sg5
g1539
sg7
F0.362561
sg8
S'Cupcake'
p1552
sg10
F130.01
sg11
F0.054822
sg12
S'16b35adf-e507-3c00-817f-715436a8a545'
p1553
sg14
F0.806342
sg15
I1
sg16
F0.796049
sg17
F4.0
sg18
F2014.0
sg19
F275.23029
sg20
F-11.97
sg21
S'Tnekbprtg2if7aiy7a3q45bpqzu'
p1554
sg23
F0.115483
sg24
L6L
sg25
F0.386389068806
sg26
F0.92179
sa(dp1555
g2
F0.370365
sg3
g1538
sg5
g1539
sg7
F0.500344
sg8
S'Stack'
p1556
sg10
F140.03
sg11
F0.131029
sg12
S'4175a2d6-0c7a-307d-b295-63aca3dbc39a'
p1557
sg14
F0.072819
sg15
I3
sg16
F0.762336
sg17
F4.0
sg18
F2014.0
sg19
F163.14231
sg20
F-10.734
sg21
S'Tj76y6sw2djcnroavftny6lncxi'
p1558
sg23
F0.332579
sg24
L6L
sg25
F0.386389068806
sg26
F0.86675
sa(dp1559
g2
F0.057878
sg3
g1538
sg5
g1539
sg7
F0.562391
sg8
S'Vector'
p1560
sg10
F144.971
sg11
F0.078672
sg12
S'2f420b84-35b0-3139-ae9c-197d55c0689a'
p1561
sg14
F0.028009
sg15
I3
sg16
F0.747926
sg17
F4.0
sg18
F2014.0
sg19
F228.7581
sg20
F-14.278
sg21
S'Tougteh4oyhm7rx7qx45lktvqr4'
p1562
sg23
F0.571001
sg24
L6L
sg25
F0.386389068806
sg26
F0.757287
sa(dp1563
g2
F0.168191
sg3
g1538
sg5
g1539
sg7
F0.696878
sg8
S'Honeycomb'
p1564
sg10
F180.0
sg11
F0.02833
sg12
S'6d66c4b7-a4f7-3053-9881-76e61c3b2d19'
p1565
sg14
F0.221253
sg15
I0
sg16
F0.508053
sg17
F4.0
sg18
F2014.0
sg19
F199.33288
sg20
F-7.383
sg21
S'Tiol3cnskqgmsm7fo6c6c7735qi'
p1566
sg23
F0.230043
sg24
L6L
sg25
F0.386389068806
sg26
F0.929672
sa(dp1567
g2
F0.117991
sg3
g1538
sg5
g1539
sg7
F0.47591
sg8
S'Tree'
p1568
sg10
F135.0
sg11
F0.049734
sg12
S'b453fe99-1a99-338d-9797-0d29b35c7011'
p1569
sg14
F0.820178
sg15
I3
sg16
F0.682168
sg17
F4.0
sg18
F2014.0
sg19
F190.44399
sg20
F-14.316
sg21
S'T5vdry6faweqgsvwstrfq5ltq2q'
p1570
sg23
F0.075558
sg24
L6L
sg25
F0.386389068806
sg26
F0.917369
sa(dp1571
g2
F0.186867
sg3
g1538
sg5
g1539
sg7
F0.587844
sg8
S'Jelly Bean'
p1572
sg10
F120.346
sg11
F0.148485
sg12
S'baeb6c12-bcb5-37f6-a4f4-c44752877eb1'
p1573
sg14
F0.000298
sg15
I1
sg16
F0.445084
sg17
F4.0
sg18
F2014.0
sg19
F240.07955
sg20
F-11.722
sg21
S'Tt7ca5rna7n7b2k2rnjalqqwdbe'
p1574
sg23
F0.198204
sg24
L6L
sg25
F0.386389068806
sg26
F0.019839
sa(dp1575
g2
F0.09088
sg3
g1538
sg5
g1539
sg7
F0.620872
sg8
S'Ice Cream Sandwich'
p1576
sg10
F122.951
sg11
F0.057486
sg12
S'e20cb175-ae5a-3c11-9014-0ac5edeb825f'
p1577
sg14
F0.044317
sg15
I1
sg16
F0.746732
sg17
F4.0
sg18
F2014.0
sg19
F206.87755
sg20
F-13.161
sg21
S'T6h66mxvcwosts6kbkwrmo2ow6a'
p1578
sg23
F0.170725
sg24
L6L
sg25
F0.386389068806
sg26
F0.892912
sa(dp1579
g2
F0.088407
sg3
g1538
sg5
g1539
sg7
F0.49325
sg8
S'Eclair'
p1580
sg10
F119.997
sg11
F0.044385
sg12
S'7469c7cf-f266-39e9-813c-7a14b1c3cb6b'
p1581
sg14
F0.006906
sg15
I1
sg16
F0.710409
sg17
F4.0
sg18
F2014.0
sg19
F197.99955
sg20
F-12.145
sg21
S'Ttvi7q6m3utv2r4ljnkhjy46bv4'
p1582
sg23
F0.366366
sg24
L6L
sg25
F0.386389068806
sg26
F0.848465
sa(dp1583
g2
F0.136806
sg3
g1538
sg5
g1539
sg7
F0.85678
sg8
S'Key Lime Pie'
p1584
sg10
F159.996
sg11
F0.045823
sg12
S'aefbb9b9-de5c-30a4-bf38-7614faeb6335'
p1585
sg14
F2.2e-05
sg15
I3
sg16
F0.642662
sg17
F4.0
sg18
F2014.0
sg19
F222.4995
sg20
F-9.807
sg21
S'Tlr6x4yl57y7darbd3chtngtwau'
p1586
sg23
F0.928311
sg24
L6L
sg25
F0.386389068806
sg26
F0.934967
sa(dp1587
g2
F0.148209
sg3
g1538
sg5
g1539
sg7
F0.505923
sg8
S'Froyo'
p1588
sg10
F99.965
sg11
F0.192966
sg12
S'c554c719-cad3-32c3-8ac4-7418e5d9ffe6'
p1589
sg14
F0.274326
sg15
I4
sg16
F0.857874
sg17
F4.0
sg18
F2014.0
sg19
F198.79955
sg20
F-15.677
sg21
S'Tt7fosgaywjdejxkii37cmcdpi4'
p1590
sg23
F0.403792
sg24
L6L
sg25
F0.386389068806
sg26
F0.827617
sa(dp1591
g2
F0.14579
sg3
g309
sg5
S'http://lh6.ggpht.com/r2ETuAfyvt55WgMor2yDBXLjJeOzam_0HW7_5iWIKtPo4h44kk9FGWaR_p5wogrWrTKmZkUkiQ'
p1592
sg7
F0.028413
sg8
g323
sg10
F73.345
sg11
F0.040851
sg12
S'd6098e75-519c-3d84-8d3c-d080297175d4'
p1593
sg14
F0.981716
sg15
I2
sg16
F0.084938
sg17
F3.0
sg18
F2008.0
sg19
F67.14621
sg20
F-28.263
sg21
S'Txoxjnjhp6fdkoid3e66jsgulh4'
p1594
sg23
F0.019146
sg24
L6L
sg25
F0.273430095496
sg26
F0.985107
sa(dp1595
g2
F0.157664
sg3
g309
sg5
g1592
sg7
F0.199005
sg8
S'"I. Want. You." from Inversion'
p1596
sg10
F170.025
sg11
F0.068377
sg12
S'59cb635c-a4b4-3b10-b009-b2f38661f6b4'
p1597
sg14
F0.055656
sg15
I0
sg16
F0.542348
sg17
F5.0
sg18
F2008.0
sg19
F75.85288
sg20
F-27.096
sg21
S'Tvkaaixzofmsewzblo4eex7urwa'
p1598
sg23
F0.053265
sg24
L6L
sg25
F0.273430095496
sg26
F0.928399
sa(dp1599
g2
F0.127881
sg3
g309
sg5
g1592
sg7
F0.1099
sg8
S'"Tuesday" from Holding On'
p1600
sg10
F137.323
sg11
F0.034681
sg12
S'b1658821-852d-360e-be2b-24b56ae827e1'
p1601
sg14
F0.76527
sg15
I3
sg16
F0.291528
sg17
F5.0
sg18
F2008.0
sg19
F71.27955
sg20
F-19.455
sg21
S'Tyjbmltfj4j4e4aarnqldynspua'
p1602
sg23
F0.038062
sg24
L6L
sg25
F0.273430095496
sg26
F0.746841
sa(dp1603
g2
F0.073029
sg3
g309
sg5
g1592
sg7
F0.472177
sg8
S'Utopia Main Theme'
p1604
sg10
F91.493
sg11
F0.042062
sg12
S'10783fc3-ef3b-33ef-8e73-370ab6cea971'
p1605
sg14
F0.07993
sg15
I4
sg16
F0.611607
sg17
F4.0
sg18
F2008.0
sg19
F161.27955
sg20
F-15.101
sg21
S'Tmxg3sa6gtfdp534pv2nswfcyf4'
p1606
sg23
F0.310213
sg24
L6L
sg25
F0.273430095496
sg26
F0.662494
sa(dp1607
g2
F0.089746
sg3
g309
sg5
g1592
sg7
F0.019779
sg8
S'"Opening" from Lightly Baked'
p1608
sg10
F122.711
sg11
F0.042941
sg12
S'fa684f03-4777-385f-8326-9fb80331630c'
p1609
sg14
F0.248628
sg15
I1
sg16
F0.201306
sg17
F4.0
sg18
F2008.0
sg19
F128.94621
sg20
F-30.64
sg21
S'Taxx3gt26fcfsoftfwgg2ysw6wa'
p1610
sg23
F0.029683
sg24
L6L
sg25
F0.273430095496
sg26
F0.69325
sa(dp1611
g2
F0.132626
sg3
g309
sg5
g1592
sg7
F0.432563
sg8
S'"Last Saturday Night" from Holding On'
p1612
sg10
F168.053
sg11
F0.039019
sg12
S'c3ba1e16-6879-349f-8229-5149fc13ea0a'
p1613
sg14
F0.184398
sg15
I0
sg16
F0.493656
sg17
F4.0
sg18
F2008.0
sg19
F77.34621
sg20
F-22.008
sg21
S'Ti4x3zd4t2xtce22t7oywcl7fem'
p1614
sg23
F0.496654
sg24
L6L
sg25
F0.273430095496
sg26
F0.871063
sa(dp1615
g2
F0.114922
sg3
g309
sg5
g1592
sg7
F0.100066
sg8
S'Utopia End Credits'
p1616
sg10
F83.679
sg11
F0.030529
sg12
S'1bb35d5d-b126-3e09-9cc5-cb033381140b'
p1617
sg14
F0.563338
sg15
I2
sg16
F0.195832
sg17
F4.0
sg18
F2008.0
sg19
F121.41288
sg20
F-23.41
sg21
S'Taocijsfz52asqhvuwycpvsccjy'
p1618
sg23
F0.074222
sg24
L6L
sg25
F0.273430095496
sg26
F0.07704
sa(dp1619
g2
F0.070995
sg3
g309
sg5
g1592
sg7
F0.073962
sg8
g319
sg10
F110.999
sg11
F0.058726
sg12
S'4f1507e2-b753-3315-8ed7-4f6accc30ace'
p1620
sg14
F0.984689
sg15
I4
sg16
F0.468001
sg17
F3.0
sg18
F2008.0
sg19
F91.31955
sg20
F-23.537
sg21
S'Tkxhmjftizcioyy4qh4l6rt2zni'
p1621
sg23
F0.243531
sg24
L6L
sg25
F0.273430095496
sg26
F0.973361
sa(dp1622
g2
F0.063066
sg3
g309
sg5
g1592
sg7
F0.258478
sg8
S'Low On Rye'
p1623
sg10
F106.958
sg11
F0.039806
sg12
S'74f65a6a-4c96-3132-a87b-ad14717fe078'
p1624
sg14
F0.008687
sg15
I4
sg16
F0.55073
sg17
F4.0
sg18
F2008.0
sg19
F355.05288
sg20
F-25.016
sg21
S'Tgubr3awkrofjlku4djg5c6zvo4'
p1625
sg23
F0.071581
sg24
L6L
sg25
F0.273430095496
sg26
F0.738427
sa(dp1626
g2
F0.096371
sg3
g309
sg5
g1592
sg7
F0.11307
sg8
S'Unused End Credits'
p1627
sg10
F141.414
sg11
F0.042711
sg12
S'a57b5dcf-6559-39ae-a8fc-f6c7d0d76144'
p1628
sg14
F0.906275
sg15
I3
sg16
F0.189625
sg17
F3.0
sg18
F2008.0
sg19
F102.33288
sg20
F-21.281
sg21
S'Tsudbrpclw6jtoktowe7gnvdbey'
p1629
sg23
F0.108585
sg24
L6L
sg25
F0.273430095496
sg26
F0.988275
sa(dp1630
g2
F0.107243
sg3
g309
sg5
g1592
sg7
F0.043597
sg8
S'"End Credits" from Inversion'
p1631
sg10
F119.672
sg11
F0.058622
sg12
S'9ce0876a-e64b-3bd1-8152-062aada9bb44'
p1632
sg14
F0.50348
sg15
I1
sg16
F0.210261
sg17
F4.0
sg18
F2008.0
sg19
F62.39955
sg20
F-25.695
sg21
S'Tp5hlfczrcvazqig6xasg7q6g6e'
p1633
sg23
F0.035887
sg24
L6L
sg25
F0.273430095496
sg26
F0.925754
sa(dp1634
g2
F0.083872
sg3
g309
sg5
g1592
sg7
F0.039854
sg8
g315
sg10
F62.519
sg11
F0.043539
sg12
S'c7a24ea1-4238-33a7-828e-6828a2a322f2'
p1635
sg14
F0.912285
sg15
I2
sg16
F0.203489
sg17
F4.0
sg18
F2008.0
sg19
F42.10621
sg20
F-25.057
sg21
S'Ttkm25oeyzryymskhpixuytbp2m'
p1636
sg23
F0.098357
sg24
L6L
sg25
F0.273430095496
sg26
F0.175082
sa(dp1637
g2
F0.114764
sg3
g309
sg5
g1592
sg7
F0.364186
sg8
S'A Short Portrait of Obsession'
p1638
sg10
F179.779
sg11
F0.063368
sg12
S'05524e6a-3709-3283-9988-f654a5194602'
p1639
sg14
F0.011292
sg15
I0
sg16
F0.557866
sg17
F4.0
sg18
F2008.0
sg19
F80.55955
sg20
F-19.864
sg21
S'Tcey4keb3lqzs7suduhz2ckt3tm'
p1640
sg23
F0.077712
sg24
L6L
sg25
F0.273430095496
sg26
F0.885483
sa(dp1641
g2
F0.11723
sg3
g309
sg5
g1592
sg7
F0.10048
sg8
S'"Celebrity Mass" from Luxury Item'
p1642
sg10
F59.638
sg11
F0.038896
sg12
S'4f3319ad-15a9-34eb-ae99-44331daea367'
p1643
sg14
F0.595684
sg15
I2
sg16
F0.372236
sg17
F4.0
sg18
F2008.0
sg19
F107.17288
sg20
F-18.343
sg21
S'Tru77kdcbzdamv6swz66f2g47we'
p1644
sg23
F0.036643
sg24
L6L
sg25
F0.273430095496
sg26
F0.918607
sa(dp1645
g2
F0.158559
sg3
g309
sg5
g1592
sg7
F0.155116
sg8
S'"Bush Theme" from Utopia'
p1646
sg10
F85.765
sg11
F0.036016
sg12
S'71b39b08-397a-3eed-b804-059ee07a763c'
p1647
sg14
F0.305868
sg15
I2
sg16
F0.190487
sg17
F4.0
sg18
F2008.0
sg19
F113.67955
sg20
F-18.905
sg21
S'T4o2bisuatnnaajbvdxijqwz5ce'
p1648
sg23
F0.038559
sg24
L6L
sg25
F0.273430095496
sg26
F0.521995
sa(dp1649
g2
F0.198817
sg3
g309
sg5
g1592
sg7
F0.407223
sg8
g311
sg10
F113.017
sg11
F0.072577
sg12
S'4247bfb9-8db5-3156-914b-077243f4777a'
p1650
sg14
F0.00152
sg15
I1
sg16
F0.714951
sg17
F4.0
sg18
F2008.0
sg19
F74.77288
sg20
F-16.247
sg21
S'Tosnbfwgzwnotybf5ntzbmfqj4a'
p1651
sg23
F0.276962
sg24
L6L
sg25
F0.273430095496
sg26
F0.908448
sa(dp1652
g2
F0.313635
sg3
S'zYnthetic'
p1653
sg5
S'http://lh5.ggpht.com/r81U3HqVM6MkNyNwY5x24mFiIE1tf_8UiuD8Yz7o3jtkscM2jEIZj4ikwemrgigPpo4YWMhKgQ'
p1654
sg7
F0.646203
sg8
S'Act 0 - The Premonition (Main Menu)'
p1655
sg10
F115.091
sg11
F0.047807
sg12
S'179911d9-3f87-30b4-a6e9-0722e9d91f09'
p1656
sg14
F0.087419
sg15
I1
sg16
F0.240308
sg17
F3.0
sg18
F2014.0
sg19
F192.98063
sg20
F-9.894
sg21
S'Tqxsl6yux5myrkd5nycxkyjmlhm'
p1657
sg23
F0.156782
sg24
L6L
sg25
F0.462929240542
sg26
F0.682931
sa(dp1658
g2
F0.072521
sg3
g1653
sg5
g1654
sg7
F0.14848
sg8
S'Act 0 - Initialize'
p1659
sg10
F116.487
sg11
F0.068299
sg12
S'24909fdc-1455-3a41-a2c9-fd2b1a01b082'
p1660
sg14
F0.422881
sg15
I1
sg16
F0.325044
sg17
F3.0
sg18
F2014.0
sg19
F68.25469
sg20
F-22.289
sg21
S'Tixxqx7ycv63is7wwgan4c7aixm'
p1661
sg23
F0.069321
sg24
L6L
sg25
F0.462929240542
sg26
F0.894758
sa(dp1662
g2
F0.134635
sg3
g1653
sg5
g1654
sg7
F0.697972
sg8
S'Act 1 - Narcotic'
p1663
sg10
F81.992
sg11
F0.035628
sg12
S'1dd990ce-a4c1-37e3-a414-6ac874186cf7'
p1664
sg14
F0.787047
sg15
I2
sg16
F0.643535
sg17
F4.0
sg18
F2014.0
sg19
F358.19057
sg20
F-13.322
sg21
S'T5ermklnfhyiv6pubtvqd42lxya'
p1665
sg23
F0.361979
sg24
L6L
sg25
F0.462929240542
sg26
F0.962276
sa(dp1666
g2
F0.10044
sg3
g1653
sg5
g1654
sg7
F0.06401
sg8
S'Act 1 - A Pale Horse'
p1667
sg10
F119.644
sg11
F0.050671
sg12
S'7fe428e5-d310-3588-bd19-d19bdfdd55ad'
p1668
sg14
F0.821316
sg15
I1
sg16
F0.326761
sg17
F4.0
sg18
F2014.0
sg19
F128.99859
sg20
F-22.984
sg21
S'Tawulqowx264rzz22xnitkcwuve'
p1669
sg23
F0.024199
sg24
L6L
sg25
F0.462929240542
sg26
F0.910164
sa(dp1670
g2
F0.099077
sg3
g1653
sg5
g1654
sg7
F0.204548
sg8
S'Act 1 - Dilatation'
p1671
sg10
F120.099
sg11
F0.057668
sg12
S'6b8cb65e-78e5-3f62-a663-4d055ed5c2c7'
p1672
sg14
F0.567085
sg15
I1
sg16
F0.487259
sg17
F4.0
sg18
F2014.0
sg19
F96.76717
sg20
F-24.48
sg21
S'Tioirqofn4qfrjljllcnydw5km4'
p1673
sg23
F0.06047
sg24
L6L
sg25
F0.462929240542
sg26
F0.957984
sa(dp1674
g2
F0.116637
sg3
g1653
sg5
g1654
sg7
F0.011978
sg8
S'Act 1 - Formless'
p1675
sg10
F97.939
sg11
F0.033392
sg12
S'c001049f-0b64-34b1-b360-37875896914e'
p1676
sg14
F0.746378
sg15
I4
sg16
F0.18138
sg17
F3.0
sg18
F2014.0
sg19
F128.8839
sg20
F-18.708
sg21
S'Tu3k2cuoy3abiqjayfhtg7fodee'
p1677
sg23
F0.031294
sg24
L6L
sg25
F0.462929240542
sg26
F0.943838
sa(dp1678
g2
F0.151657
sg3
g1653
sg5
g1654
sg7
F0.986497
sg8
S'Act 1 - Coil'
p1679
sg10
F91.972
sg11
F0.061088
sg12
S'b4841084-bd0b-340d-a4dd-8632e706ddfe'
p1680
sg14
F0.511136
sg15
I4
sg16
F0.578462
sg17
F4.0
sg18
F2014.0
sg19
F169.45696
sg20
F-8.376
sg21
S'T7c6jl4tab2ydioe5znhzvbwoyq'
p1681
sg23
F0.034364
sg24
L6L
sg25
F0.462929240542
sg26
F0.858335
sa(dp1682
g2
F0.11242
sg3
g1653
sg5
g1654
sg7
F0.018695
sg8
S'Act 1 - Synaptic Distortion'
p1683
sg10
F179.415
sg11
F0.053815
sg12
S'cb3f4307-c45b-3227-88e1-c1bce77feb61'
p1684
sg14
F0.921518
sg15
I0
sg16
F0.122614
sg17
F1.0
sg18
F2014.0
sg19
F97.99955
sg20
F-24.617
sg21
S'Te6er5g55okzjzvclyue3injcpe'
p1685
sg23
F0.157654
sg24
L6L
sg25
F0.462929240542
sg26
F0.191778
sa(dp1686
g2
F0.11159
sg3
g1653
sg5
g1654
sg7
F0.413749
sg8
S'Act 1 - Blindspots'
p1687
sg10
F113.927
sg11
F0.045526
sg12
S'aa055e01-9760-3b7a-a6ab-213e85e42e98'
p1688
sg14
F0.627668
sg15
I1
sg16
F0.231185
sg17
F4.0
sg18
F2014.0
sg19
F254.68635
sg20
F-19.449
sg21
S'Tcouylb7m7sodikl3wkrpiealtu'
p1689
sg23
F0.055696
sg24
L6L
sg25
F0.462929240542
sg26
F0.933112
sa(dp1690
g2
F0.111478
sg3
g1653
sg5
g1654
sg7
F0.23169
sg8
S'Act 1 - Interference'
p1691
sg10
F125.54
sg11
F0.049151
sg12
S'b89de755-1283-316c-80a9-c0ddd855504c'
p1692
sg14
F0.013066
sg15
I1
sg16
F0.234742
sg17
F4.0
sg18
F2014.0
sg19
F192.63855
sg20
F-21.163
sg21
S'Tg67qyqstt367r2xjljgjmykw2q'
p1693
sg23
F0.039386
sg24
L6L
sg25
F0.462929240542
sg26
F0.836778
sa(dp1694
g2
F0.108178
sg3
g1653
sg5
g1654
sg7
F0.015477
sg8
S'Act 1 - Recursive Fault'
p1695
sg10
F67.116
sg11
F0.038672
sg12
S'b63bca20-3eba-3f35-abb9-33e3a739597f'
p1696
sg14
F0.796694
sg15
I2
sg16
F0.260961
sg17
F5.0
sg18
F2014.0
sg19
F66.49955
sg20
F-31.273
sg21
S'Tjlmtmgr3zdwjt6gvb4epjfye7u'
p1697
sg23
F0.142286
sg24
L6L
sg25
F0.462929240542
sg26
F0.783909
sa(dp1698
g2
F0.190038
sg3
S'Kushest'
p1699
sg5
S'http://lh4.ggpht.com/R6YYEbXpmzOtPcczgRugDSW2KI0zDLuE9nicvxWNWCjYfl7A0jiW1lJ32HJ0GKRZ3Ry3RjulaW4'
p1700
sg7
F0.935409
sg8
S'Survival Of The Fittest'
p1701
sg10
F180.394
sg11
F0.246168
sg12
S'df07c6ea-e6e2-3109-b1e6-2082646e94f5'
p1702
sg14
F0.001484
sg15
I0
sg16
F0.238115
sg17
F5.0
sg18
F2013.0
sg19
F565.66966
sg20
F-9.07
sg21
S'T32rcij64utb5f3ihtrxnflwgjy'
p1703
sg23
F0.370309
sg24
L6L
sg25
F0.252932913188
sg26
F0.538935
sa(dp1704
g2
F0.286727
sg3
g1699
sg5
g1700
sg7
F0.7389
sg8
S'Beat Hack'
p1705
sg10
F130.08
sg11
F0.282979
sg12
S'19917937-8961-3eb0-b41d-025d18b48011'
p1706
sg14
F0.188703
sg15
I1
sg16
F0.821577
sg17
F4.0
sg18
F2013.0
sg19
F265.78395
sg20
F-8.239
sg21
S'Ttjfulzjpnoacsrftih7zbrknci'
p1707
sg23
F0.728783
sg24
L6L
sg25
F0.252932913188
sg26
F0.065271
sa(dp1708
g2
F0.099721
sg3
g1699
sg5
g1700
sg7
F0.494281
sg8
S'The Stash'
p1709
sg10
F94.169
sg11
F0.170755
sg12
S'5e7606a9-c315-3a2c-bef3-6a61daf56c88'
p1710
sg14
F0.013506
sg15
I4
sg16
F0.59265
sg17
F5.0
sg18
F2013.0
sg19
F219.46884
sg20
F-9.418
sg21
S'Tsklr3ywmazsjeu5nv47y4fudhm'
p1711
sg23
F0.443357
sg24
L6L
sg25
F0.252932913188
sg26
F0.026569
sa(dp1712
g2
F0.131369
sg3
g1699
sg5
g1700
sg7
F0.72793
sg8
S'Party Crash'
p1713
sg10
F139.96
sg11
F0.095229
sg12
S'34397001-6af4-3aee-a65a-24810ed135e0'
p1714
sg14
F0.005534
sg15
I3
sg16
F0.761185
sg17
F4.0
sg18
F2013.0
sg19
F275.37088
sg20
F-9.593
sg21
S'Tk73zf3juzhgyp63zqp4k6pkvgu'
p1715
sg23
F0.736806
sg24
L6L
sg25
F0.252932913188
sg26
F0.099891
sa(dp1716
g2
F0.076952
sg3
g1699
sg5
g1700
sg7
F0.874226
sg8
S'Dark Thoughts'
p1717
sg10
F139.232
sg11
F0.116169
sg12
S'3aca7094-0e90-3cc0-9f3f-c8c98af78613'
p1718
sg14
F0.051981
sg15
I3
sg16
F0.499547
sg17
F4.0
sg18
F2013.0
sg19
F255.46558
sg20
F-6.747
sg21
S'Tkcibsuonwrpn2lgkypld7wx4cm'
p1719
sg23
F0.664316
sg24
L6L
sg25
F0.252932913188
sg26
F0.002758
sa(dp1720
g2
F0.165514
sg3
g1699
sg5
g1700
sg7
F0.733137
sg8
S'Gangsta Snaps'
p1721
sg10
F140.0
sg11
F0.177883
sg12
S'e97b7585-5ace-33cf-a80a-1b158c55c9d0'
p1722
sg14
F0.074045
sg15
I3
sg16
F0.834044
sg17
F4.0
sg18
F2013.0
sg19
F281.0917
sg20
F-8.872
sg21
S'Tos6cxmxp4zgpaujwbr4sf3b66y'
p1723
sg23
F0.819311
sg24
L6L
sg25
F0.252932913188
sg26
F0.001471
sa(dp1724
g2
F0.10082
sg3
g1699
sg5
g1700
sg7
F0.590338
sg8
S'CrossBreed'
p1725
sg10
F139.914
sg11
F0.053822
sg12
S'2d656c70-67d8-3abf-a4aa-d6bd663a5ac1'
p1726
sg14
F0.000147
sg15
I3
sg16
F0.64293
sg17
F4.0
sg18
F2013.0
sg19
F301.75456
sg20
F-9.164
sg21
S'Tjjvcgfzlgyycclc2frlzl4225u'
p1727
sg23
F0.499096
sg24
L6L
sg25
F0.252932913188
sg26
F0.004984
sa.