(lp0
(lp1
(dp2
S'energy'
p3
F0.330485
sS'tempo'
p4
F139.855
sS'speechiness'
p5
F0.056755
sS'cluster'
p6
I0
sS'duration'
p7
F343.97995
sS'id'
p8
S'c399f57d-032b-3d86-9c7b-5c8dec771928'
p9
sS'title'
p10
S'Ten Thousand Feet - Metal / Hardcore Album'
p11
sS'liveness'
p12
F0.219712
sS'acousticness'
p13
F0.000569
sS'danceability'
p14
F0.391643
sS'time_signature'
p15
F4.0
sS'loudness'
p16
F-29.055
sS'valence'
p17
F0.258227
sS'artist_discovery'
p18
F0.50262695251
sa(dp19
g3
F0.669292
sg4
F138.059
sg5
F0.308917
sg6
I0
sg7
F286.17098
sg8
S'8f6acdb6-249a-3778-b5fb-0e39bd5834ef'
p20
sg10
S'Friday Night in the Castro - Soundtrack / Cast Recording Album'
p21
sg12
F0.881793
sg13
F0.56166
sg14
F0.363751
sg15
F4.0
sg16
F-13.189
sg17
F0.136332
sg18
F0.355862979804
sa(dp22
g3
F0.776125
sg4
F148.032
sg5
F0.04743
sg6
I0
sg7
F234.1873
sg8
S'd6169401-637f-3d94-bf9c-18db195a396b'
p23
sg10
S'Free People'
p24
sg12
F0.119301
sg13
F0.161917
sg14
F0.492447
sg15
F3.0
sg16
F-6.604
sg17
F0.310677
sg18
F0.309031421999
sa(dp25
g3
F0.87687
sg4
F139.028
sg5
F0.083271
sg6
I0
sg7
F234.21288
sg8
S'be1d0f78-a960-3868-8a32-627f276e2272'
p26
sg10
S'Gimme Sympathy'
p27
sg12
F0.111209
sg13
F0.007975
sg14
F0.449014
sg15
F4.0
sg16
F-6.496
sg17
F0.120814
sg18
F0.432251555576
sa(dp28
g3
F0.909857
sg4
F154.915
sg5
F0.094088
sg6
I0
sg7
F210.49288
sg8
S'a4cd26c2-3708-30f6-865d-31dc36d7a333'
p29
sg10
S'Qwerty'
p30
sg12
F0.162619
sg13
F0.014908
sg14
F0.539303
sg15
F4.0
sg16
F-5.047
sg17
F0.452981
sg18
F0.426210969833
sa(dp31
g3
F0.996089
sg4
F149.949
sg5
F0.182938
sg6
I0
sg7
F193.59955
sg8
S'7754a68c-4fad-359b-b717-0cea76af8e18'
p32
sg10
S'Demented Aggression'
p33
sg12
F0.045247
sg13
F0.000749
sg14
F0.410649
sg15
F4.0
sg16
F-5.313
sg17
F0.217743
sg18
F0.366528583775
sa(dp34
g3
F0.705751
sg4
F140.03
sg5
F0.082625
sg6
I0
sg7
F125.99955
sg8
S'04b33997-2081-39a6-8738-6ec26f33f2db'
p35
sg10
S'Dead Pinky'
p36
sg12
F0.233171
sg13
F0.071466
sg14
F0.438953
sg15
F4.0
sg16
F-9.631
sg17
F0.198898
sg18
F0.254321855023
sa(dp37
g3
F0.421042
sg4
F141.076
sg5
F0.030858
sg6
I0
sg7
F266.79955
sg8
S'41095070-d713-3b0d-9445-edd7d3591b60'
p38
sg10
S'Alone'
p39
sg12
F0.093374
sg13
F0.775325
sg14
F0.551884
sg15
F4.0
sg16
F-10.505
sg17
F0.34217
sg18
F0.462073569169
sa(dp40
g3
F0.410028
sg4
F153.888
sg5
F0.02767
sg6
I0
sg7
F201.21288
sg8
S'd5c3746e-008b-3008-8399-d82f1084f966'
p41
sg10
S'Kept'
p42
sg12
F0.09704
sg13
F0.506025
sg14
F0.489147
sg15
F4.0
sg16
F-9.398
sg17
F0.432331
sg18
F0.499727972349
sa(dp43
g3
F0.617277
sg4
F136.144
sg5
F0.028122
sg6
I0
sg7
F242.85995
sg8
S'd59ead91-44ac-3fc6-9d25-f099529a0a0b'
p44
sg10
S'Donna'
p45
sg12
F0.17607
sg13
F0.618205
sg14
F0.523574
sg15
F4.0
sg16
F-7.697
sg17
F0.276643
sg18
F0.472619405113
sa(dp46
g3
F0.506636
sg4
F134.936
sg5
F0.026268
sg6
I0
sg7
F252.49288
sg8
S'5b5d8d87-9ca0-392a-b544-5ec4a5c9d2d7'
p47
sg10
S'Different Shade Of Red'
p48
sg12
F0.102264
sg13
F0.009344
sg14
F0.573576
sg15
F4.0
sg16
F-5.43
sg17
F0.603208
sg18
F0.474687038208
sa(dp49
g3
F0.548535
sg4
F139.525
sg5
F0.037508
sg6
I0
sg7
F230.11955
sg8
S'73bf8248-3875-318b-a811-db6d72942e3d'
p50
sg10
S'Only Lies'
p51
sg12
F0.125204
sg13
F0.395932
sg14
F0.387991
sg15
F4.0
sg16
F-8.521
sg17
F0.147995
sg18
F0.494146463382
sa(dp52
g3
F0.82051
sg4
F135.0
sg5
F0.074995
sg6
I0
sg7
F206.72218
sg8
S'4de0065f-8690-33ea-b8e8-6d8d6effe370'
p53
sg10
S'Right Words'
p54
sg12
F0.302008
sg13
F0.0568
sg14
F0.723309
sg15
F4.0
sg16
F-4.958
sg17
F0.559721
sg18
F0.489884858802
sa(dp55
g3
F0.844234
sg4
F140.127
sg5
F0.136575
sg6
I0
sg7
F264.13188
sg8
S'0b1d22a2-59fd-3a6f-b1c1-b68ec2fc8e49'
p56
sg10
S'Lonesome'
p57
sg12
F0.889599
sg13
F0.01839
sg14
F0.423804
sg15
F4.0
sg16
F-7.082
sg17
F0.330515
sg18
F0.44277217852
sa(dp58
g3
F0.920479
sg4
F145.645
sg5
F0.052382
sg6
I0
sg7
F266.69823
sg8
S'57fa4aa3-0d8a-37e7-8b9e-19870f0f8caa'
p59
sg10
S'Vampire'
p60
sg12
F0.735992
sg13
F0.172498
sg14
F0.411746
sg15
F4.0
sg16
F-3.641
sg17
F0.557554
sg18
F0.44277217852
sa(dp61
g3
F0.934226
sg4
F150.149
sg5
F0.080376
sg6
I0
sg7
F299.43955
sg8
S'fd4f8fae-0bd0-34ea-b209-b4fa2df4670a'
p62
sg10
S'Take My Bones Away'
p63
sg12
F0.062053
sg13
F0.000198
sg14
F0.256737
sg15
F4.0
sg16
F-5.654
sg17
F0.148196
sg18
F0.436332127364
sa(dp64
g3
F0.723258
sg4
F149.397
sg5
F0.040254
sg6
I0
sg7
F455.92336
sg8
S'e4ccdfde-ea7d-318e-8f90-1e10b5c7f275'
p65
sg10
S'The Fussy Dutchman'
p66
sg12
F0.716392
sg13
F0.249457
sg14
F0.27866
sg15
F4.0
sg16
F-11.628
sg17
F0.448044
sg18
F0.415381464026
sa(dp67
g3
F0.573315
sg4
F143.616
sg5
F0.067211
sg6
I0
sg7
F1061.48526
sg8
S'103e768a-f78d-336b-ae49-dac53dc431ac'
p68
sg10
S'All In Time LIVE'
p69
sg12
F0.89807
sg13
F0.020146
sg14
F0.356015
sg15
F4.0
sg16
F-17.274
sg17
F0.471832
sg18
F0.415381464026
sa(dp70
g3
F0.573315
sg4
F143.616
sg5
F0.067211
sg6
I0
sg7
F1061.48526
sg8
S'014095ed-48c9-3347-a472-2a3e5938b1ee'
p71
sg10
g69
sg12
F0.89807
sg13
F0.020146
sg14
F0.356015
sg15
F4.0
sg16
F-17.274
sg17
F0.471832
sg18
F0.415381464026
sa(dp72
g3
F0.622066
sg4
F155.88
sg5
F0.07533
sg6
I0
sg7
F207.80032
sg8
S'b5e6270a-6560-3b8f-9add-6cc6bae256bf'
p73
sg10
S'Campfire'
p74
sg12
F0.312415
sg13
F0.002271
sg14
F0.44273
sg15
F4.0
sg16
F-7.072
sg17
F0.31396
sg18
F0.532878507099
sa(dp75
g3
F0.203148
sg4
F152.363
sg5
F0.033896
sg6
I0
sg7
F208.14621
sg8
S'e182e068-a1c6-3975-b751-726da149963e'
p76
sg10
S'Stoplight Roses'
p77
sg12
F0.361451
sg13
F0.878124
sg14
F0.426048
sg15
F3.0
sg16
F-13.604
sg17
F0.20272
sg18
F0.3952684428
sa(dp78
g3
F0.556249
sg4
F134.147
sg5
F0.039176
sg6
I0
sg7
F172.34621
sg8
S'c887e9be-7c21-30dd-8508-f75ec6377a53'
p79
sg10
S'Sensitive Man'
p80
sg12
F0.097418
sg13
F0.450265
sg14
F0.749502
sg15
F4.0
sg16
F-8.872
sg17
F0.668804
sg18
F0.3952684428
sa(dp81
g3
F0.548299
sg4
F137.597
sg5
F0.041686
sg6
I0
sg7
F1034.40209
sg8
S'13459492-7de0-3d5f-965a-8f122f26cf27'
p82
sg10
S'Hurt Bird Bath'
p83
sg12
F0.176144
sg13
F0.483828
sg14
F0.426143
sg15
F4.0
sg16
F-17.829
sg17
F0.602635
sg18
F0.415381464026
sa(dp84
g3
F0.573315
sg4
F143.616
sg5
F0.067211
sg6
I0
sg7
F1061.48526
sg8
S'bfdb686b-b677-38fc-abc7-745fecfd55f2'
p85
sg10
g69
sg12
F0.89807
sg13
F0.020146
sg14
F0.356015
sg15
F4.0
sg16
F-17.274
sg17
F0.471832
sg18
F0.415381464026
sa(dp86
g3
F0.573315
sg4
F143.616
sg5
F0.067211
sg6
I0
sg7
F1061.48526
sg8
S'06be1140-39ba-321a-8fca-5a8a504ff5d9'
p87
sg10
g69
sg12
F0.89807
sg13
F0.020146
sg14
F0.356015
sg15
F4.0
sg16
F-17.274
sg17
F0.471832
sg18
F0.415381464026
sa(dp88
g3
F0.600401
sg4
F140.263
sg5
F0.039546
sg6
I0
sg7
F768.06921
sg8
S'9643ae14-ae6a-3f6f-b901-e8bb946adac1'
p89
sg10
S"Phil's Farm>"
p90
sg12
F0.38418
sg13
F0.03341
sg14
F0.412459
sg15
F4.0
sg16
F-20.44
sg17
F0.424761
sg18
F0.415381464026
sa(dp91
g3
F0.838886
sg4
F142.801
sg5
F0.04373
sg6
I0
sg7
F298.49288
sg8
S'8cfaa0a0-b10c-325d-bf3a-8e667e76ea49'
p92
sg10
S"Mulche's Odyssey"
p93
sg12
F0.305397
sg13
F0.094172
sg14
F0.435973
sg15
F4.0
sg16
F-7.342
sg17
F0.574904
sg18
F0.415381464026
sa(dp94
g3
F0.94506
sg4
F143.236
sg5
F0.062742
sg6
I0
sg7
F330.10621
sg8
S'7e270619-88c4-314e-8fc1-22f3a3ded1bc'
p95
sg10
S'The Floor'
p96
sg12
F0.07632
sg13
F0.00375
sg14
F0.413496
sg15
F4.0
sg16
F-7.179
sg17
F0.437949
sg18
F0.415381464026
sa(dp97
g3
F0.533658
sg4
F134.162
sg5
F0.038611
sg6
I0
sg7
F180.23293
sg8
S'36f68e0a-77c6-379e-b96d-256a2f454804'
p98
sg10
S'Against the Grain'
p99
sg12
F0.406711
sg13
F0.309606
sg14
F0.494467
sg15
F4.0
sg16
F-9.323
sg17
F0.465352
sg18
F0.261711676507
sa(dp100
g3
F0.243803
sg4
F138.3
sg5
F0.028643
sg6
I0
sg7
F229.54685
sg8
S'66608cce-57f5-30ec-8b4d-4b57867da814'
p101
sg10
S'Searching'
p102
sg12
F0.354246
sg13
F0.250819
sg14
F0.498685
sg15
F4.0
sg16
F-14.678
sg17
F0.245883
sg18
F0.261711676507
sa(dp103
g3
F0.794541
sg4
F147.912
sg5
F0.139935
sg6
I0
sg7
F272.221
sg8
S'de6e3d1b-1b39-3f0c-92ee-e9d8ccd50a9e'
p104
sg10
g99
sg12
F0.110364
sg13
F0.306238
sg14
F0.386481
sg15
F4.0
sg16
F-7.856
sg17
F0.576159
sg18
F0.269127343221
sa(dp105
g3
F0.966646
sg4
F139.952
sg5
F0.100236
sg6
I0
sg7
F240.06485
sg8
S'4987cf57-3803-3871-9bbb-bfb5c5df88c6'
p106
sg10
S'The Brink (Original Mix)'
p107
sg12
F0.092598
sg13
F4.6e-05
sg14
F0.581791
sg15
F4.0
sg16
F-4.19
sg17
F0.103379
sg18
F0.536887447902
sa(dp108
g3
F0.926121
sg4
F148.56
sg5
F0.107787
sg6
I0
sg7
F191.78621
sg8
S'1d71fed4-f55a-306f-9cac-5496d3996ef6'
p109
sg10
S'Is This Love?'
p110
sg12
F0.159069
sg13
F0.018449
sg14
F0.326008
sg15
F4.0
sg16
F-4.542
sg17
F0.118749
sg18
F0.418719856012
sa(dp111
g3
F0.879636
sg4
F139.591
sg5
F0.056309
sg6
I0
sg7
F248.95955
sg8
S'b2fc63c2-51f3-331a-b5b9-e1dad2440c55'
p112
sg10
S"The Witness' Dull Surprise"
p113
sg12
F0.094226
sg13
F0.000521
sg14
F0.290932
sg15
F4.0
sg16
F-4.73
sg17
F0.25132
sg18
F0.418719856012
sa(dp114
g3
F0.524114
sg4
F148.372
sg5
F0.066664
sg6
I0
sg7
F194.84689
sg8
S'9f2fa962-d2fc-395e-9560-13b6405ebb14'
p115
sg10
S'Satan Said Dance'
p116
sg12
F0.133498
sg13
F0.000125
sg14
F0.43567
sg15
F4.0
sg16
F-18.172
sg17
F0.197295
sg18
F0.418719856012
sa(dp117
g3
F0.666081
sg4
F139.684
sg5
F0.02737
sg6
I0
sg7
F189.31955
sg8
S'553b3b7e-115f-3cad-9517-270bb5fb3ab1'
p118
sg10
S'Over And Over Again (Lost And Found)'
p119
sg12
F0.131383
sg13
F0.000185
sg14
F0.576859
sg15
F4.0
sg16
F-8.25
sg17
F0.87206
sg18
F0.418719856012
sa(dp120
g3
F0.972875
sg4
F150.064
sg5
F0.101954
sg6
I0
sg7
F184.85651
sg8
S'fd2e403d-7698-3ebc-af5d-87814be996d4'
p121
sg10
S'Same Mistake'
p122
sg12
F0.228427
sg13
F3.2e-05
sg14
F0.318986
sg15
F4.0
sg16
F-4.598
sg17
F0.116245
sg18
F0.418719856012
sa(dp123
g3
F0.245467
sg4
F148.141
sg5
F0.040872
sg6
I0
sg7
F199.6
sg8
S'9a9a6fd9-b7b6-3e4a-9bff-c80754f6fc3f'
p124
sg10
S'Code'
p125
sg12
F0.099602
sg13
F0.84715
sg14
F0.401269
sg15
F3.0
sg16
F-13.595
sg17
F0.344269
sg18
F0.526311765244
sa(dp126
g3
F0.680768
sg4
F138.307
sg5
F0.094309
sg6
I0
sg7
F194.30354
sg8
S'072279af-25fc-3c1c-81f4-fa7698b55710'
p127
sg10
S"Backyard Sippin'"
p128
sg12
F0.233034
sg13
F0.032455
sg14
F0.430962
sg15
F4.0
sg16
F-9.493
sg17
F0.695029
sg18
F0.341315943912
sa(dp129
g3
F0.783913
sg4
F139.738
sg5
F0.041241
sg6
I0
sg7
F219.34621
sg8
S'0cf28ca4-8624-3e88-821f-c745d2822eca'
p130
sg10
S'Alone In Memphis'
p131
sg12
F0.117501
sg13
F0.170387
sg14
F0.474743
sg15
F4.0
sg16
F-5.591
sg17
F0.31956
sg18
F0.474687038208
sa(dp132
g3
F0.796616
sg4
F144.452
sg5
F0.03763
sg6
I0
sg7
F268.37578
sg8
S'9a480466-6cc6-3d11-a168-f341f56e8305'
p133
sg10
S'Never Meant'
p134
sg12
F0.114539
sg13
F0.020761
sg14
F0.432618
sg15
F4.0
sg16
F-6.708
sg17
F0.395821
sg18
F0.416711371683
sa(dp135
g3
F0.891755
sg4
F135.204
sg5
F0.098863
sg6
I0
sg7
F238.00213
sg8
S'73446205-c456-35e9-b1d5-fb85ab34ac7c'
p136
sg10
S'Three Is a Crowd (QCA Session)'
p137
sg12
F0.309105
sg13
F0.000133
sg14
F0.476061
sg15
F3.0
sg16
F-6.683
sg17
F0.30177
sg18
F0.476866094486
sa(dp138
g3
F0.499801
sg4
F135.019
sg5
F0.03327
sg6
I0
sg7
F454.1122
sg8
S'86456a9c-1732-30d5-b6e9-16a133bf9d1a'
p139
sg10
S'Goodbye'
p140
sg12
F0.050622
sg13
F0.657528
sg14
F0.545799
sg15
F4.0
sg16
F-13.315
sg17
F0.105964
sg18
F0.424985907871
sa(dp141
g3
F0.592468
sg4
F147.044
sg5
F0.040715
sg6
I0
sg7
F225.96154
sg8
S'a7fd2838-b467-338b-b454-dfeed8fd77e0'
p142
sg10
S'Radio Hive'
p143
sg12
F0.061566
sg13
F0.320823
sg14
F0.539743
sg15
F4.0
sg16
F-6.503
sg17
F0.757234
sg18
F0.449362667055
sa(dp144
g3
F0.856859
sg4
F146.074
sg5
F0.075694
sg6
I0
sg7
F286.07955
sg8
S'640624f8-80c3-3173-89b7-ab8da06e8937'
p145
sg10
S'Decayer'
p146
sg12
F0.363995
sg13
F0.001408
sg14
F0.384487
sg15
F4.0
sg16
F-4.347
sg17
F0.370987
sg18
F0.487989541894
sa(dp147
g3
F0.894892
sg4
F145.03
sg5
F0.045063
sg6
I0
sg7
F300.98621
sg8
S'b3afc110-af0e-384f-acc4-2b6c6f6a5fcb'
p148
sg10
S'Photography'
p149
sg12
F0.603928
sg13
F6.7e-05
sg14
F0.298504
sg15
F5.0
sg16
F-6.635
sg17
F0.429734
sg18
F0.280862992364
sa(dp150
g3
F0.672105
sg4
F155.088
sg5
F0.048109
sg6
I0
sg7
F205.53098
sg8
S'9dc44f93-17c1-3110-8a89-4cdb4ac84456'
p151
sg10
S'Eating Me Alive'
p152
sg12
F0.088842
sg13
F0.073844
sg14
F0.504186
sg15
F4.0
sg16
F-8.108
sg17
F0.502669
sg18
F0.475421033375
sa(dp153
g3
F0.712762
sg4
F155.062
sg5
F0.251605
sg6
I0
sg7
F283.98621
sg8
S'edb5b53f-4e17-3f8f-b694-c40ecfc37fb7'
p154
sg10
S'Have to Be Free (feat. Strange People)'
p155
sg12
F0.310982
sg13
F0.000216
sg14
F0.595305
sg15
F4.0
sg16
F-8.465
sg17
F0.454267
sg18
F0.322102705505
sa(dp156
g3
F0.620842
sg4
F144.577
sg5
F0.028845
sg6
I0
sg7
F253.34921
sg8
S'44e49cbd-4d79-3ecd-a6cd-5872a25dc6f1'
p157
sg10
S'Collateral Damage'
p158
sg12
F0.09517
sg13
F0.118241
sg14
F0.415613
sg15
F4.0
sg16
F-10.927
sg17
F0.665074
sg18
F0.250719795666
sa(dp159
g3
F0.761979
sg4
F149.141
sg5
F0.033723
sg6
I0
sg7
F194.26023
sg8
S'3a6da5e6-4294-373e-950d-ba20f87d34bb'
p160
sg10
S'I Wish'
p161
sg12
F0.074573
sg13
F0.00298
sg14
F0.432004
sg15
F4.0
sg16
F-11.048
sg17
F0.664265
sg18
F0.250719795666
sa(dp162
g3
F0.750004
sg4
F144.473
sg5
F0.029054
sg6
I0
sg7
F196.74186
sg8
S'dd2aa1ee-5497-3184-be0c-c468dc6c21e5'
p163
sg10
S'In My World'
p164
sg12
F0.135786
sg13
F0.059512
sg14
F0.379865
sg15
F4.0
sg16
F-11.823
sg17
F0.931841
sg18
F0.250719795666
sa(dp165
g3
F0.8329
sg4
F133.983
sg5
F0.039974
sg6
I0
sg7
F316.90916
sg8
S'f7d531c4-630c-3cb1-a58c-36cfec16b9e7'
p166
sg10
S'Better - Cut.Rate.Box Remix'
p167
sg12
F0.396906
sg13
F0.025942
sg14
F0.610649
sg15
F4.0
sg16
F-7.596
sg17
F0.323561
sg18
F0.302439930972
sa(dp168
g3
F0.851453
sg4
F137.002
sg5
F0.034983
sg6
I0
sg7
F198.17474
sg8
S'd50f4ef3-8bcf-3d06-98ef-9bffdaddb0ad'
p169
sg10
S"I Won't Tell If You Don't"
p170
sg12
F0.349929
sg13
F0.003789
sg14
F0.625568
sg15
F4.0
sg16
F-6.651
sg17
F0.819338
sg18
F0.332636732592
sa(dp171
g3
F0.955374
sg4
F138.008
sg5
F0.097837
sg6
I0
sg7
F342.5
sg8
S'63d9bb3f-8a22-39e5-8e54-3401776ee901'
p172
sg10
S'Beneath - Without a Net Remix'
p173
sg12
F0.081474
sg13
F0.005272
sg14
F0.407501
sg15
F4.0
sg16
F-6.096
sg17
F0.287282
sg18
F0.467566258201
sa(dp174
g3
F0.816646
sg4
F134.983
sg5
F0.081542
sg6
I0
sg7
F401.14907
sg8
S'4425bdc0-df50-312e-8b35-26277be361e8'
p175
sg10
S'I Lost My Friend to a Video Game (ZExtended)'
p176
sg12
F0.064528
sg13
F2.9e-05
sg14
F0.544973
sg15
F4.0
sg16
F-6.885
sg17
F0.488056
sg18
F0.415651613203
sa(dp177
g3
F0.883604
sg4
F134.96
sg5
F0.06789
sg6
I0
sg7
F263.83683
sg8
S'4921001d-7eff-3c97-9e65-48a3210b0982'
p178
sg10
S'Recurring Nightmare'
p179
sg12
F0.896567
sg13
F7.4e-05
sg14
F0.561534
sg15
F4.0
sg16
F-7.617
sg17
F0.380055
sg18
F0.368041826789
sa(dp180
g3
F0.972402
sg4
F145.022
sg5
F0.120306
sg6
I0
sg7
F204.0868
sg8
S'c1565482-4bfe-3a13-a319-a776d91d30b5'
p181
sg10
S'Suffer'
p182
sg12
F0.186755
sg13
F0.003606
sg14
F0.660612
sg15
F4.0
sg16
F-6.892
sg17
F0.456334
sg18
F0.33175416583
sa(dp183
g3
F0.692792
sg4
F147.912
sg5
F0.216578
sg6
I0
sg7
F253.00417
sg8
S'802334d9-5f11-3caa-ad71-85fb74062c7b'
p184
sg10
S'One of My Homies'
p185
sg12
F0.113728
sg13
F0.088229
sg14
F0.639507
sg15
F4.0
sg16
F-7.402
sg17
F0.769965
sg18
F0.450085095424
sa(dp186
g3
F0.707916
sg4
F136.009
sg5
F0.028838
sg6
I0
sg7
F215.59859
sg8
S'ef43f660-d0a8-367a-a198-9a729adaea5d'
p187
sg10
S'I Wanna Fall in Love'
p188
sg12
F0.163357
sg13
F0.264176
sg14
F0.530158
sg15
F4.0
sg16
F-5.367
sg17
F0.589864
sg18
F0.473572689386
sa(dp189
g3
F0.842754
sg4
F153.453
sg5
F0.130876
sg6
I0
sg7
F288.73288
sg8
S'dd710170-1efb-343e-8b82-664d343a495f'
p190
sg10
S'Oughta Know Better'
p191
sg12
F0.133341
sg13
F0.270799
sg14
F0.564903
sg15
F4.0
sg16
F-4.995
sg17
F0.74668
sg18
F0.486548390104
sa(dp192
g3
F0.679476
sg4
F140.024
sg5
F0.044644
sg6
I0
sg7
F306.03079
sg8
S'a4d9339a-a86b-3273-bcad-98ef1e66bf6f'
p193
sg10
S'Belong (feat. Headphone Activist)'
p194
sg12
F0.243577
sg13
F0.182759
sg14
F0.52916
sg15
F4.0
sg16
F-6.793
sg17
F0.115253
sg18
F0.466890261436
sa(dp195
g3
F0.865466
sg4
F140.894
sg5
F0.034981
sg6
I0
sg7
F216.74621
sg8
S'50b5f1ef-7fa9-39f1-a9b5-f3709eae40ac'
p196
sg10
S'Black Lotus'
p197
sg12
F0.208071
sg13
F5.4e-05
sg14
F0.41383
sg15
F4.0
sg16
F-5.168
sg17
F0.364126
sg18
F0.418299168636
sa(dp198
g3
F0.90722
sg4
F135.108
sg5
F0.181556
sg6
I0
sg7
F197.15955
sg8
S'6f52fbcc-6f11-3880-bd10-c9fd9e37a802'
p199
sg10
S'Dope.Fly.Fresh Feat. Boss Of Nova'
p200
sg12
F0.177694
sg13
F0.126564
sg14
F0.653527
sg15
F4.0
sg16
F-4.621
sg17
F0.515755
sg18
F0.446822875739
sa(dp201
g3
F0.462789
sg4
F149.936
sg5
F0.071855
sg6
I0
sg7
F164.34621
sg8
S'236d7414-c909-32ba-9728-7819ecae6a09'
p202
sg10
S'All Along'
p203
sg12
F0.09447
sg13
F0.325937
sg14
F0.562277
sg15
F4.0
sg16
F-10.067
sg17
F0.542521
sg18
F0.360503634538
sa(dp204
g3
F0.72856
sg4
F139.932
sg5
F0.068888
sg6
I0
sg7
F111.46512
sg8
S'3880f4d7-5765-3582-8ba4-3295f4869c4b'
p205
sg10
S'So Into You'
p206
sg12
F0.208833
sg13
F0.01052
sg14
F0.524872
sg15
F4.0
sg16
F-9.617
sg17
F0.406386
sg18
F0.245935556317
sa(dp207
g3
F0.801005
sg4
F144.049
sg5
F0.069896
sg6
I0
sg7
F171.22621
sg8
S'268a8c1d-6c03-37d8-9d3c-c332bb06a19d'
p208
sg10
S'Intro'
p209
sg12
F0.379013
sg13
F0.018552
sg14
F0.472562
sg15
F4.0
sg16
F-12.649
sg17
F0.128958
sg18
F0.466138835288
sa(dp210
g3
F0.592717
sg4
F140.012
sg5
F0.262772
sg6
I0
sg7
F373.71383
sg8
S'180e63d2-9091-33bc-b948-6613a187a8b9'
p211
sg10
S'Bassturbation - Oyaebu Break Cut'
p212
sg12
F0.096424
sg13
F0.000393
sg14
F0.722479
sg15
F4.0
sg16
F-7.398
sg17
F0.282421
sg18
F0.488779257272
sa(dp213
g3
F0.49506
sg4
F138.979
sg5
F0.029786
sg6
I0
sg7
F164.67982
sg8
S'1a526d92-7d4e-3595-ad6c-8a20fc791be4'
p214
sg10
S"I Won't Wait (feat. Conor Oberst)"
p215
sg12
F0.11303
sg13
F0.486549
sg14
F0.605496
sg15
F4.0
sg16
F-9.455
sg17
F0.618432
sg18
F0.439061034445
sa(dp216
g3
F0.804271
sg4
F136.477
sg5
F0.037397
sg6
I0
sg7
F163.97288
sg8
S'6f01aabb-7219-39a3-bed6-47982681e6f0'
p217
sg10
S'Double Exposure'
p218
sg12
F0.249077
sg13
F0.001577
sg14
F0.509203
sg15
F4.0
sg16
F-6.304
sg17
F0.897084
sg18
F0.47170933954
sa(dp219
g3
F0.906481
sg4
F134.946
sg5
F0.105903
sg6
I0
sg7
F144.54621
sg8
S'12dd6fce-3ef5-3163-a669-581ab8571111'
p220
sg10
S"I Don't Get That"
p221
sg12
F0.116427
sg13
F0.30592
sg14
F0.486344
sg15
F4.0
sg16
F-2.98
sg17
F0.528367
sg18
F0.47170933954
sa(dp222
g3
F0.630527
sg4
F156.032
sg5
F0.0389
sg6
I0
sg7
F176.26621
sg8
S'ea36de16-25f4-3528-b3b8-2a67088c8589'
p223
sg10
S'Coming Down'
p224
sg12
F0.111614
sg13
F0.050127
sg14
F0.549475
sg15
F3.0
sg16
F-7.523
sg17
F0.30577
sg18
F0.450018983089
sa(dp225
g3
F0.882658
sg4
F146.003
sg5
F0.304427
sg6
I0
sg7
F288.87619
sg8
S'a1c6adba-c5aa-3f6a-8c8b-4f129741605f'
p226
sg10
S'B-N-M'
p227
sg12
F0.083497
sg13
F0.002205
sg14
F0.902268
sg15
F4.0
sg16
F-4.822
sg17
F0.868148
sg18
F0.334559809193
sa(dp228
g3
F0.84615
sg4
F150.045
sg5
F0.074018
sg6
I0
sg7
F210.40435
sg8
S'61fd7e41-d0ae-3f11-b0ec-4f6ff3be5f7d'
p229
sg10
S'Red Horns'
p230
sg12
F0.149397
sg13
F0.016383
sg14
F0.808511
sg15
F4.0
sg16
F-3.837
sg17
F0.826734
sg18
F0.334559809193
sa(dp231
g3
F0.85191
sg4
F140.006
sg5
F0.109529
sg6
I0
sg7
F261.57823
sg8
S'a69f798a-ce69-3aba-be0e-867a6eda83c5'
p232
sg10
S'Respect for My City'
p233
sg12
F0.072402
sg13
F0.000185
sg14
F0.805651
sg15
F4.0
sg16
F-6.185
sg17
F0.389966
sg18
F0.334559809193
sa(dp234
g3
F0.691697
sg4
F139.963
sg5
F0.279152
sg6
I0
sg7
F195.3317
sg8
S'1f04a27e-faf4-326b-9954-ded26579c678'
p235
sg10
S"It's Just Us"
p236
sg12
F0.069058
sg13
F0.001001
sg14
F0.80204
sg15
F4.0
sg16
F-6.416
sg17
F0.746087
sg18
F0.334559809193
sa(dp237
g3
F0.809897
sg4
F140.027
sg5
F0.034914
sg6
I0
sg7
F203.13156
sg8
S'f196516c-0c50-3b13-b58d-f74398663efb'
p238
sg10
S"I'll Go to My Helix"
p239
sg12
F0.245495
sg13
F0.885055
sg14
F0.635373
sg15
F4.0
sg16
F-10.394
sg17
F0.500484
sg18
F0.275994516708
sa(dp240
g3
F0.337295
sg4
F139.954
sg5
F0.153615
sg6
I0
sg7
F360.76354
sg8
S'ef9b3488-9b51-34c3-a481-48614ce3ad7c'
p241
sg10
S'As I Open the Door'
p242
sg12
F0.155824
sg13
F0.042726
sg14
F0.40641
sg15
F4.0
sg16
F-15.458
sg17
F0.054957
sg18
F0.275994516708
sa(dp243
g3
F0.625709
sg4
F137.067
sg5
F0.029579
sg6
I0
sg7
F222.45941
sg8
S'8f0fe8bf-ce91-3826-9a37-bf8a6fc4197c'
p244
sg10
S'One More Song'
p245
sg12
F0.092621
sg13
F0.267624
sg14
F0.632815
sg15
F4.0
sg16
F-4.952
sg17
F0.519031
sg18
F0.443568291148
sa(dp246
g3
F0.56178
sg4
F155.406
sg5
F0.035035
sg6
I0
sg7
F238.26621
sg8
S'7dc02f41-22d2-3ae2-b13c-1c9c214cfa1c'
p247
sg10
S'High Definition'
p248
sg12
F0.118549
sg13
F0.002833
sg14
F0.207419
sg15
F4.0
sg16
F-7.553
sg17
F0.125722
sg18
F0.487558872394
sa(dp249
g3
F0.444343
sg4
F139.99
sg5
F0.05773
sg6
I0
sg7
F253.99955
sg8
S'29358bc9-db43-380e-a606-a95f2ffb68d1'
p250
sg10
S'Queue'
p251
sg12
F0.052999
sg13
F0.007049
sg14
F0.720337
sg15
F4.0
sg16
F-15.334
sg17
F0.380232
sg18
F0.386389068806
sa(dp252
g3
F0.500344
sg4
F140.03
sg5
F0.131029
sg6
I0
sg7
F163.14231
sg8
S'4175a2d6-0c7a-307d-b295-63aca3dbc39a'
p253
sg10
S'Stack'
p254
sg12
F0.370365
sg13
F0.072819
sg14
F0.762336
sg15
F4.0
sg16
F-10.734
sg17
F0.332579
sg18
F0.386389068806
sa(dp255
g3
F0.562391
sg4
F144.971
sg5
F0.078672
sg6
I0
sg7
F228.7581
sg8
S'2f420b84-35b0-3139-ae9c-197d55c0689a'
p256
sg10
S'Vector'
p257
sg12
F0.057878
sg13
F0.028009
sg14
F0.747926
sg15
F4.0
sg16
F-14.278
sg17
F0.571001
sg18
F0.386389068806
sa(dp258
g3
F0.47591
sg4
F135.0
sg5
F0.049734
sg6
I0
sg7
F190.44399
sg8
S'b453fe99-1a99-338d-9797-0d29b35c7011'
p259
sg10
S'Tree'
p260
sg12
F0.117991
sg13
F0.820178
sg14
F0.682168
sg15
F4.0
sg16
F-14.316
sg17
F0.075558
sg18
F0.386389068806
sa(dp261
g3
F0.1099
sg4
F137.323
sg5
F0.034681
sg6
I0
sg7
F71.27955
sg8
S'b1658821-852d-360e-be2b-24b56ae827e1'
p262
sg10
S'"Tuesday" from Holding On'
p263
sg12
F0.127881
sg13
F0.76527
sg14
F0.291528
sg15
F5.0
sg16
F-19.455
sg17
F0.038062
sg18
F0.273430095496
sa(dp264
g3
F0.11307
sg4
F141.414
sg5
F0.042711
sg6
I0
sg7
F102.33288
sg8
S'a57b5dcf-6559-39ae-a8fc-f6c7d0d76144'
p265
sg10
S'Unused End Credits'
p266
sg12
F0.096371
sg13
F0.906275
sg14
F0.189625
sg15
F3.0
sg16
F-21.281
sg17
F0.108585
sg18
F0.273430095496
sa(dp267
g3
F0.72793
sg4
F139.96
sg5
F0.095229
sg6
I0
sg7
F275.37088
sg8
S'34397001-6af4-3aee-a65a-24810ed135e0'
p268
sg10
S'Party Crash'
p269
sg12
F0.131369
sg13
F0.005534
sg14
F0.761185
sg15
F4.0
sg16
F-9.593
sg17
F0.736806
sg18
F0.252932913188
sa(dp270
g3
F0.874226
sg4
F139.232
sg5
F0.116169
sg6
I0
sg7
F255.46558
sg8
S'3aca7094-0e90-3cc0-9f3f-c8c98af78613'
p271
sg10
S'Dark Thoughts'
p272
sg12
F0.076952
sg13
F0.051981
sg14
F0.499547
sg15
F4.0
sg16
F-6.747
sg17
F0.664316
sg18
F0.252932913188
sa(dp273
g3
F0.733137
sg4
F140.0
sg5
F0.177883
sg6
I0
sg7
F281.0917
sg8
S'e97b7585-5ace-33cf-a80a-1b158c55c9d0'
p274
sg10
S'Gangsta Snaps'
p275
sg12
F0.165514
sg13
F0.074045
sg14
F0.834044
sg15
F4.0
sg16
F-8.872
sg17
F0.819311
sg18
F0.252932913188
sa(dp276
g3
F0.590338
sg4
F139.914
sg5
F0.053822
sg6
I0
sg7
F301.75456
sg8
S'2d656c70-67d8-3abf-a4aa-d6bd663a5ac1'
p277
sg10
S'CrossBreed'
p278
sg12
F0.10082
sg13
F0.000147
sg14
F0.64293
sg15
F4.0
sg16
F-9.164
sg17
F0.499096
sg18
F0.252932913188
sa(dp279
g3
F0.666216
sg4
F135.914
sg5
F0.393745
sg6
I0
sg7
F205.75456
sg8
S'fb131881-858e-3aff-8937-10d77251ae1a'
p280
sg10
S'Game Change'
p281
sg12
F0.053725
sg13
F0.08806
sg14
F0.346995
sg15
F4.0
sg16
F-6.421
sg17
F0.323407
sg18
F0.252932913188
saa(lp282
(dp283
g3
F0.894473
sg4
F104.07
sg5
F0.107239
sg6
I1
sg7
F220.85873
sg8
S'0d6d61c1-8c3b-39bc-a884-763db5063468'
p284
sg10
S"Ain't it fun"
p285
sg12
F0.090593
sg13
F0.168065
sg14
F0.635435
sg15
F4.0
sg16
F-3.457
sg17
F0.689844
sg18
F0.402165130573
sa(dp286
g3
F0.931926
sg4
F112.631
sg5
F0.110934
sg6
I1
sg7
F278.59955
sg8
S'c124db32-ed38-3dc5-9775-a42c587c7ba3'
p287
sg10
S'Hoover Dam'
p288
sg12
F0.704776
sg13
F0.030926
sg14
F0.375139
sg15
F4.0
sg16
F-4.738
sg17
F0.383736
sg18
F0.477314504435
sa(dp289
g3
F0.988793
sg4
F110.951
sg5
F0.13355
sg6
I1
sg7
F220.65288
sg8
S'029303d6-8209-37a4-b0ca-1feff5b0950e'
p290
sg10
S'Celebrated Summer'
p291
sg12
F0.741292
sg13
F0.024074
sg14
F0.227757
sg15
F4.0
sg16
F-4.376
sg17
F0.099879
sg18
F0.477314504435
sa(dp292
g3
F0.994101
sg4
F113.77
sg5
F0.225832
sg6
I1
sg7
F198.97288
sg8
S'a6ed2d45-9a62-38ac-b021-585eeeddce10'
p293
sg10
S'I Apologize'
p294
sg12
F0.413744
sg13
F0.011545
sg14
F0.324268
sg15
F4.0
sg16
F-3.904
sg17
F0.191411
sg18
F0.477314504435
sa(dp295
g3
F0.513172
sg4
F110.144
sg5
F0.056832
sg6
I1
sg7
F357.66667
sg8
S'e18e1be5-f93a-3ffd-85ae-978e479081a6'
p296
sg10
S'Typical Situation'
p297
sg12
F0.112827
sg13
F0.223218
sg14
F0.35606
sg15
F4.0
sg16
F-9.478
sg17
F0.245124
sg18
F0.381223175296
sa(dp298
g3
F0.940381
sg4
F112.601
sg5
F0.069971
sg6
I1
sg7
F293.63955
sg8
S'93393bb2-5304-3d11-ab2a-44046cdb1490'
p299
sg10
S'What Would You Say'
p300
sg12
F0.974162
sg13
F0.06518
sg14
F0.570784
sg15
F4.0
sg16
F-4.551
sg17
F0.639763
sg18
F0.381223175296
sa(dp301
g3
F0.680163
sg4
F108.746
sg5
F0.050117
sg6
I1
sg7
F491.89288
sg8
S'8d5809d3-a581-3783-8563-74cf0665a4f5'
p302
sg10
S'Dancing Nancies'
p303
sg12
F0.995975
sg13
F0.631317
sg14
F0.401177
sg15
F4.0
sg16
F-10.662
sg17
F0.588296
sg18
F0.381223175296
sa(dp304
g3
F0.518542
sg4
F109.029
sg5
F0.048423
sg6
I1
sg7
F361.89333
sg8
S'99abe840-38f9-30d7-8f3a-a13f9027b1df'
p305
sg10
S'Ants Marching'
p306
sg12
F0.946814
sg13
F0.404146
sg14
F0.600029
sg15
F4.0
sg16
F-13.682
sg17
F0.762312
sg18
F0.381223175296
sa(dp307
g3
F0.478698
sg4
F102.438
sg5
F0.047663
sg6
I1
sg7
F521.27302
sg8
S'fc22a7c0-4744-30d3-8024-d0da4821b6e3'
p308
sg10
S'Say Goodbye'
p309
sg12
F0.679387
sg13
F0.252648
sg14
F0.409587
sg15
F4.0
sg16
F-17.905
sg17
F0.215042
sg18
F0.381223175296
sa(dp310
g3
F0.86857
sg4
F103.692
sg5
F0.10245
sg6
I1
sg7
F434.77451
sg8
S'babd71d5-02e8-3c06-9333-ea0c52480f8b'
p311
sg10
S'One Sweet World (2.25.10)'
p312
sg12
F0.984992
sg13
F0.064524
sg14
F0.393021
sg15
F4.0
sg16
F-6.662
sg17
F0.42208
sg18
F0.381223175296
sa(dp313
g3
F0.898703
sg4
F111.157
sg5
F0.057786
sg6
I1
sg7
F307.93333
sg8
S'f4e2ae35-1b45-3274-81cb-bf80ff983c9f'
p314
sg10
S'Halloween'
p315
sg12
F0.14228
sg13
F0.097279
sg14
F0.585067
sg15
F4.0
sg16
F-5.071
sg17
F0.449565
sg18
F0.381223175296
sa(dp316
g3
F0.757064
sg4
F98.296
sg5
F0.050496
sg6
I1
sg7
F147.53333
sg8
S'9dc5a186-5145-3615-b4c4-94daee5ce188'
p317
sg10
S'Rockaway Beach'
p318
sg12
F0.493363
sg13
F0.001155
sg14
F0.342374
sg15
F4.0
sg16
F-11.727
sg17
F0.737457
sg18
F0.29736985343
sa(dp319
g3
F0.952564
sg4
F101.034
sg5
F0.074036
sg6
I1
sg7
F186.09587
sg8
S'cf88f568-1478-3a13-824e-d40f3400a15a'
p320
sg10
S'Salvation - Spoken Word (with Music Accompaniment) Song (feat. Mr Gee)'
p321
sg12
F0.257887
sg13
F0.014799
sg14
F0.539875
sg15
F4.0
sg16
F-5.297
sg17
F0.69679
sg18
F0.425636904781
sa(dp322
g3
F0.29466
sg4
F97.061
sg5
F0.211026
sg6
I1
sg7
F249.59955
sg8
S'f03cb5dc-ca32-3315-82d8-7805a897b7bb'
p323
sg10
S'Evil and Crossroads - Blues Album'
p324
sg12
F0.087666
sg13
F0.119558
sg14
F0.840959
sg15
F4.0
sg16
F-14.366
sg17
F0.180929
sg18
F0.467981504505
sa(dp325
g3
F0.457669
sg4
F106.981
sg5
F0.029265
sg6
I1
sg7
F236.14649
sg8
S'33e9f510-daf4-348b-9205-6d2e0e2e97ea'
p326
sg10
S'Say Love - Contemporary Christian / Gospel Album'
p327
sg12
F0.075758
sg13
F0.162804
sg14
F0.613915
sg15
F4.0
sg16
F-7.896
sg17
F0.299011
sg18
F0.458357506423
sa(dp328
g3
F0.666091
sg4
F108.023
sg5
F0.034691
sg6
I1
sg7
F275.98322
sg8
S'f26f054e-f2f8-34d1-a0c3-0a238b1a0a9a'
p329
sg10
S'Some Nights (Cecilia) - (Orig. by Fun. / Simon & Garfunkel) - Cover Song'
p330
sg12
F0.124294
sg13
F0.23728
sg14
F0.619342
sg15
F4.0
sg16
F-5.355
sg17
F0.635094
sg18
F0.314817881956
sa(dp331
g3
F0.538238
sg4
F112.512
sg5
F0.155705
sg6
I1
sg7
F189.41342
sg8
S'2e963965-b80e-3fbb-89d9-df28456fb41f'
p332
sg10
S'From My Blue - Dance / Electronica Album'
p333
sg12
F0.413416
sg13
F0.173612
sg14
F0.579983
sg15
F3.0
sg16
F-6.821
sg17
F0.28638
sg18
F0.429842559251
sa(dp334
g3
F0.713607
sg4
F97.285
sg5
F0.113137
sg6
I1
sg7
F351.92118
sg8
S'7be573e5-8567-3a67-9ce8-abcdc3bf0bc6'
p335
sg10
S'Umbrella - Story Song'
p336
sg12
F0.352625
sg13
F0.279494
sg14
F0.549263
sg15
F4.0
sg16
F-7.243
sg17
F0.729726
sg18
F0.296439051324
sa(dp337
g3
F0.820893
sg4
F111.968
sg5
F0.092312
sg6
I1
sg7
F229.11955
sg8
S'b0385c89-56f7-34ab-9166-169aba89413d'
p338
sg10
S'Kick Drum High Hat'
p339
sg12
F0.098917
sg13
F0.23694
sg14
F0.692355
sg15
F4.0
sg16
F-6.851
sg17
F0.613175
sg18
F0.309031421999
sa(dp340
g3
F0.692904
sg4
F96.967
sg5
F0.067373
sg6
I1
sg7
F223.02621
sg8
S'973f8525-ef97-38ab-a493-e872d7ae4e96'
p341
sg10
S'De-Stress'
p342
sg12
F0.073711
sg13
F0.042693
sg14
F0.848715
sg15
F4.0
sg16
F-6.374
sg17
F0.812565
sg18
F0.451966312978
sa(dp343
g3
F0.959983
sg4
F108.954
sg5
F0.085962
sg6
I1
sg7
F212.81288
sg8
S'6a484194-691d-3847-b306-39827a3619ca'
p344
sg10
S'Cranial Infestation'
p345
sg12
F0.296731
sg13
F2.1e-05
sg14
F0.501709
sg15
F4.0
sg16
F-4.01
sg17
F0.275059
sg18
F0.422090060039
sa(dp346
g3
F0.977573
sg4
F112.527
sg5
F0.190583
sg6
I1
sg7
F341.95955
sg8
S'de9dcb68-9d4e-38cd-bfec-0bef7ad294f7'
p347
sg10
S'Inferno'
p348
sg12
F0.354615
sg13
F1.2e-05
sg14
F0.17929
sg15
F4.0
sg16
F-4.45
sg17
F0.103992
sg18
F0.390103771643
sa(dp349
g3
F0.775976
sg4
F107.27
sg5
F0.061249
sg6
I1
sg7
F218.38621
sg8
S'd3a84d11-8455-3602-8cd6-cd4c498dec2b'
p350
sg10
S'Robitussin and Rejection'
p351
sg12
F0.20043
sg13
F1.3e-05
sg14
F0.200381
sg15
F4.0
sg16
F-4.7
sg17
F0.154389
sg18
F0.402066108118
sa(dp352
g3
F0.586208
sg4
F102.26
sg5
F0.091712
sg6
I1
sg7
F221.30041
sg8
S'f8ccf270-0bae-3a23-ab2f-7d6ad5168bca'
p353
sg10
S'Face the Music'
p354
sg12
F0.314415
sg13
F0.01875
sg14
F0.832224
sg15
F4.0
sg16
F-8.12
sg17
F0.283424
sg18
F0.439177508455
sa(dp355
g3
F0.526636
sg4
F106.317
sg5
F0.025082
sg6
I1
sg7
F232.47302
sg8
S'e6afae31-b9f0-3046-b927-79f57266f01a'
p356
sg10
S'How They Want Me To Be'
p357
sg12
F0.138389
sg13
F0.534604
sg14
F0.52702
sg15
F4.0
sg16
F-8.38
sg17
F0.325479
sg18
F0.468873175959
sa(dp358
g3
F0.875429
sg4
F115.101
sg5
F0.052552
sg6
I1
sg7
F149.81288
sg8
S'5b6ff226-5e1f-376a-8c03-460b960549ac'
p359
sg10
S'Boyfriend'
p360
sg12
F0.147798
sg13
F0.120742
sg14
F0.251596
sg15
F4.0
sg16
F-3.864
sg17
F0.584839
sg18
F0.468873175959
sa(dp361
g3
F0.80422
sg4
F105.455
sg5
F0.029271
sg6
I1
sg7
F162.66621
sg8
S'e25de644-5643-31e7-b874-bf6d9b8a2ce3'
p362
sg10
S'The Only Place'
p363
sg12
F0.193944
sg13
F0.001398
sg14
F0.551381
sg15
F4.0
sg16
F-6.549
sg17
F0.708936
sg18
F0.468873175959
sa(dp364
g3
F0.407223
sg4
F113.017
sg5
F0.072577
sg6
I1
sg7
F74.77288
sg8
S'a5c7813b-486d-3756-b3ae-7e2d5adcf30b'
p365
sg10
S'"Design Obsession" from Insignia'
p366
sg12
F0.198817
sg13
F0.00152
sg14
F0.714951
sg15
F4.0
sg16
F-16.247
sg17
F0.276962
sg18
F0.273430095496
sa(dp367
g3
F0.073962
sg4
F110.999
sg5
F0.058726
sg6
I1
sg7
F91.31955
sg8
S'846e4a01-3752-371d-a840-1b63dc42f99f'
p368
sg10
S'"The Retrospective / End Credits" from Insignia'
p369
sg12
F0.070995
sg13
F0.984689
sg14
F0.468001
sg15
F3.0
sg16
F-23.537
sg17
F0.243531
sg18
F0.273430095496
sa(dp370
g3
F0.177545
sg4
F110.319
sg5
F0.055385
sg6
I1
sg7
F121.70621
sg8
S'f573b191-ca21-31a1-9594-47e22958707e'
p371
sg10
S'Good Christian Friends  Rejoice'
p372
sg12
F0.097516
sg13
F0.984475
sg14
F0.55923
sg15
F4.0
sg16
F-15.477
sg17
F0.462483
sg18
F0.354734404735
sa(dp373
g3
F0.886183
sg4
F110.015
sg5
F0.025166
sg6
I1
sg7
F211.57288
sg8
S'a4b325f1-921c-347d-9d9e-6be6e95e2b30'
p374
sg10
S'Modern Love'
p375
sg12
F0.208591
sg13
F0.052954
sg14
F0.740648
sg15
F4.0
sg16
F-3.459
sg17
F0.973866
sg18
F0.499727972349
sa(dp376
g3
F0.850832
sg4
F107.018
sg5
F0.038588
sg6
I1
sg7
F208.27955
sg8
S'b272c043-9dbe-3b3b-b8ad-cefa95842f8b'
p377
sg10
S'Faster'
p378
sg12
F0.333886
sg13
F0.009181
sg14
F0.742982
sg15
F4.0
sg16
F-4.17
sg17
F0.953739
sg18
F0.499727972349
sa(dp379
g3
F0.777306
sg4
F115.046
sg5
F0.032536
sg6
I1
sg7
F236.34621
sg8
S'd847ea0c-bf52-3b59-b73d-5d81982d54ff'
p380
sg10
S"sponge won't soak"
p381
sg12
F0.110958
sg13
F0.002559
sg14
F0.662103
sg15
F4.0
sg16
F-6.244
sg17
F0.599511
sg18
F0.517026255554
sa(dp382
g3
F0.620529
sg4
F112.108
sg5
F0.039441
sg6
I1
sg7
F208.46621
sg8
S'1a5c0e6f-82be-36d8-91de-d2a2554be77d'
p383
sg10
S'Stranger'
p384
sg12
F0.146026
sg13
F0.885592
sg14
F0.684984
sg15
F4.0
sg16
F-9.26
sg17
F0.935729
sg18
F0.478355424422
sa(dp385
g3
F0.457495
sg4
F111.244
sg5
F0.041163
sg6
I1
sg7
F201.79546
sg8
S'8d06631c-7449-3515-a1a4-fef63a95cbae'
p386
sg10
S'Hit Me'
p387
sg12
F0.095937
sg13
F0.001244
sg14
F0.630803
sg15
F4.0
sg16
F-16.315
sg17
F0.601079
sg18
F0.418299168636
sa(dp388
g3
F0.64054
sg4
F107.877
sg5
F0.029804
sg6
I1
sg7
F201.66621
sg8
S'a8e6ac1c-5e12-3f1d-9b57-6bbb5c263b4a'
p389
sg10
S'Right Time'
p390
sg12
F0.350808
sg13
F0.08893
sg14
F0.563225
sg15
F4.0
sg16
F-8.231
sg17
F0.495171
sg18
F0.497233581082
sa(dp391
g3
F0.549929
sg4
F98.193
sg5
F0.035171
sg6
I1
sg7
F208.02621
sg8
S'9dfdda01-73b3-3719-ae24-2c35aab478f6'
p392
sg10
S'Unrevenged'
p393
sg12
F0.075143
sg13
F0.170879
sg14
F0.684711
sg15
F4.0
sg16
F-8.712
sg17
F0.292736
sg18
F0.51372479895
sa(dp394
g3
F0.8866
sg4
F106.12
sg5
F0.037407
sg6
I1
sg7
F183.0
sg8
S'6b8c4ea3-73e3-32a7-9a4c-6aafd8911cd3'
p395
sg10
S'The Lash Of The Whip'
p396
sg12
F0.069147
sg13
F0.004871
sg14
F0.452122
sg15
F4.0
sg16
F-3.034
sg17
F0.51473
sg18
F0.486346127806
sa(dp397
g3
F0.973737
sg4
F108.955
sg5
F0.079588
sg6
I1
sg7
F208.4683
sg8
S'db47b36f-3cb0-3dd4-8550-9777d7f0f0a4'
p398
sg10
S'Moonlight Equilibrium'
p399
sg12
F0.336811
sg13
F3e-05
sg14
F0.477216
sg15
F4.0
sg16
F-6.292
sg17
F0.328289
sg18
F0.380335878318
sa(dp400
g3
F0.640353
sg4
F100.007
sg5
F0.0271
sg6
I1
sg7
F270.23601
sg8
S'770eb6c9-c171-3738-81cc-bb072ba47a30'
p401
sg10
S'\xd0\xa5\xd0\xb8\xd0\xbf\xd1\x81\xd1\x82\xd0\xb5\xd1\x80'
p402
sg12
F0.105663
sg13
F0.004025
sg14
F0.498416
sg15
F4.0
sg16
F-6.827
sg17
F0.209346
sg18
F0.571071436124
sa(dp403
g3
F0.316235
sg4
F100.442
sg5
F0.052565
sg6
I1
sg7
F207.33342
sg8
S'6201f05f-de98-3365-85fa-40ab7cef65b8'
p404
sg10
S"When We're Fire"
p405
sg12
F0.096808
sg13
F0.121053
sg14
F0.743483
sg15
F4.0
sg16
F-20.382
sg17
F0.153389
sg18
F0.665735656125
sa(dp406
g3
F0.765785
sg4
F112.014
sg5
F0.042008
sg6
I1
sg7
F187.82222
sg8
S'3dedb740-1058-3755-a7ac-321d27265143'
p407
sg10
S'Let the Good Times Roll'
p408
sg12
F0.926332
sg13
F0.180748
sg14
F0.652282
sg15
F4.0
sg16
F-4.844
sg17
F0.511869
sg18
F0.50106936713
sa(dp409
g3
F0.248191
sg4
F100.067
sg5
F0.031263
sg6
I1
sg7
F186.41288
sg8
S'babaa23b-b9a0-3232-a992-b8a09532937a'
p410
sg10
S'White Dove'
p411
sg12
F0.111155
sg13
F0.789648
sg14
F0.24073
sg15
F4.0
sg16
F-12.185
sg17
F0.232742
sg18
F0.553378844811
sa(dp412
g3
F0.0807
sg4
F114.707
sg5
F0.038507
sg6
I1
sg7
F173.41823
sg8
S'14382c26-fb68-324a-9800-3036083e4d53'
p413
sg10
S'Pastel Garden'
p414
sg12
F0.119636
sg13
F0.988842
sg14
F0.437436
sg15
F3.0
sg16
F-22.448
sg17
F0.307531
sg18
F0.553378844811
sa(dp415
g3
F0.927924
sg4
F98.474
sg5
F0.044055
sg6
I1
sg7
F136.02621
sg8
S'991d1a54-5ca1-3a4c-bceb-6a0c303d3803'
p416
sg10
S'No Waves'
p417
sg12
F0.109231
sg13
F0.000713
sg14
F0.480968
sg15
F4.0
sg16
F-4.199
sg17
F0.34093
sg18
F0.492095052637
sa(dp418
g3
F0.816924
sg4
F97.71
sg5
F0.029784
sg6
I1
sg7
F272.44517
sg8
S'f784e2af-0ff3-3d91-9727-0d70e46d32b6'
p419
sg10
S'Do The Trick'
p420
sg12
F0.060042
sg13
F0.182439
sg14
F0.549465
sg15
F4.0
sg16
F-4.861
sg17
F0.848776
sg18
F0.44277217852
sa(dp421
g3
F0.901423
sg4
F97.366
sg5
F0.065156
sg6
I1
sg7
F228.32952
sg8
S'76b729e9-4092-3bb4-8241-5f4c58a8d455'
p422
sg10
S'That Old Black Hole'
p423
sg12
F0.680955
sg13
F0.001734
sg14
F0.45891
sg15
F4.0
sg16
F-7.135
sg17
F0.59184
sg18
F0.44277217852
sa(dp424
g3
F0.395037
sg4
F109.184
sg5
F0.028618
sg6
I1
sg7
F405.52444
sg8
S'6e97ad0a-2916-3c9c-b797-7d243382a4b6'
p425
sg10
S'Danko/Manuel (Live)'
p426
sg12
F0.254781
sg13
F0.78579
sg14
F0.393761
sg15
F4.0
sg16
F-8.798
sg17
F0.193262
sg18
F0.508785783354
sa(dp427
g3
F0.501421
sg4
F102.361
sg5
F0.031955
sg6
I1
sg7
F296.33261
sg8
S'6b6c07fc-b85a-348a-ac33-5b413df063c4'
p428
sg10
S'Glory'
p429
sg12
F0.673882
sg13
F0.35736
sg14
F0.291331
sg15
F4.0
sg16
F-13.653
sg17
F0.176022
sg18
F0.415381464026
sa(dp430
g3
F0.537843
sg4
F101.989
sg5
F0.034254
sg6
I1
sg7
F695.78549
sg8
S'f9785e64-90d4-33ac-919f-c95d3b7d6876'
p431
sg10
S'2x2'
p432
sg12
F0.245253
sg13
F0.01439
sg14
F0.402734
sg15
F4.0
sg16
F-12.948
sg17
F0.187079
sg18
F0.415381464026
sa(dp433
g3
F0.415023
sg4
F103.378
sg5
F0.036912
sg6
I1
sg7
F518.60853
sg8
S'9e13b90b-715e-37d6-a826-de5d0e13c045'
p434
sg10
S'Hajimemashite'
p435
sg12
F0.736986
sg13
F0.8367
sg14
F0.302663
sg15
F4.0
sg16
F-21.119
sg17
F0.357704
sg18
F0.415381464026
sa(dp436
g3
F0.537843
sg4
F101.989
sg5
F0.034254
sg6
I1
sg7
F695.78549
sg8
S'5003d10c-e367-37a8-a5d4-e120b450ed39'
p437
sg10
g432
sg12
F0.245253
sg13
F0.01439
sg14
F0.402734
sg15
F4.0
sg16
F-12.948
sg17
F0.187079
sg18
F0.415381464026
sa(dp438
g3
F0.791328
sg4
F112.972
sg5
F0.037449
sg6
I1
sg7
F446.62667
sg8
S'f2ce1b60-e5ad-30e9-a635-0bb013c2228d'
p439
sg10
S'Layla (Live)'
p440
sg12
F0.672494
sg13
F0.217912
sg14
F0.390743
sg15
F4.0
sg16
F-6.175
sg17
F0.362721
sg18
F0.415381464026
sa(dp441
g3
F0.621438
sg4
F99.269
sg5
F0.0318
sg6
I1
sg7
F186.57288
sg8
S'572b60f2-f470-32b9-b1eb-7c7cd58ec202'
p442
sg10
S'End Of The Road'
p443
sg12
F0.122302
sg13
F0.88532
sg14
F0.257019
sg15
F4.0
sg16
F-10.007
sg17
F0.334279
sg18
F0.415381464026
sa(dp444
g3
F0.585189
sg4
F103.688
sg5
F0.031755
sg6
I1
sg7
F467.32435
sg8
S'6ff8d930-cb6a-3c1e-8105-b2cf1bb9c35c'
p445
sg10
S'August'
p446
sg12
F0.465085
sg13
F0.594032
sg14
F0.467086
sg15
F4.0
sg16
F-15.271
sg17
F0.468435
sg18
F0.415381464026
sa(dp447
g3
F0.509892
sg4
F98.65
sg5
F0.040628
sg6
I1
sg7
F473.36154
sg8
S'ada5a566-f7f3-3425-b292-314c564311ce'
p448
sg10
S"Partyin' Peeps"
p449
sg12
F0.847409
sg13
F0.372976
sg14
F0.569149
sg15
F4.0
sg16
F-16.238
sg17
F0.531608
sg18
F0.415381464026
sa(dp450
g3
F0.599522
sg4
F113.541
sg5
F0.094706
sg6
I1
sg7
F511.21007
sg8
S'ca4205a5-7ad8-3523-b0b2-c130d59d30d9'
p451
sg10
S'Pay the Snucka'
p452
sg12
F0.141208
sg13
F0.599863
sg14
F0.415488
sg15
F4.0
sg16
F-15.268
sg17
F0.135295
sg18
F0.415381464026
sa(dp453
g3
F0.478125
sg4
F98.589
sg5
F0.054291
sg6
I1
sg7
F311.4488
sg8
S'bbce6e31-2af6-390f-b40b-adb82ffc4523'
p454
sg10
S'Ringo'
p455
sg12
F0.900277
sg13
F0.622379
sg14
F0.504299
sg15
F4.0
sg16
F-19.534
sg17
F0.601321
sg18
F0.415381464026
sa(dp456
g3
F0.599522
sg4
F113.541
sg5
F0.094706
sg6
I1
sg7
F511.21007
sg8
S'31cdf476-8169-35e5-97df-afd72bdf87d9'
p457
sg10
g452
sg12
F0.141208
sg13
F0.599863
sg14
F0.415488
sg15
F4.0
sg16
F-15.268
sg17
F0.135295
sg18
F0.415381464026
sa(dp458
g3
F0.622982
sg4
F105.99
sg5
F0.052487
sg6
I1
sg7
F564.13995
sg8
S'c227bff2-a817-3135-a896-aa2abc97bf07'
p459
sg10
S'Bridgeless'
p460
sg12
F0.951079
sg13
F0.113679
sg14
F0.554666
sg15
F4.0
sg16
F-16.22
sg17
F0.351475
sg18
F0.415381464026
sa(dp461
g3
F0.50215
sg4
F102.256
sg5
F0.032281
sg6
I1
sg7
F645.39819
sg8
S'e8839246-3599-3363-b435-e0231bb207af'
p462
sg10
S'The Haunt'
p463
sg12
F0.308845
sg13
F0.181945
sg14
F0.430221
sg15
F4.0
sg16
F-13.403
sg17
F0.118054
sg18
F0.415381464026
sa(dp464
g3
F0.501421
sg4
F102.361
sg5
F0.031955
sg6
I1
sg7
F296.33261
sg8
S'93184f6c-cfeb-3fa8-a040-c81fcf2e2125'
p465
sg10
g429
sg12
F0.673882
sg13
F0.35736
sg14
F0.291331
sg15
F4.0
sg16
F-13.653
sg17
F0.176022
sg18
F0.415381464026
sa(dp466
g3
F0.311775
sg4
F100.362
sg5
F0.032594
sg6
I1
sg7
F740.77995
sg8
S'1dd9d6ca-54ee-3ad1-a175-433da00327e7'
p467
sg10
S'Mantis'
p468
sg12
F0.119825
sg13
F0.336935
sg14
F0.332457
sg15
F4.0
sg16
F-20.42
sg17
F0.274851
sg18
F0.415381464026
sa(dp469
g3
F0.311775
sg4
F100.362
sg5
F0.032594
sg6
I1
sg7
F740.77995
sg8
S'c2197aab-467f-35fa-ab74-53a928dbed26'
p470
sg10
g468
sg12
F0.119825
sg13
F0.336935
sg14
F0.332457
sg15
F4.0
sg16
F-20.42
sg17
F0.274851
sg18
F0.415381464026
sa(dp471
g3
F0.757323
sg4
F111.465
sg5
F0.058713
sg6
I1
sg7
F244.80753
sg8
S'e064d832-7836-37b2-951a-d392477205b9'
p472
sg10
S'Immigrant Song'
p473
sg12
F0.938948
sg13
F0.612588
sg14
F0.478219
sg15
F4.0
sg16
F-13.251
sg17
F0.260446
sg18
F0.415381464026
sa(dp474
g3
F0.501346
sg4
F96.632
sg5
F0.041055
sg6
I1
sg7
F481.23311
sg8
S'8a2b6052-c7f5-3e3a-8938-44c73c54cb70'
p475
sg10
S'The Bottom Half'
p476
sg12
F0.980844
sg13
F0.434847
sg14
F0.50809
sg15
F4.0
sg16
F-13.135
sg17
F0.222856
sg18
F0.415381464026
sa(dp477
g3
F0.693003
sg4
F106.071
sg5
F0.054087
sg6
I1
sg7
F350.83955
sg8
S'327cfea0-9af3-3e3b-be71-a5d1d202db39'
p478
sg10
S'Intentions Clear'
p479
sg12
F0.101423
sg13
F0.080508
sg14
F0.664405
sg15
F4.0
sg16
F-8.996
sg17
F0.324325
sg18
F0.415381464026
sa(dp480
g3
F0.58344
sg4
F101.51
sg5
F0.034249
sg6
I1
sg7
F582.30957
sg8
S'1af4f184-74f2-392e-9a04-87a9fbc5b63c'
p481
sg10
S'Much Obliged'
p482
sg12
F0.788278
sg13
F0.75886
sg14
F0.524255
sg15
F4.0
sg16
F-16.362
sg17
F0.518425
sg18
F0.415381464026
sa(dp483
g3
F0.203923
sg4
F112.554
sg5
F0.037354
sg6
I1
sg7
F172.73279
sg8
S'8c8cd4ce-3020-3038-99be-71d89d674460'
p484
sg10
S'Intro...'
p485
sg12
F0.173991
sg13
F0.976239
sg14
F0.337736
sg15
F4.0
sg16
F-19.451
sg17
F0.154083
sg18
F0.415381464026
sa(dp486
g3
F0.428849
sg4
F102.095
sg5
F0.035106
sg6
I1
sg7
F622.94449
sg8
S'10144241-7785-3715-bbdd-e5849031b135'
p487
sg10
S'Resolution >'
p488
sg12
F0.314058
sg13
F0.007328
sg14
F0.569002
sg15
F4.0
sg16
F-14.594
sg17
F0.173302
sg18
F0.415381464026
sa(dp489
g3
F0.550725
sg4
F101.418
sg5
F0.030733
sg6
I1
sg7
F713.89995
sg8
S'5bf8dfd2-101b-3a30-836b-e26ad1fc9f80'
p490
sg10
S"White Man's Moccasins"
p491
sg12
F0.286774
sg13
F0.604852
sg14
F0.30642
sg15
F4.0
sg16
F-17.898
sg17
F0.36211
sg18
F0.415381464026
sa(dp492
g3
F0.49399
sg4
F109.634
sg5
F0.029246
sg6
I1
sg7
F520.18621
sg8
S'6769719d-4bf2-3cbb-981e-5fa49b4a9392'
p493
sg10
S'Words'
p494
sg12
F0.132585
sg13
F0.605677
sg14
F0.350039
sg15
F4.0
sg16
F-10.841
sg17
F0.177524
sg18
F0.415381464026
sa(dp495
g3
F0.373179
sg4
F105.046
sg5
F0.065761
sg6
I1
sg7
F235.42621
sg8
S'a543994d-2f8a-34fe-9653-c1711f799f36'
p496
sg10
S'Buster Keaton'
p497
sg12
F0.063295
sg13
F0.498667
sg14
F0.861227
sg15
F4.0
sg16
F-8.991
sg17
F0.411938
sg18
F0.491559266938
sa(dp498
g3
F0.488703
sg4
F105.022
sg5
F0.025547
sg6
I1
sg7
F251.99955
sg8
S'4c7493b2-462b-36db-92cc-d4d8cf906217'
p499
sg10
S'Crash Landing'
p500
sg12
F0.146218
sg13
F0.472817
sg14
F0.62036
sg15
F4.0
sg16
F-11.744
sg17
F0.547062
sg18
F0.259683304522
sa(dp501
g3
F0.317244
sg4
F100.019
sg5
F0.026608
sg6
I1
sg7
F251.55955
sg8
S'ca776b59-2573-3941-b493-48cee4419da4'
p502
sg10
S'Protected'
p503
sg12
F0.190513
sg13
F0.621716
sg14
F0.596651
sg15
F4.0
sg16
F-12.895
sg17
F0.236286
sg18
F0.259683304522
sa(dp504
g3
F0.221765
sg4
F110.074
sg5
F0.035691
sg6
I1
sg7
F231.09955
sg8
S'3dc98dc9-c922-3fac-8b24-62b0b58e5891'
p505
sg10
S'Set You Free'
p506
sg12
F0.128515
sg13
F0.007989
sg14
F0.687869
sg15
F4.0
sg16
F-15.097
sg17
F0.221434
sg18
F0.259683304522
sa(dp507
g3
F0.14042
sg4
F99.999
sg5
F0.034411
sg6
I1
sg7
F205.47206
sg8
S'cedcc03a-2649-33fd-8a35-cf21d07271db'
p508
sg10
S'Ocean Breeze'
p509
sg12
F0.169822
sg13
F0.734029
sg14
F0.67301
sg15
F4.0
sg16
F-17.268
sg17
F0.205282
sg18
F0.259683304522
sa(dp510
g3
F0.562737
sg4
F100.01
sg5
F0.027154
sg6
I1
sg7
F211.09955
sg8
S'f8e3dce2-2ae7-35de-900d-ab14dcb721ab'
p511
sg10
S'Faces'
p512
sg12
F0.032165
sg13
F0.012457
sg14
F0.629081
sg15
F4.0
sg16
F-13.423
sg17
F0.655771
sg18
F0.259683304522
sa(dp513
g3
F0.35908
sg4
F97.984
sg5
F0.025305
sg6
I1
sg7
F254.79955
sg8
S'c18553d5-5105-3a6a-8dc1-66e83c49de79'
p514
sg10
S'In My Head'
p515
sg12
F0.090649
sg13
F0.392418
sg14
F0.632506
sg15
F4.0
sg16
F-15.216
sg17
F0.484545
sg18
F0.259683304522
sa(dp516
g3
F0.14817
sg4
F112.711
sg5
F0.04599
sg6
I1
sg7
F162.72898
sg8
S'f8e40694-fb4a-3dcd-a26c-bf604889543d'
p517
sg10
S'Second Class Citizen (Live)'
p518
sg12
F0.390936
sg13
F0.957954
sg14
F0.395702
sg15
F4.0
sg16
F-16.319
sg17
F0.164966
sg18
F0.261711676507
sa(dp519
g3
F0.251917
sg4
F111.677
sg5
F0.034041
sg6
I1
sg7
F228.03701
sg8
S'cad9f7cb-8975-3e9b-b826-fd396c8afbfe'
p520
sg10
S'Only Love Is Real'
p521
sg12
F0.131333
sg13
F0.807484
sg14
F0.279058
sg15
F4.0
sg16
F-15.525
sg17
F0.075639
sg18
F0.269127343221
sa(dp522
g3
F0.288196
sg4
F109.003
sg5
F0.036446
sg6
I1
sg7
F264.73905
sg8
S'1deb239d-8bf1-36f5-b8e0-b6587b4ac532'
p523
sg10
S'Happiness'
p524
sg12
F0.107551
sg13
F0.382436
sg14
F0.513654
sg15
F4.0
sg16
F-12.526
sg17
F0.226113
sg18
F0.269127343221
sa(dp525
g3
F0.653437
sg4
F114.854
sg5
F0.034173
sg6
I1
sg7
F342.99959
sg8
S'da6e002d-3119-3eb4-b334-f8893ae2180c'
p526
sg10
S'Damage Done'
p527
sg12
F0.308909
sg13
F0.076559
sg14
F0.445109
sg15
F4.0
sg16
F-7.401
sg17
F0.308249
sg18
F0.269127343221
sa(dp528
g3
F0.131073
sg4
F107.824
sg5
F0.034708
sg6
I1
sg7
F264.44
sg8
S'e54ebece-fec7-3fb8-85f3-6a4ffd72ac47'
p529
sg10
S'Tell Old Bill'
p530
sg12
F0.084081
sg13
F0.901606
sg14
F0.534071
sg15
F4.0
sg16
F-13.78
sg17
F0.347314
sg18
F0.452536045128
sa(dp531
g3
F0.674445
sg4
F101.731
sg5
F0.026787
sg6
I1
sg7
F183.34621
sg8
S'cba9662e-8031-3600-aa4c-4e5f5242231a'
p532
sg10
S'Gimme Some Salt'
p533
sg12
F0.126171
sg13
F0.08333
sg14
F0.715943
sg15
F4.0
sg16
F-6.477
sg17
F0.573512
sg18
F0.418719856012
sa(dp534
g3
F0.58701
sg4
F115.1
sg5
F0.153894
sg6
I1
sg7
F322.9561
sg8
S'ccb38163-6338-3a62-9e32-88dbace2886e'
p535
sg10
S'The Edge'
p536
sg12
F0.292205
sg13
F0.007142
sg14
F0.683801
sg15
F4.0
sg16
F-8.437
sg17
F0.212445
sg18
F0.341315943912
sa(dp537
g3
F0.8156
sg4
F114.959
sg5
F0.040649
sg6
I1
sg7
F311.03955
sg8
S'f5ad6617-9ebb-34b4-92ca-45fc4a1386eb'
p538
sg10
S'Play by Play'
p539
sg12
F0.354865
sg13
F0.035381
sg14
F0.505438
sg15
F4.0
sg16
F-5.16
sg17
F0.12812
sg18
F0.518628554476
sa(dp540
g3
F0.429131
sg4
F113.839
sg5
F0.034359
sg6
I1
sg7
F142.03306
sg8
S'00d3feea-551e-3cd2-9aee-fe89aadf6a4d'
p541
sg10
S'Lovers Can Be Monsters (7" Version)'
p542
sg12
F0.114549
sg13
F0.000712
sg14
F0.416207
sg15
F4.0
sg16
F-13.524
sg17
F0.234356
sg18
F0.344159876506
sa(dp543
g3
F0.945177
sg4
F104.974
sg5
F0.053667
sg6
I1
sg7
F230.83392
sg8
S'6c2cad38-7cb7-3eb1-b251-96ac71b44fec'
p544
sg10
S'Burnt Out'
p545
sg12
F0.2945
sg13
F0.004688
sg14
F0.396295
sg15
F3.0
sg16
F-3.509
sg17
F0.559605
sg18
F0.305265676181
sa(dp546
g3
F0.74562
sg4
F108.09
sg5
F0.038829
sg6
I1
sg7
F376.92907
sg8
S'c3d17098-18e2-3229-9561-32af4b24a65d'
p547
sg10
S'On Forgetting to Let Go'
p548
sg12
F0.073934
sg13
F0.004296
sg14
F0.462258
sg15
F4.0
sg16
F-8.802
sg17
F0.263903
sg18
F0.286610205859
sa(dp549
g3
F0.98661
sg4
F103.686
sg5
F0.066787
sg6
I1
sg7
F90.08
sg8
S'f1176604-d026-351f-a312-8bb29dea2d51'
p550
sg10
S'Guy Picciotto'
p551
sg12
F0.795919
sg13
F5e-06
sg14
F0.328959
sg15
F4.0
sg16
F-3.915
sg17
F0.090271
sg18
F0.440537657724
sa(dp552
g3
F0.658386
sg4
F98.917
sg5
F0.032123
sg6
I1
sg7
F253.59955
sg8
S'0fda7217-ffd1-3bf6-ad18-bfcc4638bbcc'
p553
sg10
S'Te Amo'
p554
sg12
F0.113718
sg13
F0.337814
sg14
F0.464507
sg15
F4.0
sg16
F-12.563
sg17
F0.142421
sg18
F0.44888095234
sa(dp555
g3
F0.193937
sg4
F101.49
sg5
F0.040782
sg6
I1
sg7
F505.94023
sg8
S'6ac5d80a-fff1-33fa-88da-dcf05edb492f'
p556
sg10
S'MOON SUBLIME BACKING VOCALS'
p557
sg12
F0.258864
sg13
F0.993556
sg14
F0.281332
sg15
F3.0
sg16
F-17.258
sg17
F0.051078
sg18
F0.334107039043
sa(dp558
g3
F0.559925
sg4
F114.069
sg5
F0.029072
sg6
I1
sg7
F256.4839
sg8
S'32517e7c-3df6-319a-b3ce-05b27fd60ee8'
p559
sg10
S'This'
p560
sg12
F0.122296
sg13
F0.033489
sg14
F0.46601
sg15
F4.0
sg16
F-11.873
sg17
F0.430864
sg18
F0.250719795666
sa(dp561
g3
F0.914983
sg4
F97.661
sg5
F0.064841
sg6
I1
sg7
F171.0
sg8
S'e8381769-d6d7-3434-af52-ab853e8e2783'
p562
sg10
S"Fuck You  I'm Famous (The Gothsicles Kind of Big Remix)"
p563
sg12
F0.310767
sg13
F2e-05
sg14
F0.401164
sg15
F4.0
sg16
F-3.996
sg17
F0.910866
sg18
F0.378714949787
sa(dp564
g3
F0.987347
sg4
F103.984
sg5
F0.054547
sg6
I1
sg7
F277.74172
sg8
S'53b0e5d5-4308-3f86-a6f6-8d4f786c17cd'
p565
sg10
S'Mangka'
p566
sg12
F0.203868
sg13
F0.015444
sg14
F0.588374
sg15
F4.0
sg16
F-4.822
sg17
F0.380163
sg18
F0.376100752575
sa(dp567
g3
F0.927106
sg4
F107.029
sg5
F0.055129
sg6
I1
sg7
F273.2951
sg8
S'df2a5763-096b-3159-983c-eaf1ee38cafd'
p568
sg10
S'Push (Tamo)'
p569
sg12
F0.184737
sg13
F0.028728
sg14
F0.683948
sg15
F4.0
sg16
F-4.595
sg17
F0.891825
sg18
F0.398246286256
sa(dp570
g3
F0.859062
sg4
F100.996
sg5
F0.103712
sg6
I1
sg7
F294.74957
sg8
S'fbcd0c4c-e711-350b-8408-13b48ec1fd82'
p571
sg10
S'A Different Face'
p572
sg12
F0.054358
sg13
F0.00084
sg14
F0.576353
sg15
F4.0
sg16
F-5.756
sg17
F0.389383
sg18
F0.387065830955
sa(dp573
g3
F0.95422
sg4
F106.002
sg5
F0.059075
sg6
I1
sg7
F367.24308
sg8
S'a61ff492-ff7d-3b5d-8715-0f85e2277aa9'
p574
sg10
S'Cracks Start to Show'
p575
sg12
F0.111179
sg13
F0.039958
sg14
F0.55701
sg15
F4.0
sg16
F-6.587
sg17
F0.237668
sg18
F0.427661987575
sa(dp576
g3
F0.966259
sg4
F106.511
sg5
F0.040405
sg6
I1
sg7
F309.25016
sg8
S'ed702f9e-62ad-3dc7-a3fe-fb075fdd7eff'
p577
sg10
S'Terminal Velocity'
p578
sg12
F0.110441
sg13
F0.003101
sg14
F0.541433
sg15
F3.0
sg16
F-6.327
sg17
F0.439717
sg18
F0.419763876557
sa(dp579
g3
F0.931457
sg4
F105.121
sg5
F0.130029
sg6
I1
sg7
F294.93288
sg8
S'e3f52581-baac-3166-a5e0-1d4c7181093a'
p580
sg10
S'Parasiempre'
p581
sg12
F0.754414
sg13
F4.8e-05
sg14
F0.296275
sg15
F4.0
sg16
F-3.713
sg17
F0.422664
sg18
F0.453297584614
sa(dp582
g3
F0.834759
sg4
F106.959
sg5
F0.035601
sg6
I1
sg7
F190.01288
sg8
S'1fcac497-9489-327e-a70a-25455330ad53'
p583
sg10
S'Undertaker'
p584
sg12
F0.114062
sg13
F0.102033
sg14
F0.655757
sg15
F4.0
sg16
F-6.159
sg17
F0.718466
sg18
F0.442529590805
sa(dp585
g3
F0.864317
sg4
F114.992
sg5
F0.081592
sg6
I1
sg7
F208.01288
sg8
S'2cf5024b-0ab9-3b70-a17a-27a798a9ed65'
p586
sg10
S'Lights Down'
p587
sg12
F0.324613
sg13
F0.004886
sg14
F0.655095
sg15
F4.0
sg16
F-6.263
sg17
F0.49414
sg18
F0.527641954497
sa(dp588
g3
F0.155774
sg4
F111.403
sg5
F0.480727
sg6
I1
sg7
F6.39955
sg8
S'ba620ede-5108-33b6-99e6-367d2a76988f'
p589
sg10
S'Of Mortals'
p590
sg12
F0.148016
sg13
F0.995796
sg14
F0.484019
sg15
F1.0
sg16
F-21.043
sg17
F0.477002
sg18
F0.442279716647
sa(dp591
g3
F0.384485
sg4
F100.16
sg5
F0.542745
sg6
I1
sg7
F182.46667
sg8
S'b664f3ac-7ce2-3110-9f48-cd66dac8f156'
p592
sg10
S"Mailin' Goats"
p593
sg12
F0.12377
sg13
F0.9909
sg14
F0.686607
sg15
F4.0
sg16
F-16.045
sg17
F0.557647
sg18
F0.382541001143
sa(dp594
g3
F0.860233
sg4
F106.242
sg5
F0.073582
sg6
I1
sg7
F336.90621
sg8
S'ca02854a-8db9-3249-ac6c-a219f780efc6'
p595
sg10
S'Everybody Want Sum'
p596
sg12
F0.480007
sg13
F0.096361
sg14
F0.687352
sg15
F4.0
sg16
F-4.9
sg17
F0.823704
sg18
F0.486548390104
sa(dp597
g3
F0.445069
sg4
F101.423
sg5
F0.034441
sg6
I1
sg7
F329.66485
sg8
S'e27f39e7-36c6-3ec9-8dbf-42ba23419839'
p598
sg10
S'Liar'
p599
sg12
F0.564404
sg13
F0.31146
sg14
F0.601952
sg15
F4.0
sg16
F-18.268
sg17
F0.870399
sg18
F0.224822874628
sa(dp600
g3
F0.727414
sg4
F108.038
sg5
F0.064392
sg6
I1
sg7
F177.77732
sg8
S'5bd18285-b0c6-35b3-9f8c-6d22eeb56331'
p601
sg10
S'Vision (feat. Golden Day)'
p602
sg12
F0.142416
sg13
F0.235524
sg14
F0.697882
sg15
F4.0
sg16
F-5.825
sg17
F0.403687
sg18
F0.466890261436
sa(dp603
g3
F0.493471
sg4
F112.704
sg5
F0.054681
sg6
I1
sg7
F267.25333
sg8
S'027328de-bf87-3111-b356-08a9e212f395'
p604
sg10
S'Feel Safe'
p605
sg12
F0.119063
sg13
F0.094397
sg14
F0.702557
sg15
F4.0
sg16
F-8.959
sg17
F0.518395
sg18
F0.562163416495
sa(dp606
g3
F0.769413
sg4
F113.004
sg5
F0.065135
sg6
I1
sg7
F192.10621
sg8
S'71c069bc-402e-31d6-b0d8-85bb2941a602'
p607
sg10
S'Stick Up Kids'
p608
sg12
F0.093219
sg13
F0.016253
sg14
F0.673241
sg15
F4.0
sg16
F-6.761
sg17
F0.616901
sg18
F0.488629260238
sa(dp609
g3
F0.578132
sg4
F109.17
sg5
F0.054122
sg6
I1
sg7
F259.41288
sg8
S'380c5ebe-9d31-3e6f-9da6-6fc0bd22968f'
p610
sg10
S'All the Lights'
p611
sg12
F0.112187
sg13
F0.066757
sg14
F0.326585
sg15
F5.0
sg16
F-8.129
sg17
F0.257545
sg18
F0.487558872394
sa(dp612
g3
F0.207823
sg4
F114.831
sg5
F0.030752
sg6
I1
sg7
F220.75955
sg8
S'66bf66d2-79ba-352b-bd37-298a8b730f94'
p613
sg10
S'Rings On Fingers'
p614
sg12
F0.084266
sg13
F0.639278
sg14
F0.546866
sg15
F4.0
sg16
F-13.227
sg17
F0.224056
sg18
F0.360503634538
sa(dp615
g3
F0.59243
sg4
F112.571
sg5
F0.027274
sg6
I1
sg7
F210.03955
sg8
S'3e1f83ef-16e5-3e2b-b8e7-b33986135929'
p616
sg10
S'Murder Room'
p617
sg12
F0.118089
sg13
F0.099267
sg14
F0.688133
sg15
F4.0
sg16
F-5.261
sg17
F0.70769
sg18
F0.529591888426
sa(dp618
g3
F0.767399
sg4
F99.989
sg5
F0.030568
sg6
I1
sg7
F180.00268
sg8
S'e7e605af-663a-3c7b-a5cc-f99555e0e20a'
p619
sg10
S'Aitzaz'
p620
sg12
F0.111319
sg13
F0.000218
sg14
F0.605617
sg15
F4.0
sg16
F-7.934
sg17
F0.260782
sg18
F0.491604045251
sa(dp621
g3
F0.237602
sg4
F99.802
sg5
F0.03156
sg6
I1
sg7
F432.32717
sg8
S'eddef3e6-0e2a-3718-a945-b638559b8855'
p622
sg10
S'Another Life'
p623
sg12
F0.161063
sg13
F0.478931
sg14
F0.315956
sg15
F4.0
sg16
F-18.736
sg17
F0.034516
sg18
F0.0627598776851
sa(dp624
g3
F0.553807
sg4
F103.947
sg5
F0.032653
sg6
I1
sg7
F280.04
sg8
S'a6b00045-81cd-3905-94f4-b5ae9bc45f25'
p625
sg10
S'Stay With Me'
p626
sg12
F0.121205
sg13
F0.016466
sg14
F0.325497
sg15
F4.0
sg16
F-8.945
sg17
F0.135632
sg18
F0.450018983089
sa(dp627
g3
F0.921691
sg4
F115.007
sg5
F0.207129
sg6
I1
sg7
F225.8166
sg8
S'bcdc344b-717a-3fb1-818d-3afeb60d98fc'
p628
sg10
S'Party Like a Muhg'
p629
sg12
F0.293966
sg13
F0.037826
sg14
F0.908499
sg15
F4.0
sg16
F-4.413
sg17
F0.69931
sg18
F0.334559809193
sa(dp630
g3
F0.910037
sg4
F105.465
sg5
F0.155498
sg6
I1
sg7
F383.2566
sg8
S'86c0356b-2eb9-33cc-bc41-0593162d44a9'
p631
sg10
S'Like Open Doors'
p632
sg12
F0.206049
sg13
F0.333901
sg14
F0.782179
sg15
F4.0
sg16
F-6.187
sg17
F0.582956
sg18
F0.334559809193
sa(dp633
g3
F0.944587
sg4
F109.949
sg5
F0.301469
sg6
I1
sg7
F217.79701
sg8
S'ca265c0d-f503-3002-a3f0-8b82aee94143'
p634
sg10
S'And Tha Story Goes...'
p635
sg12
F0.08852
sg13
F0.02132
sg14
F0.634933
sg15
F4.0
sg16
F-5.541
sg17
F0.649886
sg18
F0.334559809193
sa(dp636
g3
F0.642298
sg4
F96.867
sg5
F0.053085
sg6
I1
sg7
F378.79955
sg8
S'3676f106-8469-3853-a196-f33c2d5c6b86'
p637
sg10
S'Lost My House'
p638
sg12
F0.092793
sg13
F0.109807
sg14
F0.569067
sg15
F4.0
sg16
F-6.604
sg17
F0.606316
sg18
F0.473311153183
sa(dp639
g3
F0.598046
sg4
F115.003
sg5
F0.028543
sg6
I1
sg7
F268.11315
sg8
S'61c1ff39-f635-32da-ae6a-f45dd77f182c'
p640
sg10
S'Tomorrow Morning'
p641
sg12
F0.071978
sg13
F0.002608
sg14
F0.618935
sg15
F4.0
sg16
F-5.863
sg17
F0.2862
sg18
F0.247097634462
sa(dp642
g3
F0.824322
sg4
F113.346
sg5
F0.057375
sg6
I1
sg7
F375.3171
sg8
S'3eb8372c-834b-3375-9b86-570625a16b70'
p643
sg10
S'Character in Disguise'
p644
sg12
F0.119086
sg13
F0.017828
sg14
F0.358646
sg15
F4.0
sg16
F-6.094
sg17
F0.176947
sg18
F0.247097634462
sa(dp645
g3
F0.602416
sg4
F110.079
sg5
F0.13652
sg6
I1
sg7
F233.17918
sg8
S'df9fa279-4b7d-33c3-b361-cd054c22698a'
p646
sg10
S'Believe'
p647
sg12
F0.264733
sg13
F0.06932
sg14
F0.687007
sg15
F4.0
sg16
F-6.353
sg17
F0.268956
sg18
F0.275994516708
sa(dp648
g3
F0.505923
sg4
F99.965
sg5
F0.192966
sg6
I1
sg7
F198.79955
sg8
S'c554c719-cad3-32c3-8ac4-7418e5d9ffe6'
p649
sg10
S'Froyo'
p650
sg12
F0.148209
sg13
F0.274326
sg14
F0.857874
sg15
F4.0
sg16
F-15.677
sg17
F0.403792
sg18
F0.386389068806
sa(dp651
g3
F0.073962
sg4
F110.999
sg5
F0.058726
sg6
I1
sg7
F91.31955
sg8
S'4f1507e2-b753-3315-8ed7-4f6accc30ace'
p652
sg10
g369
sg12
F0.070995
sg13
F0.984689
sg14
F0.468001
sg15
F3.0
sg16
F-23.537
sg17
F0.243531
sg18
F0.273430095496
sa(dp653
g3
F0.258478
sg4
F106.958
sg5
F0.039806
sg6
I1
sg7
F355.05288
sg8
S'74f65a6a-4c96-3132-a87b-ad14717fe078'
p654
sg10
S'Low On Rye'
p655
sg12
F0.063066
sg13
F0.008687
sg14
F0.55073
sg15
F4.0
sg16
F-25.016
sg17
F0.071581
sg18
F0.273430095496
sa(dp656
g3
F0.407223
sg4
F113.017
sg5
F0.072577
sg6
I1
sg7
F74.77288
sg8
S'4247bfb9-8db5-3156-914b-077243f4777a'
p657
sg10
g366
sg12
F0.198817
sg13
F0.00152
sg14
F0.714951
sg15
F4.0
sg16
F-16.247
sg17
F0.276962
sg18
F0.273430095496
sa(dp658
g3
F0.646203
sg4
F115.091
sg5
F0.047807
sg6
I1
sg7
F192.98063
sg8
S'179911d9-3f87-30b4-a6e9-0722e9d91f09'
p659
sg10
S'Act 0 - The Premonition (Main Menu)'
p660
sg12
F0.313635
sg13
F0.087419
sg14
F0.240308
sg15
F3.0
sg16
F-9.894
sg17
F0.156782
sg18
F0.462929240542
sa(dp661
g3
F0.14848
sg4
F116.487
sg5
F0.068299
sg6
I1
sg7
F68.25469
sg8
S'24909fdc-1455-3a41-a2c9-fd2b1a01b082'
p662
sg10
S'Act 0 - Initialize'
p663
sg12
F0.072521
sg13
F0.422881
sg14
F0.325044
sg15
F3.0
sg16
F-22.289
sg17
F0.069321
sg18
F0.462929240542
sa(dp664
g3
F0.011978
sg4
F97.939
sg5
F0.033392
sg6
I1
sg7
F128.8839
sg8
S'c001049f-0b64-34b1-b360-37875896914e'
p665
sg10
S'Act 1 - Formless'
p666
sg12
F0.116637
sg13
F0.746378
sg14
F0.18138
sg15
F3.0
sg16
F-18.708
sg17
F0.031294
sg18
F0.462929240542
sa(dp667
g3
F0.413749
sg4
F113.927
sg5
F0.045526
sg6
I1
sg7
F254.68635
sg8
S'aa055e01-9760-3b7a-a6ab-213e85e42e98'
p668
sg10
S'Act 1 - Blindspots'
p669
sg12
F0.11159
sg13
F0.627668
sg14
F0.231185
sg15
F4.0
sg16
F-19.449
sg17
F0.055696
sg18
F0.462929240542
saa(lp670
(dp671
g3
F0.467085
sg4
F169.856
sg5
F0.029088
sg6
I2
sg7
F228.09333
sg8
S'f8e1a827-13a7-3d3d-aada-a149d566a540'
p672
sg10
S'Wanted'
p673
sg12
F0.086179
sg13
F0.266414
sg14
F0.433557
sg15
F4.0
sg16
F-8.028
sg17
F0.289578
sg18
F0.528879735494
sa(dp674
g3
F0.992514
sg4
F184.487
sg5
F0.348382
sg6
I2
sg7
F148.77288
sg8
S'c4e389bd-328f-33c1-b15a-ce47ff149b7a'
p675
sg10
S'Makes No Sense At All'
p676
sg12
F0.345218
sg13
F0.014667
sg14
F0.14642
sg15
F4.0
sg16
F-3.895
sg17
F0.131003
sg18
F0.477314504435
sa(dp677
g3
F0.991287
sg4
F186.134
sg5
F0.263337
sg6
I2
sg7
F193.0068
sg8
S'7ea79dcb-e203-3753-a644-fda330b40fa4'
p678
sg10
S"If I Can't Change Your Mind"
p679
sg12
F0.866208
sg13
F0.000177
sg14
F0.132623
sg15
F4.0
sg16
F-4.535
sg17
F0.268686
sg18
F0.378260564963
sa(dp680
g3
F0.647937
sg4
F170.06
sg5
F0.042408
sg6
I2
sg7
F233.89995
sg8
S'5cb669ca-8e3f-3e45-ae3c-1c0ca895f877'
p681
sg10
S'Level Up - Social Action Song'
p682
sg12
F0.110628
sg13
F0.195267
sg14
F0.512594
sg15
F1.0
sg16
F-8.075
sg17
F0.402763
sg18
F0.471455234415
sa(dp683
g3
F0.458144
sg4
F179.062
sg5
F0.168968
sg6
I2
sg7
F256.83546
sg8
S'49b64cc8-f976-3ff4-a846-e2e32b75cec1'
p684
sg10
S'Liar - Dance / Electronica Song'
p685
sg12
F0.218013
sg13
F0.88014
sg14
F0.266372
sg15
F3.0
sg16
F-10.422
sg17
F0.450179
sg18
F0.429842559251
sa(dp686
g3
F0.137795
sg4
F199.056
sg5
F0.046732
sg6
I2
sg7
F273.53755
sg8
S'5e914409-006f-3792-9f05-db0f6083682e'
p687
sg10
S'Gold - Love Song'
p688
sg12
F0.102166
sg13
F0.947933
sg14
F0.361331
sg15
F4.0
sg16
F-15.258
sg17
F0.280814
sg18
F0.41102531693
sa(dp689
g3
F0.50856
sg4
F183.687
sg5
F0.067717
sg6
I2
sg7
F262.89587
sg8
S'5806ee75-98fd-36d4-9acd-3f20ed710da6'
p690
sg10
S'The Benefits of Coffee - World Traditional Album'
p691
sg12
F0.107638
sg13
F0.846371
sg14
F0.451862
sg15
F3.0
sg16
F-9.627
sg17
F0.957693
sg18
F0.303774310654
sa(dp692
g3
F0.808361
sg4
F174.584
sg5
F0.430095
sg6
I2
sg7
F166.86975
sg8
S'339488d0-c153-3acd-a8f0-398150aeb554'
p693
sg10
S'Illuminati - Rap / Hip-Hop Song'
p694
sg12
F0.169907
sg13
F0.113748
sg14
F0.526489
sg15
F4.0
sg16
F-3.962
sg17
F0.476607
sg18
F0.499532198301
sa(dp695
g3
F0.254349
sg4
F197.061
sg5
F0.08809
sg6
I2
sg7
F109.26975
sg8
S'94f3ee1d-be53-3709-b4ee-a80392c793c4'
p696
sg10
S"Hop up My Ladies - Children's Music Album"
p697
sg12
F0.112809
sg13
F0.882233
sg14
F0.515265
sg15
F4.0
sg16
F-13.532
sg17
F0.88931
sg18
F0.485530902477
sa(dp698
g3
F0.907509
sg4
F161.98
sg5
F0.067308
sg6
I2
sg7
F148.22354
sg8
S'aa199090-5589-38e0-8766-f3e71a11ba2a'
p699
sg10
S'Incidental'
p700
sg12
F0.472298
sg13
F2.1e-05
sg14
F0.225446
sg15
F4.0
sg16
F-3.996
sg17
F0.242289
sg18
F0.493368037261
sa(dp701
g3
F0.62988
sg4
F180.022
sg5
F0.100631
sg6
I2
sg7
F245.29333
sg8
S'a5b1f791-c064-3fed-b4a8-a2aac1ad5865'
p702
sg10
S'Outta Control'
p703
sg12
F0.094756
sg13
F0.053409
sg14
F0.67432
sg15
F4.0
sg16
F-6.915
sg17
F0.665613
sg18
F0.451966312978
sa(dp704
g3
F0.934838
sg4
F166.519
sg5
F0.101636
sg6
I2
sg7
F256.35129
sg8
S'85966ae0-0be4-3501-b966-505b6397538a'
p705
sg10
S'Salted Crypts'
p706
sg12
F0.124772
sg13
F2e-06
sg14
F0.119067
sg15
F4.0
sg16
F-3.882
sg17
F0.134686
sg18
F0.482543662106
sa(dp707
g3
F0.498321
sg4
F171.391
sg5
F0.331284
sg6
I2
sg7
F422.78082
sg8
S'ff821a97-d9d6-3fbf-a8a6-9da19a069eb2'
p708
sg10
S'Destiny'
p709
sg12
F0.065317
sg13
F0.105111
sg14
F0.625656
sg15
F4.0
sg16
F-6.926
sg17
F0.438188
sg18
F0.439177508455
sa(dp710
g3
F0.547328
sg4
F179.823
sg5
F0.418312
sg6
I2
sg7
F327.87955
sg8
S'506ac477-cca7-3c62-84e1-bbf9f8a8ff5e'
p711
sg10
S'Even Greater'
p712
sg12
F0.128086
sg13
F0.299483
sg14
F0.741572
sg15
F4.0
sg16
F-8.768
sg17
F0.832925
sg18
F0.439177508455
sa(dp713
g3
F0.907509
sg4
F161.98
sg5
F0.067308
sg6
I2
sg7
F148.22354
sg8
S'5592eb40-c09d-334c-a888-e06820fe4c2e'
p714
sg10
g700
sg12
F0.472298
sg13
F2.1e-05
sg14
F0.225446
sg15
F4.0
sg16
F-3.996
sg17
F0.242289
sg18
F0.493368037261
sa(dp715
g3
F0.426062
sg4
F177.179
sg5
F0.191555
sg6
I2
sg7
F199.14621
sg8
S'88be37f6-4696-3412-8551-81c604097870'
p716
sg10
S"Blood 'n Guts"
p717
sg12
F0.11045
sg13
F0.654086
sg14
F0.558161
sg15
F4.0
sg16
F-13.593
sg17
F0.604167
sg18
F0.454363175724
sa(dp718
g3
F0.941216
sg4
F192.055
sg5
F0.042728
sg6
I2
sg7
F276.77333
sg8
S'a39a59b1-0866-34bd-9e5b-676ad6659362'
p719
sg10
S'Never Ending Hill'
p720
sg12
F0.329648
sg13
F0.000259
sg14
F0.398205
sg15
F4.0
sg16
F-5.021
sg17
F0.633262
sg18
F0.382461900079
sa(dp721
g3
F0.828804
sg4
F166.85
sg5
F0.040237
sg6
I2
sg7
F491.89288
sg8
S'a2d6d1ee-dbd0-3e30-97ef-e7e177952cf6'
p722
sg10
S'The Linear'
p723
sg12
F0.147927
sg13
F0.424319
sg14
F0.308665
sg15
F4.0
sg16
F-11.303
sg17
F0.589495
sg18
F0.415381464026
sa(dp724
g3
F0.329753
sg4
F159.968
sg5
F0.03839
sg6
I2
sg7
F207.62621
sg8
S'fc037a8f-8128-3bb2-95d1-055b8197e860'
p725
sg10
S'Day'
p726
sg12
F0.121778
sg13
F0.833324
sg14
F0.254012
sg15
F4.0
sg16
F-14.255
sg17
F0.103951
sg18
F0.491559266938
sa(dp727
g3
F0.160476
sg4
F183.031
sg5
F0.049204
sg6
I2
sg7
F162.72898
sg8
S'5a94a44e-7d7f-3ed0-b967-cd9571917f2f'
p728
sg10
S'Give Me Your Love (Live)'
p729
sg12
F0.964875
sg13
F0.931532
sg14
F0.341883
sg15
F4.0
sg16
F-20.269
sg17
F0.184572
sg18
F0.261711676507
sa(dp730
g3
F0.869809
sg4
F165.315
sg5
F0.103505
sg6
I2
sg7
F137.7478
sg8
S'b564ad88-626f-329e-b0e5-9aca67070483'
p731
sg10
S'Free and Clear'
p732
sg12
F0.136443
sg13
F0.167899
sg14
F0.228199
sg15
F4.0
sg16
F-8.325
sg17
F0.361097
sg18
F0.269127343221
sa(dp733
g3
F0.94234
sg4
F174.11
sg5
F0.553082
sg6
I2
sg7
F248.48649
sg8
S'8afbb2a2-068a-3eca-a21f-0aa20967ad66'
p734
sg10
S'Dominate (Instrumental Mix)'
p735
sg12
F0.15746
sg13
F0.000668
sg14
F0.41096
sg15
F4.0
sg16
F-3.888
sg17
F0.455431
sg18
F0.536887447902
sa(dp736
g3
F0.952944
sg4
F167.646
sg5
F0.074287
sg6
I2
sg7
F231.37288
sg8
S'86dd5946-852b-3ccc-995b-a3a76d17dcaf'
p737
sg10
S'Hysterical'
p738
sg12
F0.056911
sg13
F2.7e-05
sg14
F0.215229
sg15
F4.0
sg16
F-3.742
sg17
F0.285298
sg18
F0.418719856012
sa(dp739
g3
F0.903011
sg4
F161.308
sg5
F0.055365
sg6
I2
sg7
F274.46621
sg8
S'4bd1f1d2-1fa8-3f1e-a394-a2289e14c73a'
p740
sg10
S'Upon This Tidal Wave Of Young Blood'
p741
sg12
F0.099138
sg13
F0.000149
sg14
F0.44227
sg15
F4.0
sg16
F-4.862
sg17
F0.715425
sg18
F0.418719856012
sa(dp742
g3
F0.881544
sg4
F169.183
sg5
F0.063429
sg6
I2
sg7
F181.63955
sg8
S'6d450ec4-7832-3ce0-94ee-013a7f462346'
p743
sg10
S'Maniac'
p744
sg12
F0.363397
sg13
F5.9e-05
sg14
F0.321217
sg15
F4.0
sg16
F-3.989
sg17
F0.205642
sg18
F0.418719856012
sa(dp745
g3
F0.884623
sg4
F159.853
sg5
F0.046416
sg6
I2
sg7
F218.34907
sg8
S'030f3f89-bc31-3fbd-b413-943d2505b95b'
p746
sg10
S'Framed / Slanted'
p747
sg12
F0.274171
sg13
F0.001743
sg14
F0.41182
sg15
F4.0
sg16
F-7.393
sg17
F0.534719
sg18
F0.371014985536
sa(dp748
g3
F0.913154
sg4
F182.381
sg5
F0.077721
sg6
I2
sg7
F158.79823
sg8
S'e026d515-57e2-32f1-9086-cee7d3b5c284'
p749
sg10
S'Taking Meds'
p750
sg12
F0.491916
sg13
F0.000209
sg14
F0.28982
sg15
F5.0
sg16
F-7.048
sg17
F0.551438
sg18
F0.347539858327
sa(dp751
g3
F0.76872
sg4
F168.206
sg5
F0.093971
sg6
I2
sg7
F302.85669
sg8
S'28a932c7-d8fe-3c01-ba01-f9bc910b9528'
p752
sg10
S'Signal / Noise'
p753
sg12
F0.30721
sg13
F6.3e-05
sg14
F0.19168
sg15
F3.0
sg16
F-14.413
sg17
F0.197419
sg18
F0.477356819164
sa(dp754
g3
F0.911783
sg4
F176.085
sg5
F0.049731
sg6
I2
sg7
F167.25288
sg8
S'b503df45-f0ac-30aa-ac3a-9f26c21d4e46'
p755
sg10
S'Pack up and Let Go'
p756
sg12
F0.160376
sg13
F9e-06
sg14
F0.395176
sg15
F4.0
sg16
F-4.445
sg17
F0.67322
sg18
F0.445573689595
sa(dp757
g3
F0.747775
sg4
F160.921
sg5
F0.059762
sg6
I2
sg7
F228.87955
sg8
S'c07ee430-0c2e-3498-8801-5bbd2a282cd9'
p758
sg10
S'Glitter'
p759
sg12
F0.250869
sg13
F0.000624
sg14
F0.233352
sg15
F3.0
sg16
F-6.373
sg17
F0.481657
sg18
F0.410896755641
sa(dp760
g3
F0.585425
sg4
F184.037
sg5
F0.045324
sg6
I2
sg7
F285.21288
sg8
S'393f797f-ef49-3409-85fd-e98d1a18b102'
p761
sg10
S'The Architekt'
p762
sg12
F0.110565
sg13
F0.813997
sg14
F0.48153
sg15
F3.0
sg16
F-12.914
sg17
F0.203251
sg18
F0.50639870239
sa(dp763
g3
F0.78413
sg4
F169.382
sg5
F0.034852
sg6
I2
sg7
F202.88063
sg8
S'cc8a384b-a165-3266-98e0-d339061ae824'
p764
sg10
S'From the Front Lines'
p765
sg12
F0.101212
sg13
F0.001588
sg14
F0.263809
sg15
F4.0
sg16
F-11.855
sg17
F0.755953
sg18
F0.250719795666
sa(dp766
g3
F0.747775
sg4
F160.921
sg5
F0.059762
sg6
I2
sg7
F228.87955
sg8
S'7b51d58a-19fd-3243-8d46-972d2ba29375'
p767
sg10
g759
sg12
F0.250869
sg13
F0.000624
sg14
F0.233352
sg15
F3.0
sg16
F-6.373
sg17
F0.481657
sg18
F0.410896755641
sa(dp768
g3
F0.943383
sg4
F175.01
sg5
F0.150737
sg6
I2
sg7
F272.0
sg8
S'219e742e-dd1b-33f5-aa80-9306739753eb'
p769
sg10
S'To the Devil (Beati Mortui Covering Attrition)'
p770
sg12
F0.101515
sg13
F0.005991
sg14
F0.431824
sg15
F4.0
sg16
F-5.991
sg17
F0.320572
sg18
F0.477722829188
sa(dp771
g3
F0.850472
sg4
F188.045
sg5
F0.072123
sg6
I2
sg7
F217.3893
sg8
S'1c7844e7-c234-3d43-af6c-9cd7ab31c43e'
p772
sg10
S'Denial'
p773
sg12
F0.349329
sg13
F0.013455
sg14
F0.386977
sg15
F4.0
sg16
F-7.114
sg17
F0.234812
sg18
F0.477815934222
sa(dp774
g3
F0.926629
sg4
F159.911
sg5
F0.059274
sg6
I2
sg7
F178.16925
sg8
S'facb3fd5-9904-3fc0-9d02-4d6f0ec49905'
p775
sg10
S'Silver Lining'
p776
sg12
F0.21002
sg13
F0.058829
sg14
F0.342658
sg15
F4.0
sg16
F-4.526
sg17
F0.437973
sg18
F0.537162486142
sa(dp777
g3
F0.02746
sg4
F176.953
sg5
F0.064089
sg6
I2
sg7
F299.22621
sg8
S'77f19ce5-6bac-3b8e-aaf1-406de23e60d5'
p778
sg10
S'Do You Hear What I Hear'
p779
sg12
F0.115766
sg13
F0.768826
sg14
F0.458026
sg15
F4.0
sg16
F-23.084
sg17
F0.084312
sg18
F0.433222042245
sa(dp780
g3
F0.811512
sg4
F174.998
sg5
F0.235074
sg6
I2
sg7
F345.86621
sg8
S'e1ac271c-6fbb-357e-a5db-6fe6524f9932'
p781
sg10
S'Storm Warning'
p782
sg12
F0.14248
sg13
F0.064936
sg14
F0.719902
sg15
F4.0
sg16
F-8.527
sg17
F0.672402
sg18
F0.423050041937
sa(dp783
g3
F0.926629
sg4
F159.911
sg5
F0.059274
sg6
I2
sg7
F178.16925
sg8
S'feaeed3e-bb1b-3c73-b472-044dbc821b59'
p784
sg10
g776
sg12
F0.21002
sg13
F0.058829
sg14
F0.342658
sg15
F4.0
sg16
F-4.526
sg17
F0.437973
sg18
F0.537162486142
sa(dp785
g3
F0.586599
sg4
F169.935
sg5
F0.035589
sg6
I2
sg7
F206.51147
sg8
S'6b1e5eb1-d3c7-3494-8a71-e9f94f732d5b'
p786
sg10
S'Draculas Tavern (Remix Arbic Six Song)'
p787
sg12
F0.302727
sg13
F0.000594
sg14
F0.389682
sg15
F4.0
sg16
F-15.53
sg17
F0.505881
sg18
F0.258036867611
sa(dp788
g3
F0.374452
sg4
F178.006
sg5
F0.028733
sg6
I2
sg7
F222.7688
sg8
S'c1bf6f52-97da-3de9-978e-ceab0c8ec160'
p789
sg10
S'Your Apocalypse'
p790
sg12
F0.106783
sg13
F0.876246
sg14
F0.459113
sg15
F4.0
sg16
F-10.842
sg17
F0.129723
sg18
F0.459953872927
sa(dp791
g3
F0.420222
sg4
F197.226
sg5
F0.056398
sg6
I2
sg7
F234.99955
sg8
S'bf931707-2b91-3fea-9724-4c530875bb75'
p792
sg10
S'The Beat (Of Our Own Drum)'
p793
sg12
F0.110845
sg13
F0.068649
sg14
F0.597131
sg15
F4.0
sg16
F-9.421
sg17
F0.544814
sg18
F0.542871697728
sa(dp794
g3
F0.746454
sg4
F160.596
sg5
F0.173353
sg6
I2
sg7
F240.25288
sg8
S'513cf269-d70f-39db-96d0-eeb33a66521a'
p795
sg10
S'Meanwhile...'
p796
sg12
F0.03708
sg13
F0.093081
sg14
F0.588053
sg15
F4.0
sg16
F-9.284
sg17
F0.79914
sg18
F0.486548390104
sa(dp797
g3
F0.727621
sg4
F157.973
sg5
F0.15248
sg6
I2
sg7
F188.92358
sg8
S'4a7cdd77-ab21-3725-b60a-94120d1433fe'
p798
sg10
S"I'm Gone (feat. Jim Wes)"
p799
sg12
F0.337779
sg13
F0.152191
sg14
F0.599447
sg15
F4.0
sg16
F-6.99
sg17
F0.545049
sg18
F0.446822875739
sa(dp800
g3
F0.798543
sg4
F166.128
sg5
F0.046468
sg6
I2
sg7
F197.97288
sg8
S'7813b220-7af8-3c2e-b9aa-8373f19a4a6a'
p801
sg10
S'Already Young'
p802
sg12
F0.14028
sg13
F1.8e-05
sg14
F0.325977
sg15
F4.0
sg16
F-4.084
sg17
F0.281717
sg18
F0.418299168636
sa(dp803
g3
F0.933476
sg4
F173.382
sg5
F0.04975
sg6
I2
sg7
F156.45288
sg8
S'55c595e0-ce6c-3a58-befb-36b8c74ef21d'
p804
sg10
S'Perfect'
p805
sg12
F0.248992
sg13
F4e-05
sg14
F0.307052
sg15
F4.0
sg16
F-6.703
sg17
F0.428135
sg18
F0.487558872394
sa(dp806
g3
F0.860198
sg4
F170.035
sg5
F0.051305
sg6
I2
sg7
F199.90621
sg8
S'f015d77f-43e1-3c40-a0f3-7ea3e0febe79'
p807
sg10
S'Rose Mary Stretch'
p808
sg12
F0.213605
sg13
F0.007002
sg14
F0.554987
sg15
F3.0
sg16
F-5.1
sg17
F0.717108
sg18
F0.529591888426
sa(dp809
g3
F0.022272
sg4
F166.383
sg5
F0.032896
sg6
I2
sg7
F272.59955
sg8
S'e160be12-e1fe-3804-9689-4a36ff5681a0'
p810
sg10
S'Amazing Grace/Silent Night'
p811
sg12
F0.123024
sg13
F0.983095
sg14
F0.265498
sg15
F4.0
sg16
F-21.385
sg17
F0.067347
sg18
F0.491936204326
sa(dp812
g3
F0.797162
sg4
F159.925
sg5
F0.088578
sg6
I2
sg7
F349.69819
sg8
S'329ea40b-ceee-3bd0-b56d-a0f1a5d94995'
p813
sg10
S"I'm Flexible"
p814
sg12
F0.283787
sg13
F0.000289
sg14
F0.506863
sg15
F4.0
sg16
F-7.856
sg17
F0.506188
sg18
F0.505085747993
sa(dp815
g3
F0.723023
sg4
F161.124
sg5
F0.036045
sg6
I2
sg7
F256.82667
sg8
S'fd9b10bc-de79-3a7f-a80c-f5f04c6ff934'
p816
sg10
S'The Long Haul'
p817
sg12
F0.068335
sg13
F0.008894
sg14
F0.449545
sg15
F4.0
sg16
F-8.084
sg17
F0.548256
sg18
F0.450018983089
sa(dp818
g3
F0.554576
sg4
F169.981
sg5
F0.248936
sg6
I2
sg7
F220.77497
sg8
S'88c038a3-c38b-3e2e-9375-7667726bb34a'
p819
sg10
S'Times Have Changed'
p820
sg12
F0.083612
sg13
F0.002304
sg14
F0.797796
sg15
F4.0
sg16
F-7.341
sg17
F0.948321
sg18
F0.334559809193
sa(dp821
g3
F0.833939
sg4
F169.88
sg5
F0.086707
sg6
I2
sg7
F296.08599
sg8
S'fa114fb3-dc93-3874-8d3b-904af5c57aac'
p822
sg10
S'Swet'
p823
sg12
F0.195626
sg13
F0.066556
sg14
F0.649846
sg15
F4.0
sg16
F-5.045
sg17
F0.633679
sg18
F0.334559809193
sa(dp824
g3
F0.891944
sg4
F174.099
sg5
F0.112418
sg6
I2
sg7
F275.21415
sg8
S'bf381593-0b92-31f4-8a73-da2d77dad132'
p825
sg10
S'Greatness'
p826
sg12
F0.079817
sg13
F0.000133
sg14
F0.789928
sg15
F4.0
sg16
F-6.609
sg17
F0.501164
sg18
F0.334559809193
sa(dp827
g3
F0.832597
sg4
F180.005
sg5
F0.274981
sg6
I2
sg7
F217.11782
sg8
S'9930990b-b34a-32c3-af91-209003967563'
p828
sg10
S'Can I Flow?'
p829
sg12
F0.147221
sg13
F0.060725
sg14
F0.696613
sg15
F4.0
sg16
F-4.786
sg17
F0.704557
sg18
F0.334559809193
sa(dp830
g3
F0.393992
sg4
F159.988
sg5
F0.044187
sg6
I2
sg7
F198.07556
sg8
S'd81d60d0-def6-3cc6-bf44-1ea80a34043b'
p831
sg10
S'Warm Mushy Minds'
p832
sg12
F0.201845
sg13
F0.019942
sg14
F0.491327
sg15
F4.0
sg16
F-19.668
sg17
F0.178276
sg18
F0.275994516708
sa(dp833
g3
F0.92692
sg4
F169.93
sg5
F0.091328
sg6
I2
sg7
F243.15955
sg8
S'b46cdd3c-a95b-3e71-9692-7f245e8467ee'
p834
sg10
S'Back To Life'
p835
sg12
F0.485285
sg13
F0.005407
sg14
F0.378072
sg15
F4.0
sg16
F-4.791
sg17
F0.541407
sg18
F0.443568291148
sa(dp836
g3
F0.873222
sg4
F181.08
sg5
F0.050934
sg6
I2
sg7
F210.97288
sg8
S'39d7b02e-bf5b-305c-aec2-524164b0095d'
p837
sg10
S'Reflection'
p838
sg12
F0.14014
sg13
F0.027784
sg14
F0.541584
sg15
F4.0
sg16
F-5.065
sg17
F0.907587
sg18
F0.443568291148
sa(dp839
g3
F0.81525
sg4
F188.512
sg5
F0.07152
sg6
I2
sg7
F163.09288
sg8
S'4306f4b2-ab8c-3857-bb81-f622f8293a3d'
p840
sg10
S'Beach Holiday'
p841
sg12
F0.077742
sg13
F5e-05
sg14
F0.181116
sg15
F4.0
sg16
F-5.282
sg17
F0.566068
sg18
F0.487558872394
sa(dp842
g3
F0.964726
sg4
F172.02
sg5
F0.082709
sg6
I2
sg7
F191.39156
sg8
S'f6a800b1-2217-38b4-bdc3-3d6381d7a22f'
p843
sg10
S'Show Me'
p844
sg12
F0.086177
sg13
F0.025554
sg14
F0.483706
sg15
F4.0
sg16
F-4.271
sg17
F0.906115
sg18
F0.247097634462
sa(dp845
g3
F0.939545
sg4
F172.853
sg5
F0.117006
sg6
I2
sg7
F253.2049
sg8
S'd63cfedb-2b24-323b-aa99-dc18c80106b5'
p846
sg10
S'Ordinary'
p847
sg12
F0.119209
sg13
F0.032334
sg14
F0.373836
sg15
F4.0
sg16
F-4.537
sg17
F0.590652
sg18
F0.247097634462
sa(dp848
g3
F0.914771
sg4
F179.805
sg5
F0.081142
sg6
I2
sg7
F128.06621
sg8
S'b4dfc5a3-913f-3d2f-ad8f-2b8ef779db85'
p849
sg10
S'Swearing Is Fun'
p850
sg12
F0.10012
sg13
F0.017797
sg14
F0.391592
sg15
F4.0
sg16
F-6.691
sg17
F0.634968
sg18
F0.247048815693
sa(dp851
g3
F0.976575
sg4
F169.96
sg5
F0.098232
sg6
I2
sg7
F163.82621
sg8
S'dec1c1cd-9499-312f-b222-e14d738b41d2'
p852
sg10
S'Toyland'
p853
sg12
F0.323808
sg13
F0.067128
sg14
F0.375657
sg15
F4.0
sg16
F-5.516
sg17
F0.482995
sg18
F0.247048815693
sa(dp854
g3
F0.916785
sg4
F160.028
sg5
F0.053016
sg6
I2
sg7
F158.70621
sg8
S'693da8e6-e332-300f-af2a-43afc46c5af7'
p855
sg10
S'My Busy Hands'
p856
sg12
F0.36359
sg13
F0.047739
sg14
F0.437884
sg15
F4.0
sg16
F-5.675
sg17
F0.776967
sg18
F0.247048815693
sa(dp857
g3
F0.91178
sg4
F169.934
sg5
F0.11836
sg6
I2
sg7
F205.67955
sg8
S'958efff3-aa31-3e71-8a39-28cd587f6524'
p858
sg10
S'Religion Is Shit'
p859
sg12
F0.08058
sg13
F0.01847
sg14
F0.428992
sg15
F4.0
sg16
F-6.126
sg17
F0.545311
sg18
F0.247048815693
sa(dp860
g3
F0.646472
sg4
F160.005
sg5
F0.040572
sg6
I2
sg7
F268.99955
sg8
S'c815f37f-f541-34de-a6d1-74cdfbe60ad4'
p861
sg10
S'Gingerbread'
p862
sg12
F0.114862
sg13
F0.012922
sg14
F0.521786
sg15
F4.0
sg16
F-8.862
sg17
F0.114064
sg18
F0.386389068806
sa(dp863
g3
F0.696878
sg4
F180.0
sg5
F0.02833
sg6
I2
sg7
F199.33288
sg8
S'6d66c4b7-a4f7-3053-9881-76e61c3b2d19'
p864
sg10
S'Honeycomb'
p865
sg12
F0.168191
sg13
F0.221253
sg14
F0.508053
sg15
F4.0
sg16
F-7.383
sg17
F0.230043
sg18
F0.386389068806
sa(dp866
g3
F0.85678
sg4
F159.996
sg5
F0.045823
sg6
I2
sg7
F222.4995
sg8
S'aefbb9b9-de5c-30a4-bf38-7614faeb6335'
p867
sg10
S'Key Lime Pie'
p868
sg12
F0.136806
sg13
F2.2e-05
sg14
F0.642662
sg15
F4.0
sg16
F-9.807
sg17
F0.928311
sg18
F0.386389068806
sa(dp869
g3
F0.199005
sg4
F170.025
sg5
F0.068377
sg6
I2
sg7
F75.85288
sg8
S'59cb635c-a4b4-3b10-b009-b2f38661f6b4'
p870
sg10
S'"I. Want. You." from Inversion'
p871
sg12
F0.157664
sg13
F0.055656
sg14
F0.542348
sg15
F5.0
sg16
F-27.096
sg17
F0.053265
sg18
F0.273430095496
sa(dp872
g3
F0.432563
sg4
F168.053
sg5
F0.039019
sg6
I2
sg7
F77.34621
sg8
S'c3ba1e16-6879-349f-8229-5149fc13ea0a'
p873
sg10
S'"Last Saturday Night" from Holding On'
p874
sg12
F0.132626
sg13
F0.184398
sg14
F0.493656
sg15
F4.0
sg16
F-22.008
sg17
F0.496654
sg18
F0.273430095496
sa(dp875
g3
F0.364186
sg4
F179.779
sg5
F0.063368
sg6
I2
sg7
F80.55955
sg8
S'05524e6a-3709-3283-9988-f654a5194602'
p876
sg10
S'A Short Portrait of Obsession'
p877
sg12
F0.114764
sg13
F0.011292
sg14
F0.557866
sg15
F4.0
sg16
F-19.864
sg17
F0.077712
sg18
F0.273430095496
sa(dp878
g3
F0.018695
sg4
F179.415
sg5
F0.053815
sg6
I2
sg7
F97.99955
sg8
S'cb3f4307-c45b-3227-88e1-c1bce77feb61'
p879
sg10
S'Act 1 - Synaptic Distortion'
p880
sg12
F0.11242
sg13
F0.921518
sg14
F0.122614
sg15
F1.0
sg16
F-24.617
sg17
F0.157654
sg18
F0.462929240542
sa(dp881
g3
F0.935409
sg4
F180.394
sg5
F0.246168
sg6
I2
sg7
F565.66966
sg8
S'df07c6ea-e6e2-3109-b1e6-2082646e94f5'
p882
sg10
S'Survival Of The Fittest'
p883
sg12
F0.190038
sg13
F0.001484
sg14
F0.238115
sg15
F5.0
sg16
F-9.07
sg17
F0.370309
sg18
F0.252932913188
sa(dp884
g3
F0.725702
sg4
F201.218
sg5
F0.108571
sg6
I2
sg7
F29.8985
sg8
S'877dec6d-3518-36d7-890e-bf2b3d51ad39'
p885
sg10
S"Do You Like Arby's?"
p886
sg12
F0.111472
sg13
F0.106537
sg14
F0.584664
sg15
F4.0
sg16
F-5.249
sg17
F0.969398
sg18
F0.533761445244
saa(lp887
(dp888
g3
F0.675974
sg4
F91.979
sg5
F0.04044
sg6
I3
sg7
F225.42667
sg8
S'dcee26a8-3b8b-3e75-ba0c-a8f1b61f2e8b'
p889
sg10
S'Diamonds'
p890
sg12
F0.132885
sg13
F0.000943
sg14
F0.552666
sg15
F4.0
sg16
F-6.039
sg17
F0.394966
sg18
F0.382782321483
sa(dp891
g3
F0.432139
sg4
F94.605
sg5
F0.03024
sg6
I3
sg7
F153.46667
sg8
S'885e0138-aece-3341-b21f-9d72d2b3d448'
p892
sg10
S'Good Riddance [Time Of Your Life]'
p893
sg12
F0.161075
sg13
F0.183496
sg14
F0.474671
sg15
F4.0
sg16
F-7.844
sg17
F0.652337
sg18
F0.335268357972
sa(dp894
g3
F0.297943
sg4
F91.022
sg5
F0.527148
sg6
I3
sg7
F37.83478
sg8
S'73850446-8813-3ba3-bf61-2c01a14a6fed'
p895
sg10
S"Just Gettin' Started (Commentary)"
p896
sg12
F0.429997
sg13
F0.890567
sg14
F0.654191
sg15
F1.0
sg16
F-21.707
sg17
F0.860078
sg18
F0.479720260052
sa(dp897
g3
F0.612865
sg4
F96.105
sg5
F0.137425
sg6
I3
sg7
F226.09288
sg8
S'3488c64b-d308-300e-a439-2bf229c6e538'
p898
sg10
S'Icky Thump'
p899
sg12
F0.061664
sg13
F0.021154
sg14
F0.421725
sg15
F4.0
sg16
F-7.15
sg17
F0.379324
sg18
F0.39649808702
sa(dp900
g3
F0.801486
sg4
F78.056
sg5
F0.211537
sg6
I3
sg7
F289.42621
sg8
S'7055dc80-0d1b-3444-9952-b033c585c965'
p901
sg10
S'Bitch Bad'
p902
sg12
F0.117005
sg13
F0.014808
sg14
F0.68861
sg15
F4.0
sg16
F-5.505
sg17
F0.220044
sg18
F0.418581939256
sa(dp903
g3
F0.05819
sg4
F84.742
sg5
F0.116
sg6
I3
sg7
F38.03755
sg8
S'073d9807-dd31-3976-a870-cf1155c8b043'
p904
sg10
S'My Sweet Summer (Commentary)'
p905
sg12
F0.247942
sg13
F0.808889
sg14
F0.532337
sg15
F3.0
sg16
F-25.514
sg17
F0.231531
sg18
F0.480232971928
sa(dp906
g3
F0.59431
sg4
F96.232
sg5
F0.054819
sg6
I3
sg7
F851.90485
sg8
S'df082f2e-8cb4-3a75-a1b3-ce473b2473d3'
p907
sg10
S'Jimi Thing'
p908
sg12
F0.49226
sg13
F0.053667
sg14
F0.480039
sg15
F4.0
sg16
F-15.76
sg17
F0.467242
sg18
F0.381223175296
sa(dp909
g3
F0.297548
sg4
F91.006
sg5
F0.049438
sg6
I3
sg7
F451.52608
sg8
S'535fc3b5-577e-35f7-bb18-14b923750d8a'
p910
sg10
S'Archa\xc3\xafko - Jazz With Vocals Album'
p911
sg12
F0.121774
sg13
F0.891406
sg14
F0.504315
sg15
F1.0
sg16
F-13.144
sg17
F0.393609
sg18
F0.308059832776
sa(dp912
g3
F0.267588
sg4
F75.441
sg5
F0.052888
sg6
I3
sg7
F209.6322
sg8
S'c8ea7955-e984-3761-b3a2-b17bdf46817b'
p913
sg10
S'Backslider - Roots / Country EP'
p914
sg12
F0.079599
sg13
F0.74998
sg14
F0.7144
sg15
F4.0
sg16
F-8.643
sg17
F0.520625
sg18
F0.288794606458
sa(dp915
g3
F0.202763
sg4
F85.308
sg5
F0.03079
sg6
I3
sg7
F349.67465
sg8
S'b6b5782c-25ee-3c69-aa1d-ac6ddd99644e'
p916
sg10
S'El Hombre Que Yo Ame (The Man I Love) - Jazz With Vocals Song'
p917
sg12
F0.102569
sg13
F0.783143
sg14
F0.301503
sg15
F3.0
sg16
F-12.222
sg17
F0.18832
sg18
F0.377197739029
sa(dp918
g3
F0.534603
sg4
F81.207
sg5
F0.107646
sg6
I3
sg7
F1074.20689
sg8
S'6eeee237-ef73-3475-880a-392a9ad7b9fc'
p919
sg10
S'Sivad - Tribute Album'
p920
sg12
F0.080997
sg13
F0.099222
sg14
F0.448401
sg15
F4.0
sg16
F-10.038
sg17
F0.75994
sg18
F0.243608528334
sa(dp921
g3
F0.140309
sg4
F83.415
sg5
F0.0323
sg6
I3
sg7
F167.47057
sg8
S'737d6d7c-09de-31b8-a8e7-a00cbeee32bc'
p922
sg10
S'After the Storm - Eclectic Song'
p923
sg12
F0.079365
sg13
F0.913889
sg14
F0.452551
sg15
F4.0
sg16
F-12.968
sg17
F0.137714
sg18
F0.426769848505
sa(dp924
g3
F0.907972
sg4
F95.788
sg5
F0.067495
sg6
I3
sg7
F241.26649
sg8
S'9646c33f-985e-3a81-9deb-4690319dffed'
p925
sg10
S'Hunk - Funk / Fusion / Jam Album'
p926
sg12
F0.110004
sg13
F0.017254
sg14
F0.756042
sg15
F4.0
sg16
F-6.064
sg17
F0.906728
sg18
F0.428165490956
sa(dp927
g3
F0.290651
sg4
F66.403
sg5
F0.101
sg6
I3
sg7
F465.60608
sg8
S'7620e99b-128a-3e75-b2eb-b611c728ed1a'
p928
sg10
S'C\xc3\xb3digos Secretos - Contemporary Classical Album'
p929
sg12
F0.297054
sg13
F0.907753
sg14
F0.236022
sg15
F5.0
sg16
F-20.195
sg17
F0.065556
sg18
F0.252243707039
sa(dp930
g3
F0.859017
sg4
F86.098
sg5
F0.047947
sg6
I3
sg7
F206.44526
sg8
S'1cf33da8-84cf-3639-b539-f1130cdbc6d0'
p931
sg10
S'Marinade - Pop Album'
p932
sg12
F0.092916
sg13
F0.265941
sg14
F0.660757
sg15
F4.0
sg16
F-6.908
sg17
F0.79224
sg18
F0.436224416742
sa(dp933
g3
F0.916904
sg4
F94.011
sg5
F0.066357
sg6
I3
sg7
F191.4771
sg8
S'eb6f6ba3-db43-3550-9159-987c12e60eee'
p934
sg10
S'Friends Like That'
p935
sg12
F0.060781
sg13
F0.075045
sg14
F0.739115
sg15
F4.0
sg16
F-5.113
sg17
F0.673428
sg18
F0.309031421999
sa(dp936
g3
F0.789953
sg4
F90.049
sg5
F0.035427
sg6
I3
sg7
F230.47791
sg8
S'bf15b6c7-9de8-3302-86ef-ac746b6ad2d7'
p937
sg10
S'Turn Out'
p938
sg12
F0.108543
sg13
F0.052505
sg14
F0.660419
sg15
F4.0
sg16
F-5.929
sg17
F0.503032
sg18
F0.309031421999
sa(dp939
g3
F0.484304
sg4
F82.741
sg5
F0.522663
sg6
I3
sg7
F344.62667
sg8
S'b9093ef8-dc7a-3253-9160-1e88719fa6df'
p940
sg10
S'Fue un Placer'
p941
sg12
F0.107491
sg13
F0.710402
sg14
F0.660847
sg15
F4.0
sg16
F-10.982
sg17
F0.737358
sg18
F0.494336489301
sa(dp942
g3
F0.968154
sg4
F93.003
sg5
F0.095734
sg6
I3
sg7
F220.54417
sg8
S'0c1097ac-04b0-34a5-98bf-8d32f29242e9'
p943
sg10
S'Wings of Feather and Wax'
p944
sg12
F0.4172
sg13
F3.6e-05
sg14
F0.284543
sg15
F4.0
sg16
F-3.61
sg17
F0.271349
sg18
F0.497283353589
sa(dp945
g3
F0.980131
sg4
F77.534
sg5
F0.068006
sg6
I3
sg7
F256.05288
sg8
S'637d7064-9d66-3876-ab72-7fb2781b6d4f'
p946
sg10
S'War Eternal'
p947
sg12
F0.158163
sg13
F2.6e-05
sg14
F0.449604
sg15
F4.0
sg16
F-4.417
sg17
F0.28886
sg18
F0.38077133381
sa(dp948
g3
F0.868215
sg4
F81.998
sg5
F0.062184
sg6
I3
sg7
F210.88608
sg8
S'b72ed82e-c339-37c4-8f5a-70fa017a8f30'
p949
sg10
S'Cross To Bier (Cradle Of Bones)'
p950
sg12
F0.517085
sg13
F0.000274
sg14
F0.5105
sg15
F4.0
sg16
F-14.681
sg17
F0.544752
sg18
F0.392872501165
sa(dp951
g3
F0.782148
sg4
F86.514
sg5
F0.068175
sg6
I3
sg7
F137.79546
sg8
S'af40c6d8-c6be-394e-9448-54405ffdc984'
p952
sg10
S'Should Know Better'
p953
sg12
F0.386217
sg13
F0.000692
sg14
F0.414877
sg15
F4.0
sg16
F-13.638
sg17
F0.365228
sg18
F0.415289445036
sa(dp954
g3
F0.335257
sg4
F95.476
sg5
F0.852061
sg6
I3
sg7
F400.02621
sg8
S'59a9ef7d-fbc0-3a57-a8c0-9988bef72bd6'
p955
sg10
S"Headbruisin'"
p956
sg12
F0.261666
sg13
F0.158095
sg14
F0.672288
sg15
F4.0
sg16
F-14.786
sg17
F0.604699
sg18
F0.439177508455
sa(dp957
g3
F0.623371
sg4
F93.813
sg5
F0.419143
sg6
I3
sg7
F144.41288
sg8
S'2e4758f4-2acc-3676-b36a-2ebc2ac4f9ed'
p958
sg10
S'Who Is That?'
p959
sg12
F0.046026
sg13
F0.013114
sg14
F0.858586
sg15
F4.0
sg16
F-12.361
sg17
F0.506969
sg18
F0.439177508455
sa(dp960
g3
F0.560708
sg4
F95.988
sg5
F0.306293
sg6
I3
sg7
F302.19955
sg8
S'fddeae8f-cfcb-3979-8beb-56a5b8048a52'
p961
sg10
S"Sent One's Anthem"
p962
sg12
F0.100928
sg13
F0.687641
sg14
F0.85236
sg15
F4.0
sg16
F-9.562
sg17
F0.904397
sg18
F0.439177508455
sa(dp963
g3
F0.718284
sg4
F87.107
sg5
F0.364325
sg6
I3
sg7
F154.85134
sg8
S'099f17ae-0ef4-35b9-9127-4b998daccf1e'
p964
sg10
S'Cold Day'
p965
sg12
F0.11976
sg13
F0.181141
sg14
F0.699485
sg15
F4.0
sg16
F-4.223
sg17
F0.888557
sg18
F0.418464065701
sa(dp966
g3
F0.515314
sg4
F94.659
sg5
F0.025284
sg6
I3
sg7
F213.22621
sg8
S'b16ff455-be8f-3e75-a41e-15395ebf85e1'
p967
sg10
S'Last Year'
p968
sg12
F0.10218
sg13
F0.004788
sg14
F0.501094
sg15
F3.0
sg16
F-7.374
sg17
F0.616961
sg18
F0.468873175959
sa(dp969
g3
F0.533767
sg4
F82.418
sg5
F0.023963
sg6
I3
sg7
F246.93288
sg8
S'131fdeef-c2f1-30c7-a816-79069193af9a'
p970
sg10
S'Wasted Days And Wasted Nights'
p971
sg12
F0.065932
sg13
F0.20243
sg14
F0.633677
sg15
F4.0
sg16
F-6.097
sg17
F0.401249
sg18
F0.40997164097
sa(dp972
g3
F0.039854
sg4
F62.519
sg5
F0.043539
sg6
I3
sg7
F42.10621
sg8
S'd30909a0-db68-3d4a-a929-35ef9c41e09e'
p973
sg10
S'"Last Dance" from Insignia'
p974
sg12
F0.083872
sg13
F0.912285
sg14
F0.203489
sg15
F4.0
sg16
F-25.057
sg17
F0.098357
sg18
F0.273430095496
sa(dp975
g3
F0.028413
sg4
F73.345
sg5
F0.040851
sg6
I3
sg7
F67.14621
sg8
S'e42fc942-8835-3afb-b03d-75d5ac6644a3'
p976
sg10
S'"Hands In Blood" from Insignia'
p977
sg12
F0.14579
sg13
F0.981716
sg14
F0.084938
sg15
F3.0
sg16
F-28.263
sg17
F0.019146
sg18
F0.273430095496
sa(dp978
g3
F0.017179
sg4
F81.851
sg5
F0.036504
sg6
I3
sg7
F331.81288
sg8
S'b2f22c1c-b12f-3125-a86c-696f12950412'
p979
sg10
S'Ellens Gesang III (Ave Maria)  S558 no.12 (after Schubert\xe2\x80\x99s D839)'
p980
sg12
F0.073908
sg13
F0.992143
sg14
F0.198088
sg15
F3.0
sg16
F-29.981
sg17
F0.038902
sg18
F0.559777263004
sa(dp981
g3
F0.647525
sg4
F95.995
sg5
F0.30353
sg6
I3
sg7
F210.03955
sg8
S'378da4e3-635c-337a-83ce-b0a9a5f3a1f5'
p982
sg10
S'Anti Square'
p983
sg12
F0.137166
sg13
F0.086541
sg14
F0.918851
sg15
F4.0
sg16
F-7.502
sg17
F0.434724
sg18
F0.394952520631
sa(dp984
g3
F0.614492
sg4
F92.024
sg5
F0.029353
sg6
I3
sg7
F216.95955
sg8
S'549acc18-f405-3b46-bf24-13a227bb71bc'
p985
sg10
S'Come On Get Higher'
p986
sg12
F0.092467
sg13
F0.240732
sg14
F0.678666
sg15
F4.0
sg16
F-5.699
sg17
F0.611898
sg18
F0.499727972349
sa(dp987
g3
F0.858754
sg4
F76.02
sg5
F0.061065
sg6
I3
sg7
F181.89288
sg8
S'7c55df05-3cf5-3269-a6c4-9d1004b4a2e5'
p988
sg10
S'To The Beat Of Our Noisy Hearts'
p989
sg12
F0.150731
sg13
F0.000719
sg14
F0.588833
sg15
F4.0
sg16
F-4.465
sg17
F0.659838
sg18
F0.499727972349
sa(dp990
g3
F0.465141
sg4
F85.994
sg5
F0.024424
sg6
I3
sg7
F231.59955
sg8
S'e5cafe5e-d38f-393b-9e55-d772e1d25680'
p991
sg10
S'Still'
p992
sg12
F0.126078
sg13
F0.026345
sg14
F0.679692
sg15
F4.0
sg16
F-6.545
sg17
F0.394214
sg18
F0.499727972349
sa(dp993
g3
F0.361185
sg4
F81.89
sg5
F0.026112
sg6
I3
sg7
F231.71955
sg8
S'1f413f49-a91b-370a-b4e6-9d48134a422b'
p994
sg10
S'Two Pillow Sleeper'
p995
sg12
F0.290802
sg13
F0.603588
sg14
F0.42482
sg15
F3.0
sg16
F-9.283
sg17
F0.433368
sg18
F0.525710177304
sa(dp996
g3
F0.443327
sg4
F92.258
sg5
F0.024767
sg6
I3
sg7
F183.2795
sg8
S'461d1d96-7c26-3592-8afa-610742549e7e'
p997
sg10
S'Ways'
p998
sg12
F0.108683
sg13
F0.454248
sg14
F0.717906
sg15
F4.0
sg16
F-8.245
sg17
F0.52181
sg18
F0.64037206414
sa(dp999
g3
F0.62258
sg4
F90.016
sg5
F0.029875
sg6
I3
sg7
F327.00082
sg8
S'98f8049e-b6e7-3715-a419-02811231bf93'
p1000
sg10
S'\xd0\x91\xd0\xb5\xd0\xb7\xd0\xb2\xd0\xbe\xd0\xb7\xd0\xb4\xd1\x83\xd1\x88\xd0\xbd\xd0\xb0\xd1\x8f \xd1\x82\xd1\x80\xd0\xb5\xd0\xb2\xd0\xbe\xd0\xb3\xd0\xb0'
p1001
sg12
F0.127639
sg13
F0.53567
sg14
F0.525848
sg15
F4.0
sg16
F-4.931
sg17
F0.358499
sg18
F0.571071436124
sa(dp1002
g3
F0.616872
sg4
F74.029
sg5
F0.064726
sg6
I3
sg7
F273.37601
sg8
S'd3bdcf44-ea5d-33b7-be84-de42ecd8e60d'
p1003
sg10
S'Sonsick'
p1004
sg12
F0.075545
sg13
F0.017306
sg14
F0.462577
sg15
F4.0
sg16
F-8.593
sg17
F0.527527
sg18
F0.50060709663
sa(dp1005
g3
F0.715897
sg4
F90.023
sg5
F0.040442
sg6
I3
sg7
F455.61333
sg8
S'99b009eb-3da9-3272-88d6-12cd7e93704d'
p1006
sg10
S'Turn and Dub'
p1007
sg12
F0.090198
sg13
F0.025117
sg14
F0.712105
sg15
F4.0
sg16
F-6.125
sg17
F0.533935
sg18
F0.415381464026
sa(dp1008
g3
F0.260017
sg4
F88.036
sg5
F0.057939
sg6
I3
sg7
F225.17506
sg8
S'f77b2a20-fddb-36b5-aa09-142cbf5390b1'
p1009
sg10
S'Deeper'
p1010
sg12
F0.089518
sg13
F0.106969
sg14
F0.773756
sg15
F4.0
sg16
F-18.455
sg17
F0.769306
sg18
F0.415381464026
sa(dp1011
g3
F0.616872
sg4
F74.029
sg5
F0.064726
sg6
I3
sg7
F273.37601
sg8
S'69d63818-aeac-3b36-8732-d9cc4a7fb921'
p1012
sg10
g1004
sg12
F0.075545
sg13
F0.017306
sg14
F0.462577
sg15
F4.0
sg16
F-8.593
sg17
F0.527527
sg18
F0.50060709663
sa(dp1013
g3
F0.355198
sg4
F88.255
sg5
F0.081615
sg6
I3
sg7
F528.50893
sg8
S'6700324e-35c4-3d00-8356-7a59bc149af8'
p1014
sg10
S'Hangover'
p1015
sg12
F0.279192
sg13
F0.747004
sg14
F0.512707
sg15
F4.0
sg16
F-16.325
sg17
F0.379441
sg18
F0.415381464026
sa(dp1016
g3
F0.272611
sg4
F90.98
sg5
F0.042545
sg6
I3
sg7
F641.56689
sg8
S'0da43a36-f019-3fbc-bde9-50ac1fd54808'
p1017
sg10
S'Turn & Dub'
p1018
sg12
F0.183813
sg13
F0.451601
sg14
F0.463462
sg15
F4.0
sg16
F-21.349
sg17
F0.35678
sg18
F0.415381464026
sa(dp1019
g3
F0.419735
sg4
F76.738
sg5
F0.033052
sg6
I3
sg7
F598.04689
sg8
S'895b8022-36dc-3731-b695-f01af7f175cf'
p1020
sg10
S"Can't You Hear Me Knocking"
p1021
sg12
F0.830528
sg13
F0.600867
sg14
F0.502976
sg15
F4.0
sg16
F-18.35
sg17
F0.764377
sg18
F0.415381464026
sa(dp1022
g3
F0.504275
sg4
F96.214
sg5
F0.032426
sg6
I3
sg7
F316.11601
sg8
S'2e1cd307-afdf-347d-9061-91709d4b7776'
p1023
sg10
S"Alex's House"
p1024
sg12
F0.135682
sg13
F0.451504
sg14
F0.595478
sg15
F4.0
sg16
F-15.653
sg17
F0.328381
sg18
F0.415381464026
sa(dp1025
g3
F0.69156
sg4
F83.935
sg5
F0.255907
sg6
I3
sg7
F264.09556
sg8
S'41b008bd-3a3e-3621-a56e-a2326e47b315'
p1026
sg10
S'Straight To The Bank'
p1027
sg12
F0.28978
sg13
F0.293137
sg14
F0.741424
sg15
F4.0
sg16
F-8.591
sg17
F0.23216
sg18
F0.252968330726
sa(dp1028
g3
F0.285891
sg4
F85.915
sg5
F0.146776
sg6
I3
sg7
F205.05288
sg8
S'de13eb15-96b2-3685-ab57-4f8a3ca1d024'
p1029
sg10
S'Jeans'
p1030
sg12
F0.045516
sg13
F0.58492
sg14
F0.598226
sg15
F4.0
sg16
F-10.48
sg17
F0.836654
sg18
F0.491559266938
sa(dp1031
g3
F0.601133
sg4
F89.864
sg5
F0.044683
sg6
I3
sg7
F320.79955
sg8
S'f402fc85-ec38-3dde-83af-45b771bb31bb'
p1032
sg10
S'All Stars'
p1033
sg12
F0.350251
sg13
F0.01265
sg14
F0.300565
sg15
F4.0
sg16
F-12.188
sg17
F0.379127
sg18
F0.259683304522
sa(dp1034
g3
F0.412081
sg4
F90.021
sg5
F0.033248
sg6
I3
sg7
F271.99955
sg8
S'b637f25d-168d-345c-ae87-907a1fa31848'
p1035
sg10
S'Not For Sale'
p1036
sg12
F0.107502
sg13
F0.000214
sg14
F0.545928
sg15
F4.0
sg16
F-14.907
sg17
F0.658094
sg18
F0.259683304522
sa(dp1037
g3
F0.514742
sg4
F94.958
sg5
F0.028062
sg6
I3
sg7
F207.09955
sg8
S'8913bf49-5575-3d30-8488-1ee3359990d1'
p1038
sg10
S'Heartbroken'
p1039
sg12
F0.060514
sg13
F0.075533
sg14
F0.635735
sg15
F4.0
sg16
F-11.216
sg17
F0.384219
sg18
F0.259683304522
sa(dp1040
g3
F0.421439
sg4
F87.029
sg5
F0.026144
sg6
I3
sg7
F212.19955
sg8
S'c2d5a4db-5e10-3baf-a355-946e96c8142d'
p1041
sg10
S'Careless Love'
p1042
sg12
F0.04213
sg13
F0.114678
sg14
F0.571095
sg15
F4.0
sg16
F-12.277
sg17
F0.381393
sg18
F0.259683304522
sa(dp1043
g3
F0.474616
sg4
F95.913
sg5
F0.031629
sg6
I3
sg7
F133.51955
sg8
S'817323eb-50ac-303e-93d9-52420a9b2e65'
p1044
sg10
g732
sg12
F0.369566
sg13
F0.05193
sg14
F0.385358
sg15
F4.0
sg16
F-14.725
sg17
F0.305637
sg18
F0.261711676507
sa(dp1045
g3
F0.314594
sg4
F94.005
sg5
F0.027323
sg6
I3
sg7
F289.18966
sg8
S'95d1fda8-4b5d-3bbd-8870-078723961e87'
p1046
sg10
g527
sg12
F0.077021
sg13
F0.127873
sg14
F0.703228
sg15
F4.0
sg16
F-15.145
sg17
F0.380776
sg18
F0.261711676507
sa(dp1047
g3
F0.143808
sg4
F90.091
sg5
F0.051942
sg6
I3
sg7
F234.00259
sg8
S'536a310c-dac2-3a5b-8199-3faaa53356c1'
p1048
sg10
S'Giving Up (Live)'
p1049
sg12
F0.369975
sg13
F0.940496
sg14
F0.438949
sg15
F4.0
sg16
F-17.902
sg17
F0.211327
sg18
F0.261711676507
sa(dp1050
g3
F0.096786
sg4
F81.016
sg5
F0.032607
sg6
I3
sg7
F255.99955
sg8
S'6c1136c6-087e-34d9-b46e-e974cecc1e8f'
p1051
sg10
S"Jaco's Serenade"
p1052
sg12
F0.239625
sg13
F0.844797
sg14
F0.239031
sg15
F4.0
sg16
F-21.513
sg17
F0.130409
sg18
F0.269127343221
sa(dp1053
g3
F0.590055
sg4
F86.042
sg5
F0.029587
sg6
I3
sg7
F224.04027
sg8
S'9dcc9b10-1f9a-3ec7-8881-747fea019678'
p1054
sg10
S'Gold'
p1055
sg12
F0.121055
sg13
F0.111321
sg14
F0.484962
sg15
F4.0
sg16
F-9.021
sg17
F0.439051
sg18
F0.52529093909
sa(dp1056
g3
F0.824839
sg4
F83.059
sg5
F0.033386
sg6
I3
sg7
F187.06671
sg8
S'b50d440a-62b5-3b23-abee-cf675ebe7469'
p1057
sg10
S'Leaga-Ma la ochi'
p1058
sg12
F0.061049
sg13
F0.084896
sg14
F0.654004
sg15
F4.0
sg16
F-5.631
sg17
F0.946057
sg18
F0.508299106973
sa(dp1059
g3
F0.455485
sg4
F94.97
sg5
F0.028943
sg6
I3
sg7
F263.26159
sg8
S'9128dd75-9e49-3285-a5a3-7a1d6d368b43'
p1060
sg10
S'Lovecrimes'
p1061
sg12
F0.375161
sg13
F0.502712
sg14
F0.448466
sg15
F4.0
sg16
F-11.306
sg17
F0.068237
sg18
F0.395206280428
sa(dp1062
g3
F0.900815
sg4
F95.101
sg5
F0.037579
sg6
I3
sg7
F213.89288
sg8
S'3c110fbe-7612-3d33-806d-6a2287206e78'
p1063
sg10
S'Brooklyn'
p1064
sg12
F0.102456
sg13
F0.010963
sg14
F0.422643
sg15
F4.0
sg16
F-5.835
sg17
F0.701908
sg18
F0.477268557358
sa(dp1065
g3
F0.549529
sg4
F88.551
sg5
F0.040895
sg6
I3
sg7
F193.43628
sg8
S'132027c5-a9f4-32e5-b801-433901a8a4b2'
p1066
sg10
S'Pretty Green'
p1067
sg12
F0.181269
sg13
F0.074155
sg14
F0.57014
sg15
F4.0
sg16
F-16.451
sg17
F0.427406
sg18
F0.468001175241
sa(dp1068
g3
F0.208904
sg4
F82.709
sg5
F0.037317
sg6
I3
sg7
F202.42726
sg8
S'1cf4c851-b7e5-3687-a3f3-29e081e75395'
p1069
sg10
S'Blood Drinkers'
p1070
sg12
F0.213055
sg13
F0.245326
sg14
F0.502858
sg15
F4.0
sg16
F-13.449
sg17
F0.143724
sg18
F0.349826682618
sa(dp1071
g3
F0.777194
sg4
F77.593
sg5
F0.097669
sg6
I3
sg7
F245.77429
sg8
S'8a3cd20d-9700-394b-9d3c-e599d88ad968'
p1072
sg10
S'Life'
p1073
sg12
F0.106684
sg13
F0.001128
sg14
F0.156996
sg15
F4.0
sg16
F-7.261
sg17
F0.041745
sg18
F0.292518234123
sa(dp1074
g3
F0.60076
sg4
F89.224
sg5
F0.044496
sg6
I3
sg7
F226.2722
sg8
S'8f074b34-c314-3281-93ee-9f7579e4b2fb'
p1075
sg10
S'Forty Winks'
p1076
sg12
F0.359435
sg13
F0.598343
sg14
F0.563303
sg15
F3.0
sg16
F-10.913
sg17
F0.381859
sg18
F0.482105444399
sa(dp1077
g3
F0.549529
sg4
F88.551
sg5
F0.040895
sg6
I3
sg7
F193.43628
sg8
S'961cdbb3-9917-3843-8d51-b3710a770d6f'
p1078
sg10
g1067
sg12
F0.181269
sg13
F0.074155
sg14
F0.57014
sg15
F4.0
sg16
F-16.451
sg17
F0.427406
sg18
F0.468001175241
sa(dp1079
g3
F0.450006
sg4
F90.0
sg5
F0.087434
sg6
I3
sg7
F197.46245
sg8
S'65677dd7-0a3d-357d-b133-7c76ba4c36c3'
p1080
sg10
S'Bus Passes and Happy Meals'
p1081
sg12
F0.183298
sg13
F0.076198
sg14
F0.753783
sg15
F4.0
sg16
F-7.396
sg17
F0.038291
sg18
F0.497604815678
sa(dp1082
g3
F0.809652
sg4
F93.456
sg5
F0.027618
sg6
I3
sg7
F171.11574
sg8
S'fe648568-ed70-35b5-855a-53a425372a1d'
p1083
sg10
S"She's Crying At My Funeral"
p1084
sg12
F0.081129
sg13
F0.009917
sg14
F0.494333
sg15
F4.0
sg16
F-10.699
sg17
F0.798197
sg18
F0.250719795666
sa(dp1085
g3
F0.809652
sg4
F93.456
sg5
F0.027618
sg6
I3
sg7
F171.11574
sg8
S'7ac33e0c-7cea-3aa0-8084-66980cff9753'
p1086
sg10
g1084
sg12
F0.081129
sg13
F0.009917
sg14
F0.494333
sg15
F4.0
sg16
F-10.699
sg17
F0.798197
sg18
F0.250719795666
sa(dp1087
g3
F0.023053
sg4
F71.415
sg5
F0.045172
sg6
I3
sg7
F248.30621
sg8
S'76597302-2139-3948-b988-e6a8b1b94f31'
p1088
sg10
S'Mimema'
p1089
sg12
F0.11181
sg13
F0.600856
sg14
F0.176726
sg15
F4.0
sg16
F-28.545
sg17
F0.034256
sg18
F0.50639870239
sa(dp1090
g3
F0.366807
sg4
F93.584
sg5
F0.404477
sg6
I3
sg7
F23.97288
sg8
S'5ac48cff-bdfa-3eba-81ae-987f19f26d59'
p1091
sg10
S'I am trying to do that.'
p1092
sg12
F0.229263
sg13
F0.214992
sg14
F0.657751
sg15
F4.0
sg16
F-11.952
sg17
F0.614973
sg18
F0.439177508455
sa(dp1093
g3
F0.26371
sg4
F81.113
sg5
F0.03504
sg6
I3
sg7
F208.18621
sg8
S'9ea0da72-a943-306b-a835-6cb80ffb6658'
p1094
sg10
S'I Am Not Waiting Anymore'
p1095
sg12
F0.122065
sg13
F0.769379
sg14
F0.446855
sg15
F3.0
sg16
F-9.256
sg17
F0.157976
sg18
F0.509141139785
sa(dp1096
g3
F0.373573
sg4
F94.976
sg5
F0.029749
sg6
I3
sg7
F303.41288
sg8
S'daf603c6-13f0-3f45-b962-ca6baa0ddfc3'
p1097
sg10
S'Fergus Falls'
p1098
sg12
F0.092365
sg13
F0.517596
sg14
F0.424503
sg15
F4.0
sg16
F-11.259
sg17
F0.092823
sg18
F0.509141139785
sa(dp1099
g3
F0.46621
sg4
F95.414
sg5
F0.064641
sg6
I3
sg7
F276.37506
sg8
S'ab43f24f-a343-3628-8378-1c80cc44acdc'
p1100
sg10
S"03 - The Bumpin' Contraption (The Recalibration)"
p1101
sg12
F0.136193
sg13
F0.152998
sg14
F0.828145
sg15
F4.0
sg16
F-9.161
sg17
F0.401077
sg18
F0.423050041937
sa(dp1102
g3
F0.797145
sg4
F85.844
sg5
F0.30875
sg6
I3
sg7
F285.37288
sg8
S'40026e6f-c916-3998-9568-e279403b857b'
p1103
sg10
S'Straight To The Top'
p1104
sg12
F0.10889
sg13
F0.166537
sg14
F0.359347
sg15
F4.0
sg16
F-5.875
sg17
F0.470509
sg18
F0.164109556313
sa(dp1105
g3
F0.436575
sg4
F96.259
sg5
F0.125087
sg6
I3
sg7
F264.97288
sg8
S'2d75df45-40cb-350d-a890-22d3a0db6384'
p1106
sg10
S'Do Ya'
p1107
sg12
F0.031702
sg13
F0.180897
sg14
F0.862764
sg15
F3.0
sg16
F-6.216
sg17
F0.890534
sg18
F0.486548390104
sa(dp1108
g3
F0.72323
sg4
F81.847
sg5
F0.13143
sg6
I3
sg7
F330.78844
sg8
S'd1fe0ef6-fbec-33c8-9e8b-72e0787bcf01'
p1109
sg10
S'Frack Track (feat. Nice Nate)'
p1110
sg12
F0.265032
sg13
F0.079133
sg14
F0.354819
sg15
F4.0
sg16
F-4.394
sg17
F0.536707
sg18
F0.466890261436
sa(dp1111
g3
F0.872723
sg4
F87.537
sg5
F0.238931
sg6
I3
sg7
F214.1829
sg8
S'e2f6b5fd-a8d5-34fc-8115-36320d86dfb4'
p1112
sg10
S'Anyway (feat. J. Glaze)'
p1113
sg12
F0.082214
sg13
F0.069653
sg14
F0.412251
sg15
F4.0
sg16
F-5.069
sg17
F0.685455
sg18
F0.466890261436
sa(dp1114
g3
F0.899889
sg4
F89.684
sg5
F0.062503
sg6
I3
sg7
F205.33288
sg8
S'fc7371ff-43ca-3598-8c4f-67d8acd05923'
p1115
sg10
S'Today (feat. Headphone Activist)'
p1116
sg12
F0.151912
sg13
F0.000332
sg14
F0.40005
sg15
F4.0
sg16
F-2.111
sg17
F0.302611
sg18
F0.466890261436
sa(dp1117
g3
F0.673266
sg4
F90.197
sg5
F0.128809
sg6
I3
sg7
F221.33288
sg8
S'6a02f7a0-dda6-33d7-a200-e3d39aa6e3af'
p1118
sg10
S'The 5th Element (feat. Golden Day)'
p1119
sg12
F0.056777
sg13
F0.278849
sg14
F0.583028
sg15
F4.0
sg16
F-4.06
sg17
F0.554298
sg18
F0.466890261436
sa(dp1120
g3
F0.962408
sg4
F80.0
sg5
F0.331392
sg6
I3
sg7
F283.49955
sg8
S'02fc44b1-d4d2-3a79-be0e-4e556939dc19'
p1121
sg10
S'I Know You (feat. Charlton Samuels)'
p1122
sg12
F0.394031
sg13
F0.05584
sg14
F0.28228
sg15
F4.0
sg16
F-2.324
sg17
F0.577203
sg18
F0.466890261436
sa(dp1123
g3
F0.725615
sg4
F89.921
sg5
F0.29219
sg6
I3
sg7
F258.66621
sg8
S'25b7caef-d5a9-38d2-a587-9f3e6265d5e7'
p1124
sg10
S'Gotta Love Me (feat. Golden Day & M. Tomlin)'
p1125
sg12
F0.117211
sg13
F0.586624
sg14
F0.364998
sg15
F4.0
sg16
F-6.698
sg17
F0.448094
sg18
F0.466890261436
sa(dp1126
g3
F0.826882
sg4
F94.97
sg5
F0.047333
sg6
I3
sg7
F233.61288
sg8
S'de1e8d13-3cbf-39b9-92f4-56f58711d780'
p1127
sg10
S'Family Planning'
p1128
sg12
F0.114648
sg13
F0.124715
sg14
F0.405738
sg15
F3.0
sg16
F-5.493
sg17
F0.337131
sg18
F0.529591888426
sa(dp1129
g3
F0.581168
sg4
F87.976
sg5
F0.025015
sg6
I3
sg7
F264.15955
sg8
S'b56ea300-6d25-36c8-869b-4ffcc1383151'
p1130
sg10
S'Allison'
p1131
sg12
F0.071992
sg13
F0.112266
sg14
F0.614593
sg15
F4.0
sg16
F-7.49
sg17
F0.33376
sg18
F0.529591888426
sa(dp1132
g3
F0.697764
sg4
F90.037
sg5
F0.025721
sg6
I3
sg7
F269.39955
sg8
S'cb3d4bce-ca0c-3234-87ef-15b0e2fea329'
p1133
sg10
S'The Annexation Of Puerto Rico'
p1134
sg12
F0.083881
sg13
F0.409346
sg14
F0.534913
sg15
F4.0
sg16
F-6.725
sg17
F0.266517
sg18
F0.529591888426
sa(dp1135
g3
F0.538261
sg4
F92.121
sg5
F0.278552
sg6
I3
sg7
F204.30431
sg8
S'b61294e1-6829-3f5e-bf23-bedd45f0f89b'
p1136
sg10
S'Olive Garden'
p1137
sg12
F0.119293
sg13
F0.234366
sg14
F0.671557
sg15
F4.0
sg16
F-10.518
sg17
F0.545002
sg18
F0.245935556317
sa(dp1138
g3
F0.486577
sg4
F96.354
sg5
F0.234839
sg6
I3
sg7
F249.71819
sg8
S'b5582503-89f4-3e89-b9a7-42201c4d9870'
p1139
sg10
S'Imagine'
p1140
sg12
F0.117669
sg13
F0.127341
sg14
F0.789486
sg15
F4.0
sg16
F-10.247
sg17
F0.692158
sg18
F0.245935556317
sa(dp1141
g3
F0.431946
sg4
F87.821
sg5
F0.185972
sg6
I3
sg7
F190.77288
sg8
S'06c2af34-72e0-34bc-9967-0b02019745dc'
p1142
sg10
S'Heavenly Father'
p1143
sg12
F0.127567
sg13
F0.572333
sg14
F0.706462
sg15
F4.0
sg16
F-9.291
sg17
F0.783823
sg18
F0.245935556317
sa(dp1144
g3
F0.361399
sg4
F75.091
sg5
F0.148545
sg6
I3
sg7
F248.00717
sg8
S'6826aab3-e154-3952-84cb-13f562573284'
p1145
sg10
S'I Will'
p1146
sg12
F0.129138
sg13
F0.540319
sg14
F0.838701
sg15
F4.0
sg16
F-11.587
sg17
F0.247653
sg18
F0.245935556317
sa(dp1147
g3
F0.27134
sg4
F79.986
sg5
F0.028856
sg6
I3
sg7
F284.89098
sg8
S'63e716a3-15ea-307f-9050-9c655039ea71'
p1148
sg10
S'Uniqueness'
p1149
sg12
F0.108596
sg13
F0.931002
sg14
F0.371784
sg15
F3.0
sg16
F-11.96
sg17
F0.084018
sg18
F0.457844430734
sa(dp1150
g3
F0.722093
sg4
F86.667
sg5
F0.229668
sg6
I3
sg7
F265.81007
sg8
S'10069e19-de55-315b-b4d8-4e5aea553739'
p1151
sg10
S"Dat's Dead"
p1152
sg12
F0.049779
sg13
F0.004923
sg14
F0.600811
sg15
F5.0
sg16
F-6.212
sg17
F0.946751
sg18
F0.334559809193
sa(dp1153
g3
F0.821432
sg4
F72.959
sg5
F0.353064
sg6
I3
sg7
F197.31701
sg8
S'05cd5dde-6ef2-3693-997f-9cc0dad9ca2a'
p1154
sg10
S'Nightmares of a Lonely Heart'
p1155
sg12
F0.078044
sg13
F0.047104
sg14
F0.732282
sg15
F4.0
sg16
F-7.063
sg17
F0.409954
sg18
F0.334559809193
sa(dp1156
g3
F0.524264
sg4
F92.989
sg5
F0.268882
sg6
I3
sg7
F248.75211
sg8
S'f2e7dfa0-49eb-392b-ae73-788a3b341af5'
p1157
sg10
S"It's a Dc Thing"
p1158
sg12
F0.185987
sg13
F0.000139
sg14
F0.818198
sg15
F4.0
sg16
F-6.924
sg17
F0.403993
sg18
F0.334559809193
sa(dp1159
g3
F0.69822
sg4
F89.997
sg5
F0.27371
sg6
I3
sg7
F223.52
sg8
S'811ffcb9-f04f-3142-9c47-9d75eb5391b4'
p1160
sg10
S'Flow Godly'
p1161
sg12
F0.047341
sg13
F0.002308
sg14
F0.85657
sg15
F4.0
sg16
F-8.786
sg17
F0.867725
sg18
F0.334559809193
sa(dp1162
g3
F0.591995
sg4
F92.038
sg5
F0.274198
sg6
I3
sg7
F171.97823
sg8
S'92b5c171-7f6a-3446-9f51-4449653a51d7'
p1163
sg10
S'Distinction (Intro)'
p1164
sg12
F0.157475
sg13
F0.032369
sg14
F0.822595
sg15
F4.0
sg16
F-6.2
sg17
F0.703396
sg18
F0.334559809193
sa(dp1165
g3
F0.761056
sg4
F89.989
sg5
F0.036796
sg6
I3
sg7
F215.13252
sg8
S'fb9669e3-e0a2-39e0-90df-f9852399ec06'
p1166
sg10
S'Mindstate of a Murderer'
p1167
sg12
F0.154826
sg13
F0.001577
sg14
F0.780837
sg15
F4.0
sg16
F-5.485
sg17
F0.526575
sg18
F0.334559809193
sa(dp1168
g3
F0.880111
sg4
F93.034
sg5
F0.12226
sg6
I3
sg7
F144.70639
sg8
S'17b23c5a-56c4-3257-8639-6ea0ac1b9030'
p1169
sg10
S'Tha Capture'
p1170
sg12
F0.33097
sg13
F6.3e-05
sg14
F0.774046
sg15
F4.0
sg16
F-3.897
sg17
F0.384504
sg18
F0.334559809193
sa(dp1171
g3
F0.385495
sg4
F74.914
sg5
F0.034653
sg6
I3
sg7
F313.53156
sg8
S'323a0677-d54f-34c4-b6e4-a68f30dfff7e'
p1172
sg10
S'Sun Through Cloud Through Rain'
p1173
sg12
F0.057162
sg13
F0.364223
sg14
F0.315789
sg15
F5.0
sg16
F-13.866
sg17
F0.126843
sg18
F0.275994516708
sa(dp1174
g3
F0.606589
sg4
F87.199
sg5
F0.045643
sg6
I3
sg7
F269.03909
sg8
S'bdc606e6-2d8e-325e-b0ba-b4b06d83e848'
p1175
sg10
S'Slow the Time'
p1176
sg12
F0.200363
sg13
F0.001195
sg14
F0.458679
sg15
F4.0
sg16
F-6.949
sg17
F0.428253
sg18
F0.498289900117
sa(dp1177
g3
F0.911985
sg4
F77.555
sg5
F0.071185
sg6
I3
sg7
F233.45297
sg8
S'b8b8dab6-4a31-33ff-bd19-d6129e5bae7b'
p1178
sg10
S'The Best'
p1179
sg12
F0.162376
sg13
F0.000183
sg14
F0.269094
sg15
F4.0
sg16
F-5.364
sg17
F0.047969
sg18
F0.518732266431
sa(dp1180
g3
F0.2653
sg4
F77.987
sg5
F0.031234
sg6
I3
sg7
F248.21751
sg8
S'e0064cff-1873-3ab7-b27b-197b6ccc72ff'
p1181
sg10
S'Song I Will Always Sing'
p1182
sg12
F0.113055
sg13
F0.914477
sg14
F0.554319
sg15
F4.0
sg16
F-11.218
sg17
F0.183729
sg18
F0.247097634462
sa(dp1183
g3
F0.919713
sg4
F90.025
sg5
F0.040904
sg6
I3
sg7
F117.57288
sg8
S'054e4957-b1cf-357d-b839-8bb7ea5357d0'
p1184
sg10
S'Drinking In A Homobar'
p1185
sg12
F0.831614
sg13
F0.020426
sg14
F0.399592
sg15
F4.0
sg16
F-5.466
sg17
F0.527805
sg18
F0.247048815693
sa(dp1186
g3
F0.927771
sg4
F89.989
sg5
F0.048923
sg6
I3
sg7
F215.26621
sg8
S'0663e548-70c7-3c59-a2ef-79ff82c3cf02'
p1187
sg10
S'Music And Moodscapes'
p1188
sg12
F0.079099
sg13
F0.077484
sg14
F0.527798
sg15
F4.0
sg16
F-5.148
sg17
F0.774374
sg18
F0.247048815693
sa(dp1189
g3
F0.028413
sg4
F73.345
sg5
F0.040851
sg6
I3
sg7
F67.14621
sg8
S'd6098e75-519c-3d84-8d3c-d080297175d4'
p1190
sg10
g977
sg12
F0.14579
sg13
F0.981716
sg14
F0.084938
sg15
F3.0
sg16
F-28.263
sg17
F0.019146
sg18
F0.273430095496
sa(dp1191
g3
F0.472177
sg4
F91.493
sg5
F0.042062
sg6
I3
sg7
F161.27955
sg8
S'10783fc3-ef3b-33ef-8e73-370ab6cea971'
p1192
sg10
S'Utopia Main Theme'
p1193
sg12
F0.073029
sg13
F0.07993
sg14
F0.611607
sg15
F4.0
sg16
F-15.101
sg17
F0.310213
sg18
F0.273430095496
sa(dp1194
g3
F0.100066
sg4
F83.679
sg5
F0.030529
sg6
I3
sg7
F121.41288
sg8
S'1bb35d5d-b126-3e09-9cc5-cb033381140b'
p1195
sg10
S'Utopia End Credits'
p1196
sg12
F0.114922
sg13
F0.563338
sg14
F0.195832
sg15
F4.0
sg16
F-23.41
sg17
F0.074222
sg18
F0.273430095496
sa(dp1197
g3
F0.039854
sg4
F62.519
sg5
F0.043539
sg6
I3
sg7
F42.10621
sg8
S'c7a24ea1-4238-33a7-828e-6828a2a322f2'
p1198
sg10
g974
sg12
F0.083872
sg13
F0.912285
sg14
F0.203489
sg15
F4.0
sg16
F-25.057
sg17
F0.098357
sg18
F0.273430095496
sa(dp1199
g3
F0.10048
sg4
F59.638
sg5
F0.038896
sg6
I3
sg7
F107.17288
sg8
S'4f3319ad-15a9-34eb-ae99-44331daea367'
p1200
sg10
S'"Celebrity Mass" from Luxury Item'
p1201
sg12
F0.11723
sg13
F0.595684
sg14
F0.372236
sg15
F4.0
sg16
F-18.343
sg17
F0.036643
sg18
F0.273430095496
sa(dp1202
g3
F0.155116
sg4
F85.765
sg5
F0.036016
sg6
I3
sg7
F113.67955
sg8
S'71b39b08-397a-3eed-b804-059ee07a763c'
p1203
sg10
S'"Bush Theme" from Utopia'
p1204
sg12
F0.158559
sg13
F0.305868
sg14
F0.190487
sg15
F4.0
sg16
F-18.905
sg17
F0.038559
sg18
F0.273430095496
sa(dp1205
g3
F0.697972
sg4
F81.992
sg5
F0.035628
sg6
I3
sg7
F358.19057
sg8
S'1dd990ce-a4c1-37e3-a414-6ac874186cf7'
p1206
sg10
S'Act 1 - Narcotic'
p1207
sg12
F0.134635
sg13
F0.787047
sg14
F0.643535
sg15
F4.0
sg16
F-13.322
sg17
F0.361979
sg18
F0.462929240542
sa(dp1208
g3
F0.986497
sg4
F91.972
sg5
F0.061088
sg6
I3
sg7
F169.45696
sg8
S'b4841084-bd0b-340d-a4dd-8632e706ddfe'
p1209
sg10
S'Act 1 - Coil'
p1210
sg12
F0.151657
sg13
F0.511136
sg14
F0.578462
sg15
F4.0
sg16
F-8.376
sg17
F0.034364
sg18
F0.462929240542
sa(dp1211
g3
F0.015477
sg4
F67.116
sg5
F0.038672
sg6
I3
sg7
F66.49955
sg8
S'b63bca20-3eba-3f35-abb9-33e3a739597f'
p1212
sg10
S'Act 1 - Recursive Fault'
p1213
sg12
F0.108178
sg13
F0.796694
sg14
F0.260961
sg15
F5.0
sg16
F-31.273
sg17
F0.142286
sg18
F0.462929240542
sa(dp1214
g3
F0.494281
sg4
F94.169
sg5
F0.170755
sg6
I3
sg7
F219.46884
sg8
S'5e7606a9-c315-3a2c-bef3-6a61daf56c88'
p1215
sg10
S'The Stash'
p1216
sg12
F0.099721
sg13
F0.013506
sg14
F0.59265
sg15
F5.0
sg16
F-9.418
sg17
F0.443357
sg18
F0.252932913188
saa(lp1217
(dp1218
g3
F0.530323
sg4
F127.992
sg5
F0.081922
sg6
I4
sg7
F295.54893
sg8
S'ddb993a3-8a6b-3168-8145-0acd753ad10f'
p1219
sg10
S'Ghosts N Stuff Remix'
p1220
sg12
F0.084059
sg13
F0.018114
sg14
F0.725104
sg15
F4.0
sg16
F-15.96
sg17
F0.146319
sg18
F0.369891385764
sa(dp1221
g3
F0.55471
sg4
F127.992
sg5
F0.032889
sg6
I4
sg7
F208.23955
sg8
S'b5293744-d1ba-397a-8822-d69ce6991f03'
p1222
sg10
S'Without You (feat. Usher) [Instrumental]'
p1223
sg12
F0.131352
sg13
F0.107283
sg14
F0.662027
sg15
F4.0
sg16
F-7.755
sg17
F0.573833
sg18
F0.442510391646
sa(dp1224
g3
F0.941089
sg4
F127.987
sg5
F0.053869
sg6
I4
sg7
F185.13746
sg8
S'0ec8d22e-7779-3ef2-b59b-87af8b5f3aa9'
p1225
sg10
S'Delirious (Boneless)'
p1226
sg12
F0.174567
sg13
F0.020188
sg14
F0.824545
sg15
F4.0
sg16
F-6.155
sg17
F0.913341
sg18
F0.488575848496
sa(dp1227
g3
F0.926596
sg4
F122.06
sg5
F0.402797
sg6
I4
sg7
F154.90458
sg8
S'5e10ddfa-ef06-3699-a985-f2df0b25c7d9'
p1228
sg10
S'Gotta Take Your Love (Re-edit)'
p1229
sg12
F0.206739
sg13
F0.00408
sg14
F0.73503
sg15
F4.0
sg16
F-6.818
sg17
F0.561494
sg18
F0.411385030937
sa(dp1230
g3
F0.84503
sg4
F119.216
sg5
F0.039802
sg6
I4
sg7
F323.55955
sg8
S'84e9b70e-1f09-3911-81eb-5f16a4b95bc2'
p1231
sg10
S'Help Myself'
p1232
sg12
F0.985793
sg13
F0.102073
sg14
F0.51541
sg15
F4.0
sg16
F-6.906
sg17
F0.506898
sg18
F0.381223175296
sa(dp1233
g3
F0.688574
sg4
F125.016
sg5
F0.034213
sg6
I4
sg7
F212.54594
sg8
S'31c86dd6-c188-3394-8b80-90a7579fdb13'
p1234
sg10
g805
sg12
F0.062257
sg13
F0.031144
sg14
F0.739505
sg15
F4.0
sg16
F-6.417
sg17
F0.881894
sg18
F0.453701273135
sa(dp1235
g3
F0.892009
sg4
F119.996
sg5
F0.041597
sg6
I4
sg7
F208.22159
sg8
S'ff2c6925-d4f8-36a0-915f-5c0b737a702b'
p1236
sg10
S'This Heart - Rock / Hard Rock Song'
p1237
sg12
F0.269214
sg13
F0.000596
sg14
F0.496551
sg15
F4.0
sg16
F-4.496
sg17
F0.146288
sg18
F0.340148122382
sa(dp1238
g3
F0.804726
sg4
F124.998
sg5
F0.042883
sg6
I4
sg7
F255.58159
sg8
S'34a9566e-cea3-3edf-9389-895f69f7fed4'
p1239
sg10
S'Paradise - Country Album'
p1240
sg12
F0.2892
sg13
F0.000302
sg14
F0.581093
sg15
F4.0
sg16
F-9.085
sg17
F0.302652
sg18
F0.295212838718
sa(dp1241
g3
F0.278823
sg4
F132.004
sg5
F0.033259
sg6
I4
sg7
F370.52036
sg8
S'dbdaca0f-e0ab-3656-a111-097a4c8ec9da'
p1242
sg10
S'Josie - Instrumental Song'
p1243
sg12
F0.447561
sg13
F0.870403
sg14
F0.276762
sg15
F4.0
sg16
F-12.791
sg17
F0.129893
sg18
F0.367688608638
sa(dp1244
g3
F0.277847
sg4
F129.804
sg5
F0.0288
sg6
I4
sg7
F241.84118
sg8
S'66420f56-3f91-304f-8069-28f62cff46d6'
p1245
sg10
S'Silence Tonight - Holiday Song'
p1246
sg12
F0.101057
sg13
F0.82698
sg14
F0.502441
sg15
F4.0
sg16
F-8.389
sg17
F0.11923
sg18
F0.258769149144
sa(dp1247
g3
F0.357322
sg4
F132.01
sg5
F0.037142
sg6
I4
sg7
F250.33098
sg8
S'6dc4a566-b565-3009-9ded-dd078a337893'
p1248
sg10
S'Lucid See - New Age Album'
p1249
sg12
F0.363376
sg13
F0.944728
sg14
F0.565485
sg15
F4.0
sg16
F-16.038
sg17
F0.075995
sg18
F0.323816808351
sa(dp1250
g3
F0.509066
sg4
F125.136
sg5
F0.176429
sg6
I4
sg7
F339.04281
sg8
S'5a9bb070-cf7c-31b0-ad9e-e2f8f22aac42'
p1251
sg10
S'Kick Drum High Hat (Oscilot Remix)'
p1252
sg12
F0.099163
sg13
F0.628131
sg14
F0.69268
sg15
F4.0
sg16
F-10.049
sg17
F0.269535
sg18
F0.309031421999
sa(dp1253
g3
F0.745656
sg4
F119.58
sg5
F0.535543
sg6
I4
sg7
F200.19048
sg8
S'a3aa3a90-b9fa-3a9d-a2ec-ef4f0ed9d70b'
p1254
sg10
S'Hey Mami'
p1255
sg12
F0.372651
sg13
F0.268542
sg14
F0.668226
sg15
F4.0
sg16
F-6.019
sg17
F0.605725
sg18
F0.591491394823
sa(dp1256
g3
F0.953151
sg4
F126.972
sg5
F0.086297
sg6
I4
sg7
F207.16
sg8
S'75b8179a-54a1-3b6c-ae8f-4cdb5cb6691b'
p1257
sg10
S'Resist and Bite'
p1258
sg12
F0.08443
sg13
F0.001557
sg14
F0.519022
sg15
F4.0
sg16
F-4.974
sg17
F0.146739
sg18
F0.494394022608
sa(dp1259
g3
F0.987215
sg4
F124.999
sg5
F0.206413
sg6
I4
sg7
F172.75955
sg8
S'ce3ae340-f261-3ae7-8b58-0a62c1b1feba'
p1260
sg10
S'Nemesis'
p1261
sg12
F0.32788
sg13
F0.00163
sg14
F0.522515
sg15
F3.0
sg16
F-4.422
sg17
F0.136847
sg18
F0.435912967294
sa(dp1262
g3
F0.577071
sg4
F120.098
sg5
F0.042635
sg6
I4
sg7
F306.0
sg8
S'70a9bc1e-7e9f-3c7d-85f1-771e33653c5f'
p1263
sg10
S'The Book Monument'
p1264
sg12
F0.12797
sg13
F0.928356
sg14
F0.241849
sg15
F4.0
sg16
F-8.908
sg17
F0.092613
sg18
F0.25991974052
sa(dp1265
g3
F0.943235
sg4
F126.066
sg5
F0.036638
sg6
I4
sg7
F202.13288
sg8
S'dc25e77c-3e4f-3586-94b8-a28afa1e3524'
p1266
sg10
S'Say What You Mean'
p1267
sg12
F0.723171
sg13
F0.044206
sg14
F0.511998
sg15
F4.0
sg16
F-3.346
sg17
F0.961883
sg18
F0.257350533155
sa(dp1268
g3
F0.62196
sg4
F116.722
sg5
F0.026709
sg6
I4
sg7
F195.77692
sg8
S'4aef81ec-8a4f-3f11-8cac-8c56f34fee73'
p1269
sg10
S'Do You Love Me Like You Used To'
p1270
sg12
F0.351945
sg13
F0.003469
sg14
F0.618934
sg15
F4.0
sg16
F-6.153
sg17
F0.632316
sg18
F0.468873175959
sa(dp1271
g3
F0.954097
sg4
F125.976
sg5
F0.035354
sg6
I4
sg7
F204.46621
sg8
S'1b05d254-1b98-3364-9e4e-6df7063f1e15'
p1272
sg10
S"You Don't Know Me"
p1273
sg12
F0.103009
sg13
F0.00277
sg14
F0.559183
sg15
F4.0
sg16
F-3.943
sg17
F0.930714
sg18
F0.390633729011
sa(dp1274
g3
F0.784997
sg4
F129.99
sg5
F0.066059
sg6
I4
sg7
F247.63224
sg8
S'350a9f5e-4fff-3164-b493-98c2586129e9'
p1275
sg10
S'Fall Back In'
p1276
sg12
F0.123024
sg13
F0.029019
sg14
F0.787743
sg15
F4.0
sg16
F-3.942
sg17
F0.774422
sg18
F0.309731157687
sa(dp1277
g3
F0.072824
sg4
F116.917
sg5
F0.044037
sg6
I4
sg7
F233.83955
sg8
S'ff796f66-63d9-33c2-8bea-79d8971540a5'
p1278
sg10
S'Far Over the Misty Mountains Cold'
p1279
sg12
F0.330526
sg13
F0.906649
sg14
F0.564542
sg15
F4.0
sg16
F-16.614
sg17
F0.158143
sg18
F0.338486369779
sa(dp1280
g3
F0.893739
sg4
F119.844
sg5
F0.028386
sg6
I4
sg7
F182.82621
sg8
S'2987036f-fbf7-331a-9d61-ddef79fcef92'
p1281
sg10
S'Laid'
p1282
sg12
F0.243777
sg13
F0.004303
sg14
F0.558825
sg15
F4.0
sg16
F-5.477
sg17
F0.71016
sg18
F0.499727972349
sa(dp1283
g3
F0.874142
sg4
F119.999
sg5
F0.032881
sg6
I4
sg7
F214.46621
sg8
S'ae19fc3a-dc55-310b-bd54-4798435bb97e'
p1284
sg10
S'Lover'
p1285
sg12
F0.568388
sg13
F0.042621
sg14
F0.674652
sg15
F4.0
sg16
F-6.328
sg17
F0.613576
sg18
F0.462164413163
sa(dp1286
g3
F0.141038
sg4
F131.177
sg5
F0.029386
sg6
I4
sg7
F303.81288
sg8
S'12b3d8e5-55b4-3479-bfec-2abcff1ee85e'
p1287
sg10
S'Find my Blood'
p1288
sg12
F0.10927
sg13
F0.785069
sg14
F0.327569
sg15
F4.0
sg16
F-14.161
sg17
F0.056818
sg18
F0.487310865283
sa(dp1289
g3
F0.13315
sg4
F126.905
sg5
F0.033032
sg6
I4
sg7
F220.98621
sg8
S'd1dc6fe5-fb35-32a1-a67d-4dd86e649ef6'
p1290
sg10
S'Ludlow'
p1291
sg12
F0.088999
sg13
F0.824933
sg14
F0.36469
sg15
F4.0
sg16
F-15.546
sg17
F0.101451
sg18
F0.490858362488
sa(dp1292
g3
F0.816441
sg4
F127.044
sg5
F0.040027
sg6
I4
sg7
F186.91955
sg8
S'8992c4f2-a827-3548-87db-9ea21e45da09'
p1293
sg10
S'The Outsider'
p1294
sg12
F0.10724
sg13
F0.489502
sg14
F0.64367
sg15
F4.0
sg16
F-6.178
sg17
F0.508096
sg18
F0.511730656842
sa(dp1295
g3
F0.610707
sg4
F123.051
sg5
F0.030626
sg6
I4
sg7
F254.32844
sg8
S'63adf7a4-4620-324e-94d8-28cc38b142a5'
p1296
sg10
S'Autumn Grove'
p1297
sg12
F0.096732
sg13
F0.029384
sg14
F0.73506
sg15
F4.0
sg16
F-9.227
sg17
F0.628484
sg18
F0.461595818091
sa(dp1298
g3
F0.871067
sg4
F126.014
sg5
F0.036651
sg6
I4
sg7
F310.74621
sg8
S'ee406264-9cd6-3814-a062-1f8fb85b6643'
p1299
sg10
S'Go Out On The Town'
p1300
sg12
F0.068646
sg13
F0.093019
sg14
F0.773837
sg15
F4.0
sg16
F-4.128
sg17
F0.596553
sg18
F0.421573562199
sa(dp1301
g3
F0.148782
sg4
F125.925
sg5
F0.038159
sg6
I4
sg7
F265.46621
sg8
S'0e118798-e640-3d08-9bdc-f799480d7651'
p1302
sg10
S'Autumn - Dual Piano'
p1303
sg12
F0.098949
sg13
F0.978796
sg14
F0.356202
sg15
F4.0
sg16
F-21.435
sg17
F0.151527
sg18
F0.553378844811
sa(dp1304
g3
F0.740594
sg4
F125.013
sg5
F0.038508
sg6
I4
sg7
F256.8185
sg8
S'db16de94-035e-37b2-b3e2-0c4650f2f98a'
p1305
sg10
S'Stars Align'
p1306
sg12
F0.07889
sg13
F0.149274
sg14
F0.737322
sg15
F4.0
sg16
F-6.523
sg17
F0.353082
sg18
F0.379715686017
sa(dp1307
g3
F0.799582
sg4
F126.964
sg5
F0.12965
sg6
I4
sg7
F426.23955
sg8
S'e28a950a-1fc5-37e1-b711-167d162ba0bf'
p1308
sg10
S'Turn It Down'
p1309
sg12
F0.308138
sg13
F0.003516
sg14
F0.548635
sg15
F4.0
sg16
F-7.933
sg17
F0.413483
sg18
F0.379715686017
sa(dp1310
g3
F0.85109
sg4
F127.875
sg5
F0.060461
sg6
I4
sg7
F258.28136
sg8
S'fd34b2f7-8b40-3f95-bbdb-eab6dc9cf753'
p1311
sg10
S'Last Chance'
p1312
sg12
F0.107059
sg13
F0.061341
sg14
F0.412526
sg15
F4.0
sg16
F-4.69
sg17
F0.17511
sg18
F0.379715686017
sa(dp1313
g3
F0.835398
sg4
F125.604
sg5
F0.07576
sg6
I4
sg7
F230.02848
sg8
S'824c90ad-8786-35c8-9970-8582ca5e6230'
p1314
sg10
S'No One Knows Who We Are'
p1315
sg12
F0.059555
sg13
F0.023366
sg14
F0.39337
sg15
F4.0
sg16
F-4.703
sg17
F0.190495
sg18
F0.379715686017
sa(dp1316
g3
F0.8482
sg4
F126.989
sg5
F0.04318
sg6
I4
sg7
F224.35701
sg8
S'e0a14ae1-b662-3772-a305-41be14f5f198'
p1317
sg10
S'Be Still'
p1318
sg12
F0.111696
sg13
F0.011653
sg14
F0.499012
sg15
F4.0
sg16
F-4.89
sg17
F0.291113
sg18
F0.379715686017
sa(dp1319
g3
F0.882721
sg4
F128.028
sg5
F0.324103
sg6
I4
sg7
F63.69556
sg8
S'168b3c52-6c2b-3532-94d6-4bc1665b4d58'
p1320
sg10
S'Move For Me'
p1321
sg12
F0.693154
sg13
F0.002647
sg14
F0.725007
sg15
F4.0
sg16
F-7.033
sg17
F0.270649
sg18
F0.379715686017
sa(dp1322
g3
F0.222482
sg4
F124.805
sg5
F0.031876
sg6
I4
sg7
F294.95728
sg8
S'eb15d59a-fcee-31e5-9fe1-6220c182acf8'
p1323
sg10
S"Room for Happiness (Kaskade's Ice Mix)"
p1324
sg12
F0.415936
sg13
F0.846266
sg14
F0.417127
sg15
F4.0
sg16
F-9.595
sg17
F0.158287
sg18
F0.379715686017
sa(dp1325
g3
F0.560863
sg4
F128.024
sg5
F0.041424
sg6
I4
sg7
F270.57288
sg8
S'9550fc1c-1757-33e7-aae7-124b2fb4b220'
p1326
sg10
S'Eyes'
p1327
sg12
F0.06947
sg13
F0.006127
sg14
F0.633478
sg15
F4.0
sg16
F-8.305
sg17
F0.284131
sg18
F0.379715686017
sa(dp1328
g3
F0.802163
sg4
F127.986
sg5
F0.058041
sg6
I4
sg7
F254.05823
sg8
S'786a691e-4c98-30bf-b074-dc6215d783d2'
p1329
sg10
S'Lessons in Love'
p1330
sg12
F0.143966
sg13
F0.03516
sg14
F0.583706
sg15
F4.0
sg16
F-5.927
sg17
F0.632706
sg18
F0.379715686017
sa(dp1331
g3
F0.562688
sg4
F128.021
sg5
F0.100528
sg6
I4
sg7
F240.0
sg8
S'c9d5ff6f-7799-3e5f-a029-3b90635c614a'
p1332
sg10
S'Fire In Your New Shoes'
p1333
sg12
F0.114896
sg13
F0.003086
sg14
F0.830279
sg15
F4.0
sg16
F-5.838
sg17
F0.480605
sg18
F0.379715686017
sa(dp1334
g3
F0.666079
sg4
F123.007
sg5
F0.046343
sg6
I4
sg7
F280.00798
sg8
S'f36642ae-ab93-3969-89b9-d54cda2f6865'
p1335
sg10
S'Atmosphere (Kaskade Redux Edit)'
p1336
sg12
F0.110355
sg13
F0.001774
sg14
F0.719302
sg15
F4.0
sg16
F-8.201
sg17
F0.376296
sg18
F0.379715686017
sa(dp1337
g3
F0.685386
sg4
F128.004
sg5
F0.038498
sg6
I4
sg7
F267.27955
sg8
S'a19a2179-32af-3af3-8eee-b5557979d7b1'
p1338
sg10
S'4AM (Adam K & Soha Mix)'
p1339
sg12
F0.887852
sg13
F0.229705
sg14
F0.655673
sg15
F4.0
sg16
F-8.127
sg17
F0.094583
sg18
F0.379715686017
sa(dp1340
g3
F0.602884
sg4
F128.022
sg5
F0.051953
sg6
I4
sg7
F326.50621
sg8
S'8c725c3e-cf57-34dc-af2d-0458c6a1f631'
p1341
sg10
S'Atmosphere'
p1342
sg12
F0.05514
sg13
F0.00568
sg14
F0.476864
sg15
F4.0
sg16
F-8.525
sg17
F0.276032
sg18
F0.379715686017
sa(dp1343
g3
F0.827865
sg4
F129.995
sg5
F0.473707
sg6
I4
sg7
F312.03955
sg8
S'56a43fdf-7ead-34dc-b8eb-f493d693f7f5'
p1344
sg10
S'Raining'
p1345
sg12
F0.455988
sg13
F0.26964
sg14
F0.628403
sg15
F4.0
sg16
F-6.736
sg17
F0.288603
sg18
F0.379715686017
sa(dp1346
g3
F0.853235
sg4
F127.987
sg5
F0.069956
sg6
I4
sg7
F317.10912
sg8
S'83068dec-7dd6-3342-a484-068d0f97e276'
p1347
sg10
S"I'll Never Dream I'm in Love - Radio Edit"
p1348
sg12
F0.707342
sg13
F0.028942
sg14
F0.446204
sg15
F4.0
sg16
F-3.977
sg17
F0.238201
sg18
F0.379715686017
sa(dp1349
g3
F0.794435
sg4
F128.026
sg5
F0.041023
sg6
I4
sg7
F224.28154
sg8
S'064e60af-3d5b-3248-bb70-d35adee19299'
p1350
sg10
S'Something Something Champs - Radio Edit'
p1351
sg12
F0.356174
sg13
F0.047956
sg14
F0.444791
sg15
F4.0
sg16
F-4.095
sg17
F0.330714
sg18
F0.379715686017
sa(dp1352
g3
F0.944854
sg4
F128.001
sg5
F0.136933
sg6
I4
sg7
F280.46209
sg8
S'd5cb1c8f-703a-3300-8c6a-93304d8e9c71'
p1353
sg10
S'Rage in Your New Shoes'
p1354
sg12
F0.3373
sg13
F0.007483
sg14
F0.493408
sg15
F4.0
sg16
F-4.061
sg17
F0.40774
sg18
F0.379715686017
sa(dp1355
g3
F0.727388
sg4
F128.014
sg5
F0.035231
sg6
I4
sg7
F195.05923
sg8
S'9b72ac47-2853-3aff-bb9e-cae73c2a6de0'
p1356
sg10
S'Dynasty'
p1357
sg12
F0.155123
sg13
F0.00441
sg14
F0.608259
sg15
F4.0
sg16
F-4.529
sg17
F0.71664
sg18
F0.379715686017
sa(dp1358
g3
F0.628059
sg4
F125.98
sg5
F0.043302
sg6
I4
sg7
F227.45333
sg8
S'4d5cb8cd-4e3d-3773-ad7e-0e1439874a58'
p1359
sg10
S'Angel On My Shoulder'
p1360
sg12
F0.10473
sg13
F0.004087
sg14
F0.573704
sg15
F4.0
sg16
F-7.514
sg17
F0.191793
sg18
F0.379715686017
sa(dp1361
g3
F0.758711
sg4
F129.941
sg5
F0.057676
sg6
I4
sg7
F384.49955
sg8
S'41e23b1c-f736-3f13-a789-7bb8e5b8dba6'
p1362
sg10
S'Breakout'
p1363
sg12
F0.024467
sg13
F0.001884
sg14
F0.786752
sg15
F4.0
sg16
F-5.447
sg17
F0.780387
sg18
F0.451393701203
sa(dp1364
g3
F0.117221
sg4
F131.847
sg5
F0.034454
sg6
I4
sg7
F246.41374
sg8
S'bb90d234-a742-33ad-9326-6d4707c9663a'
p1365
sg10
S'Mexico'
p1366
sg12
F0.084694
sg13
F0.964347
sg14
F0.558383
sg15
F4.0
sg16
F-16.958
sg17
F0.171579
sg18
F0.49402576793
sa(dp1367
g3
F0.857575
sg4
F131.421
sg5
F0.038501
sg6
I4
sg7
F229.89288
sg8
S'5307fe1f-773c-39ac-a4ba-9c7bafcd2745'
p1368
sg10
S'Il paese \xc3\xa8 reale'
p1369
sg12
F0.295096
sg13
F0.004496
sg14
F0.47932
sg15
F4.0
sg16
F-3.986
sg17
F0.53985
sg18
F0.421715281823
sa(dp1370
g3
F0.73987
sg4
F126.626
sg5
F0.058369
sg6
I4
sg7
F212.74621
sg8
S'27f0af3e-ae74-3ea5-bf2b-10e8400f9896'
p1371
sg10
S'Now or Never'
p1372
sg12
F0.11561
sg13
F0.00201
sg14
F0.597952
sg15
F4.0
sg16
F-7.124
sg17
F0.609316
sg18
F0.468779004957
sa(dp1373
g3
F0.117221
sg4
F131.847
sg5
F0.034454
sg6
I4
sg7
F246.41374
sg8
S'3f73eece-5499-3608-81d0-adad439b2eea'
p1374
sg10
g1366
sg12
F0.084694
sg13
F0.964347
sg14
F0.558383
sg15
F4.0
sg16
F-16.958
sg17
F0.171579
sg18
F0.49402576793
sa(dp1375
g3
F0.443365
sg4
F131.638
sg5
F0.03644
sg6
I4
sg7
F788.15447
sg8
S'ee5cae07-3f6a-3e38-9066-d97f0e6ed394'
p1376
sg10
S'Jajunk>'
p1377
sg12
F0.13177
sg13
F0.162648
sg14
F0.455793
sg15
F3.0
sg16
F-18.827
sg17
F0.350895
sg18
F0.415381464026
sa(dp1378
g3
F0.443365
sg4
F131.638
sg5
F0.03644
sg6
I4
sg7
F788.15447
sg8
S'a029190c-dcbf-3689-9c79-7b959d53ccb7'
p1379
sg10
g1377
sg12
F0.13177
sg13
F0.162648
sg14
F0.455793
sg15
F3.0
sg16
F-18.827
sg17
F0.350895
sg18
F0.415381464026
sa(dp1380
g3
F0.619352
sg4
F121.87
sg5
F0.036965
sg6
I4
sg7
F560.15773
sg8
S'fa2288db-0d30-3e5a-a958-4f8444715ba6'
p1381
sg10
S'The Triple Wide >'
p1382
sg12
F0.176214
sg13
F0.434324
sg14
F0.482606
sg15
F4.0
sg16
F-15.034
sg17
F0.558575
sg18
F0.415381464026
sa(dp1383
g3
F0.921286
sg4
F127.017
sg5
F0.056658
sg6
I4
sg7
F606.54395
sg8
S'ecdec6fc-265b-32ae-aa8d-f695e76b1fd3'
p1384
sg10
S'Come As Your Kids (10/29/11 Atlanta  Georgia)'
p1385
sg12
F0.751581
sg13
F0.049181
sg14
F0.277751
sg15
F4.0
sg16
F-5.38
sg17
F0.314592
sg18
F0.415381464026
sa(dp1386
g3
F0.708675
sg4
F121.96
sg5
F0.235667
sg6
I4
sg7
F206.28961
sg8
S'b53485d9-9c05-360e-bb3d-79a6300b1a57'
p1387
sg10
S'Useless Music (Remix)'
p1388
sg12
F0.115687
sg13
F0.371095
sg14
F0.895519
sg15
F4.0
sg16
F-7.503
sg17
F0.833276
sg18
F0.232344793957
sa(dp1389
g3
F0.866346
sg4
F126.022
sg5
F0.069092
sg6
I4
sg7
F237.84
sg8
S'b53be5fb-2efa-3b19-a376-50090b47dcc0'
p1390
sg10
S'Soft Offering (For the Oft Suffering)'
p1391
sg12
F0.119457
sg13
F0.072264
sg14
F0.543584
sg15
F4.0
sg16
F-6.424
sg17
F0.241175
sg18
F0.496795028709
sa(dp1392
g3
F0.467486
sg4
F118.031
sg5
F0.060141
sg6
I4
sg7
F205.42621
sg8
S'22ce45cb-35d8-353f-86ce-902a2b4cc400'
p1393
sg10
S'Pressure'
p1394
sg12
F0.076116
sg13
F0.646962
sg14
F0.781883
sg15
F4.0
sg16
F-8.58
sg17
F0.77116
sg18
F0.491559266938
sa(dp1395
g3
F0.478591
sg4
F120.019
sg5
F0.055752
sg6
I4
sg7
F236.63955
sg8
S'11e86d69-de71-32d2-b36b-d3182f1cabe0'
p1396
sg10
S'When It Comes Down'
p1397
sg12
F0.107826
sg13
F0.032634
sg14
F0.841219
sg15
F4.0
sg16
F-13.062
sg17
F0.646362
sg18
F0.259683304522
sa(dp1398
g3
F0.784877
sg4
F122.914
sg5
F0.033861
sg6
I4
sg7
F352.77374
sg8
S'591f7a68-492b-3d78-8547-1f4c3abf87ee'
p1399
sg10
S'Get Out'
p1400
sg12
F0.324349
sg13
F0.065091
sg14
F0.664173
sg15
F4.0
sg16
F-6.038
sg17
F0.109534
sg18
F0.5358796057
sa(dp1401
g3
F0.176454
sg4
F117.772
sg5
F0.059696
sg6
I4
sg7
F172.419
sg8
S'117897ca-2c66-3652-afc0-cb71618fda1a'
p1402
sg10
S'Happiness (Live)'
p1403
sg12
F0.473382
sg13
F0.928137
sg14
F0.471396
sg15
F3.0
sg16
F-18.626
sg17
F0.241836
sg18
F0.261711676507
sa(dp1404
g3
F0.297802
sg4
F125.398
sg5
F0.037694
sg6
I4
sg7
F173.19129
sg8
S'81028750-4226-3e6a-9331-61d9162d6dbf'
p1405
sg10
S"Can't Escape"
p1406
sg12
F0.265918
sg13
F0.349985
sg14
F0.631881
sg15
F4.0
sg16
F-13.413
sg17
F0.540984
sg18
F0.261711676507
sa(dp1407
g3
F0.197797
sg4
F128.151
sg5
F0.034645
sg6
I4
sg7
F244.09347
sg8
S'edc7ce72-6b18-347b-8a56-bc289111f3aa'
p1408
sg10
S"Just Can't Wait (Live)"
p1409
sg12
F0.885216
sg13
F0.907841
sg14
F0.433848
sg15
F4.0
sg16
F-15.937
sg17
F0.205249
sg18
F0.261711676507
sa(dp1410
g3
F0.752706
sg4
F132.371
sg5
F0.045712
sg6
I4
sg7
F228.0361
sg8
S'92987af5-3d8e-37e6-a893-f16522210e4f'
p1411
sg10
S"Joe Savio's New Age Blues Experience"
p1412
sg12
F0.386971
sg13
F0.005333
sg14
F0.478864
sg15
F4.0
sg16
F-7.048
sg17
F0.642798
sg18
F0.269127343221
sa(dp1413
g3
F0.354437
sg4
F122.237
sg5
F0.04341
sg6
I4
sg7
F316.04354
sg8
S'07fd1b88-00cc-3f85-9e2f-7b4a64599ce5'
p1414
sg10
S'Beyond'
p1415
sg12
F0.127935
sg13
F0.33303
sg14
F0.345482
sg15
F4.0
sg16
F-13.567
sg17
F0.115813
sg18
F0.269127343221
sa(dp1416
g3
F0.291129
sg4
F118.106
sg5
F0.038191
sg6
I4
sg7
F202.32975
sg8
S'11f4207b-8920-3429-b4e6-5d98a686f6b3'
p1417
sg10
S'Another Day'
p1418
sg12
F0.957786
sg13
F0.783779
sg14
F0.378899
sg15
F4.0
sg16
F-13.019
sg17
F0.182656
sg18
F0.269127343221
sa(dp1419
g3
F0.252202
sg4
F128.896
sg5
F0.033243
sg6
I4
sg7
F257.61914
sg8
S'f1154113-3947-32dd-9f3d-a79c74cbe761'
p1420
sg10
S'London Bridge Is Falling Down'
p1421
sg12
F0.107388
sg13
F0.865424
sg14
F0.33118
sg15
F3.0
sg16
F-12.675
sg17
F0.282439
sg18
F0.5435561165
sa(dp1422
g3
F0.982031
sg4
F127.98
sg5
F0.432763
sg6
I4
sg7
F324.23138
sg8
S'8ee92632-4c13-3665-b5e5-3363b7dbf132'
p1423
sg10
S'Mission of Destruction (Original Mix)'
p1424
sg12
F0.222163
sg13
F4.5e-05
sg14
F0.606073
sg15
F4.0
sg16
F-2.625
sg17
F0.112207
sg18
F0.536887447902
sa(dp1425
g3
F0.580064
sg4
F126.03
sg5
F0.230691
sg6
I4
sg7
F251.23918
sg8
S'd18eaadf-7d04-3703-a346-a3103bfa270a'
p1426
sg10
S'Do It Again'
p1427
sg12
F0.24107
sg13
F0.154611
sg14
F0.854924
sg15
F4.0
sg16
F-10.044
sg17
F0.796017
sg18
F0.486850656346
sa(dp1428
g3
F0.6701
sg4
F129.979
sg5
F0.029973
sg6
I4
sg7
F198.13288
sg8
S'fd369b0c-bd74-358f-830f-368997c47af7'
p1429
sg10
S'Pioneers'
p1430
sg12
F0.051441
sg13
F0.155989
sg14
F0.731601
sg15
F4.0
sg16
F-7.835
sg17
F0.570496
sg18
F0.506836887611
sa(dp1431
g3
F0.491723
sg4
F123.909
sg5
F0.035347
sg6
I4
sg7
F257.85637
sg8
S'2b60b6b3-29b2-3a54-9c20-c4f16b4f2a2f'
p1432
sg10
S'Remember'
p1433
sg12
F0.11330899999999999
sg13
F0.634829
sg14
F0.558161
sg15
F4.0
sg16
F-8.667
sg17
F0.187115
sg18
F0.495380891229
sa(dp1434
g3
F0.857535
sg4
F119.996
sg5
F0.049998
sg6
I4
sg7
F279.37288
sg8
S'3bd3a63a-b3f9-3ac4-b8e7-bd54426ce327'
p1435
sg10
S'New Prayer'
p1436
sg12
F0.174446
sg13
F0.004016
sg14
F0.579332
sg15
F4.0
sg16
F-7.865
sg17
F0.463574
sg18
F0.495380891229
sa(dp1437
g3
F0.97957
sg4
F122.454
sg5
F0.061382
sg6
I4
sg7
F135.04707
sg8
S'e840ff35-76ec-36e3-882e-aa1225b2e6cb'
p1438
sg10
S'Suburban Commando'
p1439
sg12
F0.360479
sg13
F0.068836
sg14
F0.573885
sg15
F4.0
sg16
F-2.309
sg17
F0.793716
sg18
F0.38653169619
sa(dp1440
g3
F0.533015
sg4
F116.993
sg5
F0.040104
sg6
I4
sg7
F209.3254
sg8
S'820e4f7b-a096-30c7-8883-aeeb7f6d5a07'
p1441
sg10
S'Lies (feat. Nomi Ruiz) - Original Mix'
p1442
sg12
F0.085899
sg13
F0.099882
sg14
F0.765196
sg15
F4.0
sg16
F-10.321
sg17
F0.202573
sg18
F0.579305340907
sa(dp1443
g3
F0.176575
sg4
F120.679
sg5
F0.044248
sg6
I4
sg7
F399.11955
sg8
S'2d6643b8-74e6-3ba7-8511-5a3feaa900cc'
p1444
sg10
S'Sister Rosa (feat. Russell Malone)'
p1445
sg12
F0.110476
sg13
F0.967405
sg14
F0.620702
sg15
F4.0
sg16
F-21.815
sg17
F0.452645
sg18
F0.441125679892
sa(dp1446
g3
F0.752514
sg4
F129.758
sg5
F0.037746
sg6
I4
sg7
F249.63955
sg8
S'4b1db0e6-9a91-396a-90f7-7ccb9832566e'
p1447
sg10
S'Love To Love'
p1448
sg12
F0.09451
sg13
F0.040937
sg14
F0.595515
sg15
F4.0
sg16
F-7.492
sg17
F0.78162
sg18
F0.53413194612
sa(dp1449
g3
F0.460745
sg4
F130.005
sg5
F0.028483
sg6
I4
sg7
F219.14077
sg8
S'91053808-43f6-3c23-8f06-b6163c8c5754'
p1450
sg10
S'Love You Strongly'
p1451
sg12
F0.10927
sg13
F0.888491
sg14
F0.643734
sg15
F4.0
sg16
F-9.749
sg17
F0.401846
sg18
F0.52000875725
sa(dp1452
g3
F0.285724
sg4
F117.241
sg5
F0.035603
sg6
I4
sg7
F332.38354
sg8
S'44cb129c-e153-34cc-bd86-8a4c4fdbed01'
p1453
sg10
S'Switzerland'
p1454
sg12
F0.099406
sg13
F0.416816
sg14
F0.402859
sg15
F4.0
sg16
F-16.354
sg17
F0.524041
sg18
F0.521161626023
sa(dp1455
g3
F0.519067
sg4
F129.727
sg5
F0.028551
sg6
I4
sg7
F201.679
sg8
S'5c31e1bb-46a8-34eb-b987-dee436d4c7a6'
p1456
sg10
S"I Won't Cry"
p1457
sg12
F0.100063
sg13
F0.025822
sg14
F0.372538
sg15
F4.0
sg16
F-14.575
sg17
F0.683052
sg18
F0.250719795666
sa(dp1458
g3
F0.912737
sg4
F118.001
sg5
F0.058368
sg6
I4
sg7
F253.64585
sg8
S'cafc615c-e829-3ed7-b818-25c0eb892d37'
p1459
sg10
S'Malignancy - Vnvpuppy Mix'
p1460
sg12
F0.095214
sg13
F9.9e-05
sg14
F0.658586
sg15
F4.0
sg16
F-7.908
sg17
F0.648725
sg18
F0.406230548043
sa(dp1461
g3
F0.8598
sg4
F120.015
sg5
F0.048122
sg6
I4
sg7
F385.73193
sg8
S'74def078-db9c-3f22-977d-1996759f5cbf'
p1462
sg10
S'Stupid Song (Inner Self Mix)'
p1463
sg12
F0.083382
sg13
F0.03186
sg14
F0.610303
sg15
F4.0
sg16
F-7.474
sg17
F0.307322
sg18
F0.407898373708
sa(dp1464
g3
F0.546878
sg4
F120.1
sg5
F0.066262
sg6
I4
sg7
F246.65619
sg8
S'8493fa56-04d1-3794-a4e8-23d9d870871d'
p1465
sg10
S'Electricity'
p1466
sg12
F0.29826
sg13
F0.031383
sg14
F0.62386
sg15
F4.0
sg16
F-10.109
sg17
F0.106722
sg18
F0.385852062349
sa(dp1467
g3
F0.698499
sg4
F120.057
sg5
F0.03608
sg6
I4
sg7
F321.7615
sg8
S'cf7fc50e-80ad-3a53-a8c1-42a6e283a7de'
p1468
sg10
S'Black Powder'
p1469
sg12
F0.093574
sg13
F0.000625
sg14
F0.496123
sg15
F4.0
sg16
F-8.137
sg17
F0.179908
sg18
F0.46174610332
sa(dp1470
g3
F0.691958
sg4
F116.023
sg5
F0.099029
sg6
I4
sg7
F289.63161
sg8
S'91628db0-3e01-3bcd-9e0e-7aa1f519a34c'
p1471
sg10
S'Lights Out - Go Fight Remix'
p1472
sg12
F0.295185
sg13
F0.001534
sg14
F0.784621
sg15
F4.0
sg16
F-4.98
sg17
F0.828404
sg18
F0.473784237384
sa(dp1473
g3
F0.862297
sg4
F131.958
sg5
F0.109022
sg6
I4
sg7
F177.97361
sg8
S'51ba24cf-8982-3e72-8b0b-acc06cce6c22'
p1474
sg10
S'Bloodrush'
p1475
sg12
F0.485942
sg13
F0.000139
sg14
F0.558892
sg15
F4.0
sg16
F-6.214
sg17
F0.492774
sg18
F0.300389542679
sa(dp1476
g3
F0.687781
sg4
F120.103
sg5
F0.107285
sg6
I4
sg7
F256.05596
sg8
S'e28787dd-1433-32a7-856a-bf5afb7dff70'
p1477
sg10
S'Metal Madness - Marble Madness Remix'
p1478
sg12
F0.64175
sg13
F0.005746
sg14
F0.597336
sg15
F4.0
sg16
F-6.501
sg17
F0.40734
sg18
F0.432647245384
sa(dp1479
g3
F0.951174
sg4
F129.987
sg5
F0.03891
sg6
I4
sg7
F323.46635
sg8
S'4b869c72-b17f-36cb-9e13-9c0284873b10'
p1480
sg10
S'Western Rust - Interface Remix'
p1481
sg12
F0.541859
sg13
F0.006032
sg14
F0.593182
sg15
F4.0
sg16
F-7.101
sg17
F0.792543
sg18
F0.433902174913
sa(dp1482
g3
F0.995648
sg4
F132.01
sg5
F0.213424
sg6
I4
sg7
F266.27805
sg8
S'2265b6b4-b8a6-36d1-93af-2f4589a04bb8'
p1483
sg10
S'Condemnation - Filament 38 Remix'
p1484
sg12
F0.11904
sg13
F0.266627
sg14
F0.721596
sg15
F4.0
sg16
F-6.583
sg17
F0.031552
sg18
F0.309499507842
sa(dp1485
g3
F0.068355
sg4
F129.199
sg5
F0.048055
sg6
I4
sg7
F217.34621
sg8
S'17ff5efc-0778-3776-aba6-7e7ee22f7c29'
p1486
sg10
S'The Stars'
p1487
sg12
F0.156913
sg13
F0.994858
sg14
F0.414006
sg15
F4.0
sg16
F-25.168
sg17
F0.287966
sg18
F0.487129948669
sa(dp1488
g3
F0.817834
sg4
F127.021
sg5
F0.072031
sg6
I4
sg7
F232.03374
sg8
S'104d8816-f39d-35f0-bbf2-5a312982d405'
p1489
sg10
S'Osali Mabe'
p1490
sg12
F0.244384
sg13
F0.079183
sg14
F0.698875
sg15
F4.0
sg16
F-6.079
sg17
F0.88097
sg18
F0.518222718283
sa(dp1491
g3
F0.658461
sg4
F120.087
sg5
F0.05528
sg6
I4
sg7
F135.99955
sg8
S'57752be5-d40d-34e0-91a1-8761084b0313'
p1492
sg10
S'Turn Up The Music - Single'
p1493
sg12
F0.096695
sg13
F0.009604
sg14
F0.792277
sg15
F4.0
sg16
F-6.297
sg17
F0.450104
sg18
F0.347514013097
sa(dp1494
g3
F0.639965
sg4
F120.434
sg5
F0.039215
sg6
I4
sg7
F201.54091
sg8
S'05afef5e-1265-3ca6-88c6-6558fb3bfab3'
p1495
sg10
S'Bad Blood'
p1496
sg12
F0.105275
sg13
F0.12482
sg14
F0.556076
sg15
F4.0
sg16
F-8.65
sg17
F0.603304
sg18
F0.459953872927
sa(dp1497
g3
F0.654304
sg4
F127.018
sg5
F0.033182
sg6
I4
sg7
F240.8224
sg8
S'c623f16e-ebc1-373b-b837-073814001865'
p1498
sg10
S'By Surprise'
p1499
sg12
F0.172881
sg13
F0.001323
sg14
F0.568756
sg15
F4.0
sg16
F-8.959
sg17
F0.5646
sg18
F0.490329923552
sa(dp1500
g3
F0.517516
sg4
F123.146
sg5
F0.081285
sg6
I4
sg7
F330.001
sg8
S'24ed52f8-c6e3-3ca7-b59a-f53f0d5549bc'
p1501
sg10
S'Until The Colours Run'
p1502
sg12
F0.180382
sg13
F0.430214
sg14
F0.20406
sg15
F4.0
sg16
F-11.474
sg17
F0.16192
sg18
F0.520956071682
sa(dp1503
g3
F0.750684
sg4
F128.184
sg5
F0.036437
sg6
I4
sg7
F204.99955
sg8
S'b0487d03-09f5-3517-991d-823f0fe475b8'
p1504
sg10
S"Don't Lock the Door"
p1505
sg12
F0.124972
sg13
F0.35144
sg14
F0.657892
sg15
F4.0
sg16
F-5.357
sg17
F0.872422
sg18
F0.542871697728
sa(dp1506
g3
F0.762372
sg4
F121.148
sg5
F0.031982
sg6
I4
sg7
F205.03955
sg8
S'20af3088-1ccf-3604-910c-906958ea01e5'
p1507
sg10
S'Sister Ray Charles'
p1508
sg12
F0.106905
sg13
F0.524495
sg14
F0.65495
sg15
F4.0
sg16
F-5.215
sg17
F0.943307
sg18
F0.542871697728
sa(dp1509
g3
F0.517516
sg4
F123.146
sg5
F0.081285
sg6
I4
sg7
F330.001
sg8
S'22c25a3b-2bd2-3eb1-ae53-2a6108320b65'
p1510
sg10
g1502
sg12
F0.180382
sg13
F0.430214
sg14
F0.20406
sg15
F4.0
sg16
F-11.474
sg17
F0.16192
sg18
F0.520956071682
sa(dp1511
g3
F0.744624
sg4
F132.011
sg5
F0.132774
sg6
I4
sg7
F222.9541
sg8
S'b4094667-6d8a-3436-b855-a439fa006010'
p1512
sg10
S'Dancing with Lightning (feat. J. Glaze)'
p1513
sg12
F0.104199
sg13
F0.006033
sg14
F0.743242
sg15
F4.0
sg16
F-3.623
sg17
F0.438774
sg18
F0.466890261436
sa(dp1514
g3
F0.762594
sg4
F122.367
sg5
F0.063766
sg6
I4
sg7
F330.66621
sg8
S'0a4d5dc4-262d-3727-8b69-6466bb7a24bd'
p1515
sg10
S'Rise (feat. the Siren)'
p1516
sg12
F0.138971
sg13
F0.128966
sg14
F0.370071
sg15
F1.0
sg16
F-5.758
sg17
F0.240276
sg18
F0.466890261436
sa(dp1517
g3
F0.419578
sg4
F122.725
sg5
F0.228955
sg6
I4
sg7
F187.31624
sg8
S'3869bfb3-e2bf-3133-b1ae-e71800bf8903'
p1518
sg10
S'Indo Amnesia (feat. Nice Nate)'
p1519
sg12
F0.104806
sg13
F0.247868
sg14
F0.507019
sg15
F4.0
sg16
F-7.673
sg17
F0.354271
sg18
F0.466890261436
sa(dp1520
g3
F0.459731
sg4
F131.087
sg5
F0.30374
sg6
I4
sg7
F146.42866
sg8
S'4ec87ed5-3d55-3752-bc1b-2713b5014ff9'
p1521
sg10
S'Atmosphere (feat. P.H. The Vocal Beast)'
p1522
sg12
F0.099028
sg13
F0.155778
sg14
F0.826636
sg15
F4.0
sg16
F-11.399
sg17
F0.852593
sg18
F0.35271847675
sa(dp1523
g3
F0.753183
sg4
F125.484
sg5
F0.084501
sg6
I4
sg7
F195.18621
sg8
S'bb5375c2-22d9-3128-a9c9-221243b62933'
p1524
sg10
S"Can't Back Down"
p1525
sg12
F0.031517
sg13
F0.002128
sg14
F0.701018
sg15
F4.0
sg16
F-6.231
sg17
F0.616648
sg18
F0.488629260238
sa(dp1526
g3
F0.777538
sg4
F117.144
sg5
F0.027627
sg6
I4
sg7
F250.22621
sg8
S'13cd8792-2aed-3133-a1f5-5a6d31aa1437'
p1527
sg10
S'You Better Believe It'
p1528
sg12
F0.106893
sg13
F0.01194
sg14
F0.658961
sg15
F4.0
sg16
F-6.156
sg17
F0.888679
sg18
F0.515630567528
sa(dp1529
g3
F0.414351
sg4
F120.901
sg5
F0.029093
sg6
I4
sg7
F197.65288
sg8
S'b96b0342-2dd6-3969-9f79-694ce77180be'
p1530
sg10
S'Older Brother'
p1531
sg12
F0.120294
sg13
F0.450605
sg14
F0.574715
sg15
F4.0
sg16
F-11.148
sg17
F0.365549
sg18
F0.529591888426
sa(dp1532
g3
F0.783922
sg4
F132.002
sg5
F0.038396
sg6
I4
sg7
F321.5912
sg8
S'5a61cd74-20ae-371f-8a19-14abaebd25bf'
p1533
sg10
S'None Shall Sleep'
p1534
sg12
F0.221057
sg13
F0.171774
sg14
F0.478827
sg15
F4.0
sg16
F-7.642
sg17
F0.117242
sg18
F0.529591888426
sa(dp1535
g3
F0.867185
sg4
F131.923
sg5
F0.067159
sg6
I4
sg7
F187.25333
sg8
S'd72e32bb-017b-3aae-9083-17fd3188e756'
p1536
sg10
S'Other Side'
p1537
sg12
F0.099743
sg13
F0.001513
sg14
F0.537049
sg15
F4.0
sg16
F-6.479
sg17
F0.677895
sg18
F0.493533822468
sa(dp1538
g3
F0.950909
sg4
F128.0
sg5
F0.064321
sg6
I4
sg7
F377.41669
sg8
S'f1bb0b10-cbd8-39a5-b106-3be6f1cc34bd'
p1539
sg10
S'Back to Salvador (Back to the 2003 original mix)'
p1540
sg12
F0.015867
sg13
F0.000128
sg14
F0.701111
sg15
F4.0
sg16
F-8.966
sg17
F0.469967
sg18
F0.431659383237
sa(dp1541
g3
F0.820941
sg4
F125.882
sg5
F0.096385
sg6
I4
sg7
F258.87955
sg8
S'c036b465-74c9-3c3e-b15c-be59b7caad8f'
p1542
sg10
S'Going and Going. and Going. (Feat. rjd2 & Aaron Livingston)'
p1543
sg12
F0.138491
sg13
F0.028226
sg14
F0.586116
sg15
F4.0
sg16
F-7.261
sg17
F0.157252
sg18
F0.460081479025
sa(dp1544
g3
F0.892588
sg4
F130.982
sg5
F0.035805
sg6
I4
sg7
F203.65288
sg8
S'6def7a01-dcfa-3acb-8a9c-4ceaf8f79bf1'
p1545
sg10
S'Big Waves'
p1546
sg12
F0.687127
sg13
F0.001438
sg14
F0.536296
sg15
F4.0
sg16
F-4.903
sg17
F0.321535
sg18
F0.450018983089
sa(dp1547
g3
F0.841297
sg4
F130.024
sg5
F0.162462
sg6
I4
sg7
F313.92762
sg8
S'215d9561-02ec-383d-9413-7e4ebf3a34d9'
p1548
sg10
S'Dc On Tha Rise'
p1549
sg12
F0.068422
sg13
F0.011345
sg14
F0.822194
sg15
F4.0
sg16
F-4.731
sg17
F0.705009
sg18
F0.334559809193
sa(dp1550
g3
F0.895992
sg4
F120.023
sg5
F0.083357
sg6
I4
sg7
F202.38476
sg8
S'5de0da1b-6289-32f8-b7a9-0b267b868ba0'
p1551
sg10
S'2095'
p1552
sg12
F0.062096
sg13
F0.026029
sg14
F0.861372
sg15
F4.0
sg16
F-6.0
sg17
F0.844714
sg18
F0.334559809193
sa(dp1553
g3
F0.498794
sg4
F120.058
sg5
F0.084642
sg6
I4
sg7
F226.71628
sg8
S'ce2b5356-75cb-317b-b7b4-ba93dca82bf6'
p1554
sg10
S'Been Grey for a While (Short Static Mix)'
p1555
sg12
F0.109705
sg13
F0.255043
sg14
F0.525283
sg15
F4.0
sg16
F-14.77
sg17
F0.134436
sg18
F0.275994516708
sa(dp1556
g3
F0.92687
sg4
F120.011
sg5
F0.069701
sg6
I4
sg7
F384.05955
sg8
S'9e70bcfa-de74-31ea-af7a-f1f814a46464'
p1557
sg10
S'Been Grey for a While (This Side of the White Mix)'
p1558
sg12
F0.183982
sg13
F0.002914
sg14
F0.560592
sg15
F4.0
sg16
F-10.24
sg17
F0.200814
sg18
F0.275994516708
sa(dp1559
g3
F0.355618
sg4
F130.011
sg5
F0.049048
sg6
I4
sg7
F373.02812
sg8
S'dde5d8fa-fa9d-3295-95f6-aa559b968df8'
p1560
sg10
S'Gift for the Aliens (Musicbox On Mars Mix)'
p1561
sg12
F0.28922
sg13
F0.501348
sg14
F0.484562
sg15
F4.0
sg16
F-16.241
sg17
F0.047855
sg18
F0.275994516708
sa(dp1562
g3
F0.42053
sg4
F119.412
sg5
F0.062771
sg6
I4
sg7
F308.79556
sg8
S'21b50bb5-2ad3-3fd9-a85a-564041e80eb2'
p1563
sg10
S'The View from My Cave'
p1564
sg12
F0.083979
sg13
F0.515845
sg14
F0.387715
sg15
F4.0
sg16
F-14.577
sg17
F0.08391
sg18
F0.275994516708
sa(dp1565
g3
F0.803217
sg4
F126.114
sg5
F0.05286
sg6
I4
sg7
F224.09288
sg8
S'ae0d13c2-3967-3319-9888-129386df69a5'
p1566
sg10
S'Five'
p1567
sg12
F0.045368
sg13
F0.239295
sg14
F0.808899
sg15
F4.0
sg16
F-11.22
sg17
F0.583269
sg18
F0.450211472637
sa(dp1568
g3
F0.872174
sg4
F133.418
sg5
F0.099492
sg6
I4
sg7
F277.81179
sg8
S'09179a3a-7b98-3090-8802-b6235b95a5fc'
p1569
sg10
S'Settle Down'
p1570
sg12
F0.09374
sg13
F0.004322
sg14
F0.307852
sg15
F4.0
sg16
F-5.954
sg17
F0.486609
sg18
F0.447664281579
sa(dp1571
g3
F0.690845
sg4
F123.007
sg5
F0.162502
sg6
I4
sg7
F247.06667
sg8
S'f9f97e09-6b7b-36a6-8e39-aab7189e0e5a'
p1572
sg10
S'Hard Times'
p1573
sg12
F0.685193
sg13
F0.445683
sg14
F0.749506
sg15
F4.0
sg16
F-6.734
sg17
F0.833464
sg18
F0.473311153183
sa(dp1574
g3
F0.685796
sg4
F120.023
sg5
F0.036717
sg6
I4
sg7
F388.46621
sg8
S'b7ed4761-279f-3959-a756-7ff5226418c0'
p1575
sg10
S'Lesbo Vampires'
p1576
sg12
F0.184539
sg13
F0.46213
sg14
F0.619372
sg15
F4.0
sg16
F-7.325
sg17
F0.152186
sg18
F0.247048815693
sa(dp1577
g3
F0.800793
sg4
F120.006
sg5
F0.048956
sg6
I4
sg7
F187.99955
sg8
S'96dd33d8-3504-36d6-87bb-7b4ab645c0e9'
p1578
sg10
S'Donut'
p1579
sg12
F0.065683
sg13
F0.005965
sg14
F0.65533
sg15
F4.0
sg16
F-8.332
sg17
F0.320552
sg18
F0.386389068806
sa(dp1580
g3
F0.362561
sg4
F130.01
sg5
F0.054822
sg6
I4
sg7
F275.23029
sg8
S'16b35adf-e507-3c00-817f-715436a8a545'
p1581
sg10
S'Cupcake'
p1582
sg12
F0.101975
sg13
F0.806342
sg14
F0.796049
sg15
F4.0
sg16
F-11.97
sg17
F0.115483
sg18
F0.386389068806
sa(dp1583
g3
F0.587844
sg4
F120.346
sg5
F0.148485
sg6
I4
sg7
F240.07955
sg8
S'baeb6c12-bcb5-37f6-a4f4-c44752877eb1'
p1584
sg10
S'Jelly Bean'
p1585
sg12
F0.186867
sg13
F0.000298
sg14
F0.445084
sg15
F4.0
sg16
F-11.722
sg17
F0.198204
sg18
F0.386389068806
sa(dp1586
g3
F0.620872
sg4
F122.951
sg5
F0.057486
sg6
I4
sg7
F206.87755
sg8
S'e20cb175-ae5a-3c11-9014-0ac5edeb825f'
p1587
sg10
S'Ice Cream Sandwich'
p1588
sg12
F0.09088
sg13
F0.044317
sg14
F0.746732
sg15
F4.0
sg16
F-13.161
sg17
F0.170725
sg18
F0.386389068806
sa(dp1589
g3
F0.49325
sg4
F119.997
sg5
F0.044385
sg6
I4
sg7
F197.99955
sg8
S'7469c7cf-f266-39e9-813c-7a14b1c3cb6b'
p1590
sg10
S'Eclair'
p1591
sg12
F0.088407
sg13
F0.006906
sg14
F0.710409
sg15
F4.0
sg16
F-12.145
sg17
F0.366366
sg18
F0.386389068806
sa(dp1592
g3
F0.019779
sg4
F122.711
sg5
F0.042941
sg6
I4
sg7
F128.94621
sg8
S'fa684f03-4777-385f-8326-9fb80331630c'
p1593
sg10
S'"Opening" from Lightly Baked'
p1594
sg12
F0.089746
sg13
F0.248628
sg14
F0.201306
sg15
F4.0
sg16
F-30.64
sg17
F0.029683
sg18
F0.273430095496
sa(dp1595
g3
F0.043597
sg4
F119.672
sg5
F0.058622
sg6
I4
sg7
F62.39955
sg8
S'9ce0876a-e64b-3bd1-8152-062aada9bb44'
p1596
sg10
S'"End Credits" from Inversion'
p1597
sg12
F0.107243
sg13
F0.50348
sg14
F0.210261
sg15
F4.0
sg16
F-25.695
sg17
F0.035887
sg18
F0.273430095496
sa(dp1598
g3
F0.06401
sg4
F119.644
sg5
F0.050671
sg6
I4
sg7
F128.99859
sg8
S'7fe428e5-d310-3588-bd19-d19bdfdd55ad'
p1599
sg10
S'Act 1 - A Pale Horse'
p1600
sg12
F0.10044
sg13
F0.821316
sg14
F0.326761
sg15
F4.0
sg16
F-22.984
sg17
F0.024199
sg18
F0.462929240542
sa(dp1601
g3
F0.204548
sg4
F120.099
sg5
F0.057668
sg6
I4
sg7
F96.76717
sg8
S'6b8cb65e-78e5-3f62-a663-4d055ed5c2c7'
p1602
sg10
S'Act 1 - Dilatation'
p1603
sg12
F0.099077
sg13
F0.567085
sg14
F0.487259
sg15
F4.0
sg16
F-24.48
sg17
F0.06047
sg18
F0.462929240542
sa(dp1604
g3
F0.23169
sg4
F125.54
sg5
F0.049151
sg6
I4
sg7
F192.63855
sg8
S'b89de755-1283-316c-80a9-c0ddd855504c'
p1605
sg10
S'Act 1 - Interference'
p1606
sg12
F0.111478
sg13
F0.013066
sg14
F0.234742
sg15
F4.0
sg16
F-21.163
sg17
F0.039386
sg18
F0.462929240542
sa(dp1607
g3
F0.7389
sg4
F130.08
sg5
F0.282979
sg6
I4
sg7
F265.78395
sg8
S'19917937-8961-3eb0-b41d-025d18b48011'
p1608
sg10
S'Beat Hack'
p1609
sg12
F0.286727
sg13
F0.188703
sg14
F0.821577
sg15
F4.0
sg16
F-8.239
sg17
F0.728783
sg18
F0.252932913188
saa.