(lp0
(dp1
S'energy'
p2
F0.530323
sS'tempo'
p3
F127.992
sS'speechiness'
p4
F0.081922
sS'cluster'
p5
I4
sS'duration'
p6
F295.54893
sS'id'
p7
S'ddb993a3-8a6b-3168-8145-0acd753ad10f'
p8
sS'title'
p9
S'Ghosts N Stuff Remix'
p10
sS'liveness'
p11
F0.084059
sS'acousticness'
p12
F0.018114
sS'danceability'
p13
F0.725104
sS'time_signature'
p14
F4.0
sS'loudness'
p15
F-15.96
sS'valence'
p16
F0.146319
sS'artist_discovery'
p17
F0.369891385764
sa(dp18
g2
F0.675974
sg3
F91.979
sg4
F0.04044
sg5
I3
sg6
F225.42667
sg7
S'dcee26a8-3b8b-3e75-ba0c-a8f1b61f2e8b'
p19
sg9
S'Diamonds'
p20
sg11
F0.132885
sg12
F0.000943
sg13
F0.552666
sg14
F4.0
sg15
F-6.039
sg16
F0.394966
sg17
F0.382782321483
sa(dp21
g2
F0.894473
sg3
F104.07
sg4
F0.107239
sg5
I1
sg6
F220.85873
sg7
S'0d6d61c1-8c3b-39bc-a884-763db5063468'
p22
sg9
S"Ain't it fun"
p23
sg11
F0.090593
sg12
F0.168065
sg13
F0.635435
sg14
F4.0
sg15
F-3.457
sg16
F0.689844
sg17
F0.402165130573
sa(dp24
g2
F0.55471
sg3
F127.992
sg4
F0.032889
sg5
I4
sg6
F208.23955
sg7
S'b5293744-d1ba-397a-8822-d69ce6991f03'
p25
sg9
S'Without You (feat. Usher) [Instrumental]'
p26
sg11
F0.131352
sg12
F0.107283
sg13
F0.662027
sg14
F4.0
sg15
F-7.755
sg16
F0.573833
sg17
F0.442510391646
sa(dp27
g2
F0.432139
sg3
F94.605
sg4
F0.03024
sg5
I3
sg6
F153.46667
sg7
S'885e0138-aece-3341-b21f-9d72d2b3d448'
p28
sg9
S'Good Riddance [Time Of Your Life]'
p29
sg11
F0.161075
sg12
F0.183496
sg13
F0.474671
sg14
F4.0
sg15
F-7.844
sg16
F0.652337
sg17
F0.335268357972
sa(dp30
g2
F0.297943
sg3
F91.022
sg4
F0.527148
sg5
I3
sg6
F37.83478
sg7
S'73850446-8813-3ba3-bf61-2c01a14a6fed'
p31
sg9
S"Just Gettin' Started (Commentary)"
p32
sg11
F0.429997
sg12
F0.890567
sg13
F0.654191
sg14
F1.0
sg15
F-21.707
sg16
F0.860078
sg17
F0.479720260052
sa(dp33
g2
F0.467085
sg3
F169.856
sg4
F0.029088
sg5
I2
sg6
F228.09333
sg7
S'f8e1a827-13a7-3d3d-aada-a149d566a540'
p34
sg9
S'Wanted'
p35
sg11
F0.086179
sg12
F0.266414
sg13
F0.433557
sg14
F4.0
sg15
F-8.028
sg16
F0.289578
sg17
F0.528879735494
sa(dp36
g2
F0.941089
sg3
F127.987
sg4
F0.053869
sg5
I4
sg6
F185.13746
sg7
S'0ec8d22e-7779-3ef2-b59b-87af8b5f3aa9'
p37
sg9
S'Delirious (Boneless)'
p38
sg11
F0.174567
sg12
F0.020188
sg13
F0.824545
sg14
F4.0
sg15
F-6.155
sg16
F0.913341
sg17
F0.488575848496
sa(dp39
g2
F0.612865
sg3
F96.105
sg4
F0.137425
sg5
I3
sg6
F226.09288
sg7
S'3488c64b-d308-300e-a439-2bf229c6e538'
p40
sg9
S'Icky Thump'
p41
sg11
F0.061664
sg12
F0.021154
sg13
F0.421725
sg14
F4.0
sg15
F-7.15
sg16
F0.379324
sg17
F0.39649808702
sa(dp42
g2
F0.801486
sg3
F78.056
sg4
F0.211537
sg5
I3
sg6
F289.42621
sg7
S'7055dc80-0d1b-3444-9952-b033c585c965'
p43
sg9
S'Bitch Bad'
p44
sg11
F0.117005
sg12
F0.014808
sg13
F0.68861
sg14
F4.0
sg15
F-5.505
sg16
F0.220044
sg17
F0.418581939256
sa(dp45
g2
F0.05819
sg3
F84.742
sg4
F0.116
sg5
I3
sg6
F38.03755
sg7
S'073d9807-dd31-3976-a870-cf1155c8b043'
p46
sg9
S'My Sweet Summer (Commentary)'
p47
sg11
F0.247942
sg12
F0.808889
sg13
F0.532337
sg14
F3.0
sg15
F-25.514
sg16
F0.231531
sg17
F0.480232971928
sa(dp48
g2
F0.992514
sg3
F184.487
sg4
F0.348382
sg5
I2
sg6
F148.77288
sg7
S'c4e389bd-328f-33c1-b15a-ce47ff149b7a'
p49
sg9
S'Makes No Sense At All'
p50
sg11
F0.345218
sg12
F0.014667
sg13
F0.14642
sg14
F4.0
sg15
F-3.895
sg16
F0.131003
sg17
F0.477314504435
sa(dp51
g2
F0.931926
sg3
F112.631
sg4
F0.110934
sg5
I1
sg6
F278.59955
sg7
S'c124db32-ed38-3dc5-9775-a42c587c7ba3'
p52
sg9
S'Hoover Dam'
p53
sg11
F0.704776
sg12
F0.030926
sg13
F0.375139
sg14
F4.0
sg15
F-4.738
sg16
F0.383736
sg17
F0.477314504435
sa(dp54
g2
F0.988793
sg3
F110.951
sg4
F0.13355
sg5
I1
sg6
F220.65288
sg7
S'029303d6-8209-37a4-b0ca-1feff5b0950e'
p55
sg9
S'Celebrated Summer'
p56
sg11
F0.741292
sg12
F0.024074
sg13
F0.227757
sg14
F4.0
sg15
F-4.376
sg16
F0.099879
sg17
F0.477314504435
sa(dp57
g2
F0.994101
sg3
F113.77
sg4
F0.225832
sg5
I1
sg6
F198.97288
sg7
S'a6ed2d45-9a62-38ac-b021-585eeeddce10'
p58
sg9
S'I Apologize'
p59
sg11
F0.413744
sg12
F0.011545
sg13
F0.324268
sg14
F4.0
sg15
F-3.904
sg16
F0.191411
sg17
F0.477314504435
sa(dp60
g2
F0.991287
sg3
F186.134
sg4
F0.263337
sg5
I2
sg6
F193.0068
sg7
S'7ea79dcb-e203-3753-a644-fda330b40fa4'
p61
sg9
S"If I Can't Change Your Mind"
p62
sg11
F0.866208
sg12
F0.000177
sg13
F0.132623
sg14
F4.0
sg15
F-4.535
sg16
F0.268686
sg17
F0.378260564963
sa(dp63
g2
F0.926596
sg3
F122.06
sg4
F0.402797
sg5
I4
sg6
F154.90458
sg7
S'5e10ddfa-ef06-3699-a985-f2df0b25c7d9'
p64
sg9
S'Gotta Take Your Love (Re-edit)'
p65
sg11
F0.206739
sg12
F0.00408
sg13
F0.73503
sg14
F4.0
sg15
F-6.818
sg16
F0.561494
sg17
F0.411385030937
sa(dp66
g2
F0.513172
sg3
F110.144
sg4
F0.056832
sg5
I1
sg6
F357.66667
sg7
S'e18e1be5-f93a-3ffd-85ae-978e479081a6'
p67
sg9
S'Typical Situation'
p68
sg11
F0.112827
sg12
F0.223218
sg13
F0.35606
sg14
F4.0
sg15
F-9.478
sg16
F0.245124
sg17
F0.381223175296
sa(dp69
g2
F0.84503
sg3
F119.216
sg4
F0.039802
sg5
I4
sg6
F323.55955
sg7
S'84e9b70e-1f09-3911-81eb-5f16a4b95bc2'
p70
sg9
S'Help Myself'
p71
sg11
F0.985793
sg12
F0.102073
sg13
F0.51541
sg14
F4.0
sg15
F-6.906
sg16
F0.506898
sg17
F0.381223175296
sa(dp72
g2
F0.940381
sg3
F112.601
sg4
F0.069971
sg5
I1
sg6
F293.63955
sg7
S'93393bb2-5304-3d11-ab2a-44046cdb1490'
p73
sg9
S'What Would You Say'
p74
sg11
F0.974162
sg12
F0.06518
sg13
F0.570784
sg14
F4.0
sg15
F-4.551
sg16
F0.639763
sg17
F0.381223175296
sa(dp75
g2
F0.59431
sg3
F96.232
sg4
F0.054819
sg5
I3
sg6
F851.90485
sg7
S'df082f2e-8cb4-3a75-a1b3-ce473b2473d3'
p76
sg9
S'Jimi Thing'
p77
sg11
F0.49226
sg12
F0.053667
sg13
F0.480039
sg14
F4.0
sg15
F-15.76
sg16
F0.467242
sg17
F0.381223175296
sa(dp78
g2
F0.680163
sg3
F108.746
sg4
F0.050117
sg5
I1
sg6
F491.89288
sg7
S'8d5809d3-a581-3783-8563-74cf0665a4f5'
p79
sg9
S'Dancing Nancies'
p80
sg11
F0.995975
sg12
F0.631317
sg13
F0.401177
sg14
F4.0
sg15
F-10.662
sg16
F0.588296
sg17
F0.381223175296
sa(dp81
g2
F0.518542
sg3
F109.029
sg4
F0.048423
sg5
I1
sg6
F361.89333
sg7
S'99abe840-38f9-30d7-8f3a-a13f9027b1df'
p82
sg9
S'Ants Marching'
p83
sg11
F0.946814
sg12
F0.404146
sg13
F0.600029
sg14
F4.0
sg15
F-13.682
sg16
F0.762312
sg17
F0.381223175296
sa(dp84
g2
F0.478698
sg3
F102.438
sg4
F0.047663
sg5
I1
sg6
F521.27302
sg7
S'fc22a7c0-4744-30d3-8024-d0da4821b6e3'
p85
sg9
S'Say Goodbye'
p86
sg11
F0.679387
sg12
F0.252648
sg13
F0.409587
sg14
F4.0
sg15
F-17.905
sg16
F0.215042
sg17
F0.381223175296
sa(dp87
g2
F0.86857
sg3
F103.692
sg4
F0.10245
sg5
I1
sg6
F434.77451
sg7
S'babd71d5-02e8-3c06-9333-ea0c52480f8b'
p88
sg9
S'One Sweet World (2.25.10)'
p89
sg11
F0.984992
sg12
F0.064524
sg13
F0.393021
sg14
F4.0
sg15
F-6.662
sg16
F0.42208
sg17
F0.381223175296
sa(dp90
g2
F0.898703
sg3
F111.157
sg4
F0.057786
sg5
I1
sg6
F307.93333
sg7
S'f4e2ae35-1b45-3274-81cb-bf80ff983c9f'
p91
sg9
S'Halloween'
p92
sg11
F0.14228
sg12
F0.097279
sg13
F0.585067
sg14
F4.0
sg15
F-5.071
sg16
F0.449565
sg17
F0.381223175296
sa(dp93
g2
F0.757064
sg3
F98.296
sg4
F0.050496
sg5
I1
sg6
F147.53333
sg7
S'9dc5a186-5145-3615-b4c4-94daee5ce188'
p94
sg9
S'Rockaway Beach'
p95
sg11
F0.493363
sg12
F0.001155
sg13
F0.342374
sg14
F4.0
sg15
F-11.727
sg16
F0.737457
sg17
F0.29736985343
sa(dp96
g2
F0.688574
sg3
F125.016
sg4
F0.034213
sg5
I4
sg6
F212.54594
sg7
S'31c86dd6-c188-3394-8b80-90a7579fdb13'
p97
sg9
S'Perfect'
p98
sg11
F0.062257
sg12
F0.031144
sg13
F0.739505
sg14
F4.0
sg15
F-6.417
sg16
F0.881894
sg17
F0.453701273135
sa(dp99
g2
F0.647937
sg3
F170.06
sg4
F0.042408
sg5
I2
sg6
F233.89995
sg7
S'5cb669ca-8e3f-3e45-ae3c-1c0ca895f877'
p100
sg9
S'Level Up - Social Action Song'
p101
sg11
F0.110628
sg12
F0.195267
sg13
F0.512594
sg14
F1.0
sg15
F-8.075
sg16
F0.402763
sg17
F0.471455234415
sa(dp102
g2
F0.458144
sg3
F179.062
sg4
F0.168968
sg5
I2
sg6
F256.83546
sg7
S'49b64cc8-f976-3ff4-a846-e2e32b75cec1'
p103
sg9
S'Liar - Dance / Electronica Song'
p104
sg11
F0.218013
sg12
F0.88014
sg13
F0.266372
sg14
F3.0
sg15
F-10.422
sg16
F0.450179
sg17
F0.429842559251
sa(dp105
g2
F0.297548
sg3
F91.006
sg4
F0.049438
sg5
I3
sg6
F451.52608
sg7
S'535fc3b5-577e-35f7-bb18-14b923750d8a'
p106
sg9
S'Archa\xc3\xafko - Jazz With Vocals Album'
p107
sg11
F0.121774
sg12
F0.891406
sg13
F0.504315
sg14
F1.0
sg15
F-13.144
sg16
F0.393609
sg17
F0.308059832776
sa(dp108
g2
F0.892009
sg3
F119.996
sg4
F0.041597
sg5
I4
sg6
F208.22159
sg7
S'ff2c6925-d4f8-36a0-915f-5c0b737a702b'
p109
sg9
S'This Heart - Rock / Hard Rock Song'
p110
sg11
F0.269214
sg12
F0.000596
sg13
F0.496551
sg14
F4.0
sg15
F-4.496
sg16
F0.146288
sg17
F0.340148122382
sa(dp111
g2
F0.804726
sg3
F124.998
sg4
F0.042883
sg5
I4
sg6
F255.58159
sg7
S'34a9566e-cea3-3edf-9389-895f69f7fed4'
p112
sg9
S'Paradise - Country Album'
p113
sg11
F0.2892
sg12
F0.000302
sg13
F0.581093
sg14
F4.0
sg15
F-9.085
sg16
F0.302652
sg17
F0.295212838718
sa(dp114
g2
F0.278823
sg3
F132.004
sg4
F0.033259
sg5
I4
sg6
F370.52036
sg7
S'dbdaca0f-e0ab-3656-a111-097a4c8ec9da'
p115
sg9
S'Josie - Instrumental Song'
p116
sg11
F0.447561
sg12
F0.870403
sg13
F0.276762
sg14
F4.0
sg15
F-12.791
sg16
F0.129893
sg17
F0.367688608638
sa(dp117
g2
F0.267588
sg3
F75.441
sg4
F0.052888
sg5
I3
sg6
F209.6322
sg7
S'c8ea7955-e984-3761-b3a2-b17bdf46817b'
p118
sg9
S'Backslider - Roots / Country EP'
p119
sg11
F0.079599
sg12
F0.74998
sg13
F0.7144
sg14
F4.0
sg15
F-8.643
sg16
F0.520625
sg17
F0.288794606458
sa(dp120
g2
F0.202763
sg3
F85.308
sg4
F0.03079
sg5
I3
sg6
F349.67465
sg7
S'b6b5782c-25ee-3c69-aa1d-ac6ddd99644e'
p121
sg9
S'El Hombre Que Yo Ame (The Man I Love) - Jazz With Vocals Song'
p122
sg11
F0.102569
sg12
F0.783143
sg13
F0.301503
sg14
F3.0
sg15
F-12.222
sg16
F0.18832
sg17
F0.377197739029
sa(dp123
g2
F0.534603
sg3
F81.207
sg4
F0.107646
sg5
I3
sg6
F1074.20689
sg7
S'6eeee237-ef73-3475-880a-392a9ad7b9fc'
p124
sg9
S'Sivad - Tribute Album'
p125
sg11
F0.080997
sg12
F0.099222
sg13
F0.448401
sg14
F4.0
sg15
F-10.038
sg16
F0.75994
sg17
F0.243608528334
sa(dp126
g2
F0.140309
sg3
F83.415
sg4
F0.0323
sg5
I3
sg6
F167.47057
sg7
S'737d6d7c-09de-31b8-a8e7-a00cbeee32bc'
p127
sg9
S'After the Storm - Eclectic Song'
p128
sg11
F0.079365
sg12
F0.913889
sg13
F0.452551
sg14
F4.0
sg15
F-12.968
sg16
F0.137714
sg17
F0.426769848505
sa(dp129
g2
F0.277847
sg3
F129.804
sg4
F0.0288
sg5
I4
sg6
F241.84118
sg7
S'66420f56-3f91-304f-8069-28f62cff46d6'
p130
sg9
S'Silence Tonight - Holiday Song'
p131
sg11
F0.101057
sg12
F0.82698
sg13
F0.502441
sg14
F4.0
sg15
F-8.389
sg16
F0.11923
sg17
F0.258769149144
sa(dp132
g2
F0.952564
sg3
F101.034
sg4
F0.074036
sg5
I1
sg6
F186.09587
sg7
S'cf88f568-1478-3a13-824e-d40f3400a15a'
p133
sg9
S'Salvation - Spoken Word (with Music Accompaniment) Song (feat. Mr Gee)'
p134
sg11
F0.257887
sg12
F0.014799
sg13
F0.539875
sg14
F4.0
sg15
F-5.297
sg16
F0.69679
sg17
F0.425636904781
sa(dp135
g2
F0.137795
sg3
F199.056
sg4
F0.046732
sg5
I2
sg6
F273.53755
sg7
S'5e914409-006f-3792-9f05-db0f6083682e'
p136
sg9
S'Gold - Love Song'
p137
sg11
F0.102166
sg12
F0.947933
sg13
F0.361331
sg14
F4.0
sg15
F-15.258
sg16
F0.280814
sg17
F0.41102531693
sa(dp138
g2
F0.50856
sg3
F183.687
sg4
F0.067717
sg5
I2
sg6
F262.89587
sg7
S'5806ee75-98fd-36d4-9acd-3f20ed710da6'
p139
sg9
S'The Benefits of Coffee - World Traditional Album'
p140
sg11
F0.107638
sg12
F0.846371
sg13
F0.451862
sg14
F3.0
sg15
F-9.627
sg16
F0.957693
sg17
F0.303774310654
sa(dp141
g2
F0.808361
sg3
F174.584
sg4
F0.430095
sg5
I2
sg6
F166.86975
sg7
S'339488d0-c153-3acd-a8f0-398150aeb554'
p142
sg9
S'Illuminati - Rap / Hip-Hop Song'
p143
sg11
F0.169907
sg12
F0.113748
sg13
F0.526489
sg14
F4.0
sg15
F-3.962
sg16
F0.476607
sg17
F0.499532198301
sa(dp144
g2
F0.907972
sg3
F95.788
sg4
F0.067495
sg5
I3
sg6
F241.26649
sg7
S'9646c33f-985e-3a81-9deb-4690319dffed'
p145
sg9
S'Hunk - Funk / Fusion / Jam Album'
p146
sg11
F0.110004
sg12
F0.017254
sg13
F0.756042
sg14
F4.0
sg15
F-6.064
sg16
F0.906728
sg17
F0.428165490956
sa(dp147
g2
F0.29466
sg3
F97.061
sg4
F0.211026
sg5
I1
sg6
F249.59955
sg7
S'f03cb5dc-ca32-3315-82d8-7805a897b7bb'
p148
sg9
S'Evil and Crossroads - Blues Album'
p149
sg11
F0.087666
sg12
F0.119558
sg13
F0.840959
sg14
F4.0
sg15
F-14.366
sg16
F0.180929
sg17
F0.467981504505
sa(dp150
g2
F0.254349
sg3
F197.061
sg4
F0.08809
sg5
I2
sg6
F109.26975
sg7
S'94f3ee1d-be53-3709-b4ee-a80392c793c4'
p151
sg9
S"Hop up My Ladies - Children's Music Album"
p152
sg11
F0.112809
sg12
F0.882233
sg13
F0.515265
sg14
F4.0
sg15
F-13.532
sg16
F0.88931
sg17
F0.485530902477
sa(dp153
g2
F0.457669
sg3
F106.981
sg4
F0.029265
sg5
I1
sg6
F236.14649
sg7
S'33e9f510-daf4-348b-9205-6d2e0e2e97ea'
p154
sg9
S'Say Love - Contemporary Christian / Gospel Album'
p155
sg11
F0.075758
sg12
F0.162804
sg13
F0.613915
sg14
F4.0
sg15
F-7.896
sg16
F0.299011
sg17
F0.458357506423
sa(dp156
g2
F0.290651
sg3
F66.403
sg4
F0.101
sg5
I3
sg6
F465.60608
sg7
S'7620e99b-128a-3e75-b2eb-b611c728ed1a'
p157
sg9
S'C\xc3\xb3digos Secretos - Contemporary Classical Album'
p158
sg11
F0.297054
sg12
F0.907753
sg13
F0.236022
sg14
F5.0
sg15
F-20.195
sg16
F0.065556
sg17
F0.252243707039
sa(dp159
g2
F0.666091
sg3
F108.023
sg4
F0.034691
sg5
I1
sg6
F275.98322
sg7
S'f26f054e-f2f8-34d1-a0c3-0a238b1a0a9a'
p160
sg9
S'Some Nights (Cecilia) - (Orig. by Fun. / Simon & Garfunkel) - Cover Song'
p161
sg11
F0.124294
sg12
F0.23728
sg13
F0.619342
sg14
F4.0
sg15
F-5.355
sg16
F0.635094
sg17
F0.314817881956
sa(dp162
g2
F0.330485
sg3
F139.855
sg4
F0.056755
sg5
I0
sg6
F343.97995
sg7
S'c399f57d-032b-3d86-9c7b-5c8dec771928'
p163
sg9
S'Ten Thousand Feet - Metal / Hardcore Album'
p164
sg11
F0.219712
sg12
F0.000569
sg13
F0.391643
sg14
F4.0
sg15
F-29.055
sg16
F0.258227
sg17
F0.50262695251
sa(dp165
g2
F0.859017
sg3
F86.098
sg4
F0.047947
sg5
I3
sg6
F206.44526
sg7
S'1cf33da8-84cf-3639-b539-f1130cdbc6d0'
p166
sg9
S'Marinade - Pop Album'
p167
sg11
F0.092916
sg12
F0.265941
sg13
F0.660757
sg14
F4.0
sg15
F-6.908
sg16
F0.79224
sg17
F0.436224416742
sa(dp168
g2
F0.357322
sg3
F132.01
sg4
F0.037142
sg5
I4
sg6
F250.33098
sg7
S'6dc4a566-b565-3009-9ded-dd078a337893'
p169
sg9
S'Lucid See - New Age Album'
p170
sg11
F0.363376
sg12
F0.944728
sg13
F0.565485
sg14
F4.0
sg15
F-16.038
sg16
F0.075995
sg17
F0.323816808351
sa(dp171
g2
F0.538238
sg3
F112.512
sg4
F0.155705
sg5
I1
sg6
F189.41342
sg7
S'2e963965-b80e-3fbb-89d9-df28456fb41f'
p172
sg9
S'From My Blue - Dance / Electronica Album'
p173
sg11
F0.413416
sg12
F0.173612
sg13
F0.579983
sg14
F3.0
sg15
F-6.821
sg16
F0.28638
sg17
F0.429842559251
sa(dp174
g2
F0.713607
sg3
F97.285
sg4
F0.113137
sg5
I1
sg6
F351.92118
sg7
S'7be573e5-8567-3a67-9ce8-abcdc3bf0bc6'
p175
sg9
S'Umbrella - Story Song'
p176
sg11
F0.352625
sg12
F0.279494
sg13
F0.549263
sg14
F4.0
sg15
F-7.243
sg16
F0.729726
sg17
F0.296439051324
sa(dp177
g2
F0.669292
sg3
F138.059
sg4
F0.308917
sg5
I0
sg6
F286.17098
sg7
S'8f6acdb6-249a-3778-b5fb-0e39bd5834ef'
p178
sg9
S'Friday Night in the Castro - Soundtrack / Cast Recording Album'
p179
sg11
F0.881793
sg12
F0.56166
sg13
F0.363751
sg14
F4.0
sg15
F-13.189
sg16
F0.136332
sg17
F0.355862979804
sa(dp180
g2
F0.776125
sg3
F148.032
sg4
F0.04743
sg5
I0
sg6
F234.1873
sg7
S'd6169401-637f-3d94-bf9c-18db195a396b'
p181
sg9
S'Free People'
p182
sg11
F0.119301
sg12
F0.161917
sg13
F0.492447
sg14
F3.0
sg15
F-6.604
sg16
F0.310677
sg17
F0.309031421999
sa(dp183
g2
F0.916904
sg3
F94.011
sg4
F0.066357
sg5
I3
sg6
F191.4771
sg7
S'eb6f6ba3-db43-3550-9159-987c12e60eee'
p184
sg9
S'Friends Like That'
p185
sg11
F0.060781
sg12
F0.075045
sg13
F0.739115
sg14
F4.0
sg15
F-5.113
sg16
F0.673428
sg17
F0.309031421999
sa(dp186
g2
F0.509066
sg3
F125.136
sg4
F0.176429
sg5
I4
sg6
F339.04281
sg7
S'5a9bb070-cf7c-31b0-ad9e-e2f8f22aac42'
p187
sg9
S'Kick Drum High Hat (Oscilot Remix)'
p188
sg11
F0.099163
sg12
F0.628131
sg13
F0.69268
sg14
F4.0
sg15
F-10.049
sg16
F0.269535
sg17
F0.309031421999
sa(dp189
g2
F0.789953
sg3
F90.049
sg4
F0.035427
sg5
I3
sg6
F230.47791
sg7
S'bf15b6c7-9de8-3302-86ef-ac746b6ad2d7'
p190
sg9
S'Turn Out'
p191
sg11
F0.108543
sg12
F0.052505
sg13
F0.660419
sg14
F4.0
sg15
F-5.929
sg16
F0.503032
sg17
F0.309031421999
sa(dp192
g2
F0.820893
sg3
F111.968
sg4
F0.092312
sg5
I1
sg6
F229.11955
sg7
S'b0385c89-56f7-34ab-9166-169aba89413d'
p193
sg9
S'Kick Drum High Hat'
p194
sg11
F0.098917
sg12
F0.23694
sg13
F0.692355
sg14
F4.0
sg15
F-6.851
sg16
F0.613175
sg17
F0.309031421999
sa(dp195
g2
F0.87687
sg3
F139.028
sg4
F0.083271
sg5
I0
sg6
F234.21288
sg7
S'be1d0f78-a960-3868-8a32-627f276e2272'
p196
sg9
S'Gimme Sympathy'
p197
sg11
F0.111209
sg12
F0.007975
sg13
F0.449014
sg14
F4.0
sg15
F-6.496
sg16
F0.120814
sg17
F0.432251555576
sa(dp198
g2
F0.484304
sg3
F82.741
sg4
F0.522663
sg5
I3
sg6
F344.62667
sg7
S'b9093ef8-dc7a-3253-9160-1e88719fa6df'
p199
sg9
S'Fue un Placer'
p200
sg11
F0.107491
sg12
F0.710402
sg13
F0.660847
sg14
F4.0
sg15
F-10.982
sg16
F0.737358
sg17
F0.494336489301
sa(dp201
g2
F0.692904
sg3
F96.967
sg4
F0.067373
sg5
I1
sg6
F223.02621
sg7
S'973f8525-ef97-38ab-a493-e872d7ae4e96'
p202
sg9
S'De-Stress'
p203
sg11
F0.073711
sg12
F0.042693
sg13
F0.848715
sg14
F4.0
sg15
F-6.374
sg16
F0.812565
sg17
F0.451966312978
sa(dp204
g2
F0.745656
sg3
F119.58
sg4
F0.535543
sg5
I4
sg6
F200.19048
sg7
S'a3aa3a90-b9fa-3a9d-a2ec-ef4f0ed9d70b'
p205
sg9
S'Hey Mami'
p206
sg11
F0.372651
sg12
F0.268542
sg13
F0.668226
sg14
F4.0
sg15
F-6.019
sg16
F0.605725
sg17
F0.591491394823
sa(dp207
g2
F0.907509
sg3
F161.98
sg4
F0.067308
sg5
I2
sg6
F148.22354
sg7
S'aa199090-5589-38e0-8766-f3e71a11ba2a'
p208
sg9
S'Incidental'
p209
sg11
F0.472298
sg12
F2.1e-05
sg13
F0.225446
sg14
F4.0
sg15
F-3.996
sg16
F0.242289
sg17
F0.493368037261
sa(dp210
g2
F0.62988
sg3
F180.022
sg4
F0.100631
sg5
I2
sg6
F245.29333
sg7
S'a5b1f791-c064-3fed-b4a8-a2aac1ad5865'
p211
sg9
S'Outta Control'
p212
sg11
F0.094756
sg12
F0.053409
sg13
F0.67432
sg14
F4.0
sg15
F-6.915
sg16
F0.665613
sg17
F0.451966312978
sa(dp213
g2
F0.953151
sg3
F126.972
sg4
F0.086297
sg5
I4
sg6
F207.16
sg7
S'75b8179a-54a1-3b6c-ae8f-4cdb5cb6691b'
p214
sg9
S'Resist and Bite'
p215
sg11
F0.08443
sg12
F0.001557
sg13
F0.519022
sg14
F4.0
sg15
F-4.974
sg16
F0.146739
sg17
F0.494394022608
sa(dp216
g2
F0.968154
sg3
F93.003
sg4
F0.095734
sg5
I3
sg6
F220.54417
sg7
S'0c1097ac-04b0-34a5-98bf-8d32f29242e9'
p217
sg9
S'Wings of Feather and Wax'
p218
sg11
F0.4172
sg12
F3.6e-05
sg13
F0.284543
sg14
F4.0
sg15
F-3.61
sg16
F0.271349
sg17
F0.497283353589
sa(dp219
g2
F0.980131
sg3
F77.534
sg4
F0.068006
sg5
I3
sg6
F256.05288
sg7
S'637d7064-9d66-3876-ab72-7fb2781b6d4f'
p220
sg9
S'War Eternal'
p221
sg11
F0.158163
sg12
F2.6e-05
sg13
F0.449604
sg14
F4.0
sg15
F-4.417
sg16
F0.28886
sg17
F0.38077133381
sa(dp222
g2
F0.959983
sg3
F108.954
sg4
F0.085962
sg5
I1
sg6
F212.81288
sg7
S'6a484194-691d-3847-b306-39827a3619ca'
p223
sg9
S'Cranial Infestation'
p224
sg11
F0.296731
sg12
F2.1e-05
sg13
F0.501709
sg14
F4.0
sg15
F-4.01
sg16
F0.275059
sg17
F0.422090060039
sa(dp225
g2
F0.868215
sg3
F81.998
sg4
F0.062184
sg5
I3
sg6
F210.88608
sg7
S'b72ed82e-c339-37c4-8f5a-70fa017a8f30'
p226
sg9
S'Cross To Bier (Cradle Of Bones)'
p227
sg11
F0.517085
sg12
F0.000274
sg13
F0.5105
sg14
F4.0
sg15
F-14.681
sg16
F0.544752
sg17
F0.392872501165
sa(dp228
g2
F0.934838
sg3
F166.519
sg4
F0.101636
sg5
I2
sg6
F256.35129
sg7
S'85966ae0-0be4-3501-b966-505b6397538a'
p229
sg9
S'Salted Crypts'
p230
sg11
F0.124772
sg12
F2e-06
sg13
F0.119067
sg14
F4.0
sg15
F-3.882
sg16
F0.134686
sg17
F0.482543662106
sa(dp231
g2
F0.987215
sg3
F124.999
sg4
F0.206413
sg5
I4
sg6
F172.75955
sg7
S'ce3ae340-f261-3ae7-8b58-0a62c1b1feba'
p232
sg9
S'Nemesis'
p233
sg11
F0.32788
sg12
F0.00163
sg13
F0.522515
sg14
F3.0
sg15
F-4.422
sg16
F0.136847
sg17
F0.435912967294
sa(dp234
g2
F0.782148
sg3
F86.514
sg4
F0.068175
sg5
I3
sg6
F137.79546
sg7
S'af40c6d8-c6be-394e-9448-54405ffdc984'
p235
sg9
S'Should Know Better'
p236
sg11
F0.386217
sg12
F0.000692
sg13
F0.414877
sg14
F4.0
sg15
F-13.638
sg16
F0.365228
sg17
F0.415289445036
sa(dp237
g2
F0.977573
sg3
F112.527
sg4
F0.190583
sg5
I1
sg6
F341.95955
sg7
S'de9dcb68-9d4e-38cd-bfec-0bef7ad294f7'
p238
sg9
S'Inferno'
p239
sg11
F0.354615
sg12
F1.2e-05
sg13
F0.17929
sg14
F4.0
sg15
F-4.45
sg16
F0.103992
sg17
F0.390103771643
sa(dp240
g2
F0.775976
sg3
F107.27
sg4
F0.061249
sg5
I1
sg6
F218.38621
sg7
S'd3a84d11-8455-3602-8cd6-cd4c498dec2b'
p241
sg9
S'Robitussin and Rejection'
p242
sg11
F0.20043
sg12
F1.3e-05
sg13
F0.200381
sg14
F4.0
sg15
F-4.7
sg16
F0.154389
sg17
F0.402066108118
sa(dp243
g2
F0.909857
sg3
F154.915
sg4
F0.094088
sg5
I0
sg6
F210.49288
sg7
S'a4cd26c2-3708-30f6-865d-31dc36d7a333'
p244
sg9
S'Qwerty'
p245
sg11
F0.162619
sg12
F0.014908
sg13
F0.539303
sg14
F4.0
sg15
F-5.047
sg16
F0.452981
sg17
F0.426210969833
sa(dp246
g2
F0.996089
sg3
F149.949
sg4
F0.182938
sg5
I0
sg6
F193.59955
sg7
S'7754a68c-4fad-359b-b717-0cea76af8e18'
p247
sg9
S'Demented Aggression'
p248
sg11
F0.045247
sg12
F0.000749
sg13
F0.410649
sg14
F4.0
sg15
F-5.313
sg16
F0.217743
sg17
F0.366528583775
sa(dp249
g2
F0.498321
sg3
F171.391
sg4
F0.331284
sg5
I2
sg6
F422.78082
sg7
S'ff821a97-d9d6-3fbf-a8a6-9da19a069eb2'
p250
sg9
S'Destiny'
p251
sg11
F0.065317
sg12
F0.105111
sg13
F0.625656
sg14
F4.0
sg15
F-6.926
sg16
F0.438188
sg17
F0.439177508455
sa(dp252
g2
F0.335257
sg3
F95.476
sg4
F0.852061
sg5
I3
sg6
F400.02621
sg7
S'59a9ef7d-fbc0-3a57-a8c0-9988bef72bd6'
p253
sg9
S"Headbruisin'"
p254
sg11
F0.261666
sg12
F0.158095
sg13
F0.672288
sg14
F4.0
sg15
F-14.786
sg16
F0.604699
sg17
F0.439177508455
sa(dp255
g2
F0.586208
sg3
F102.26
sg4
F0.091712
sg5
I1
sg6
F221.30041
sg7
S'f8ccf270-0bae-3a23-ab2f-7d6ad5168bca'
p256
sg9
S'Face the Music'
p257
sg11
F0.314415
sg12
F0.01875
sg13
F0.832224
sg14
F4.0
sg15
F-8.12
sg16
F0.283424
sg17
F0.439177508455
sa(dp258
g2
F0.577071
sg3
F120.098
sg4
F0.042635
sg5
I4
sg6
F306.0
sg7
S'70a9bc1e-7e9f-3c7d-85f1-771e33653c5f'
p259
sg9
S'The Book Monument'
p260
sg11
F0.12797
sg12
F0.928356
sg13
F0.241849
sg14
F4.0
sg15
F-8.908
sg16
F0.092613
sg17
F0.25991974052
sa(dp261
g2
F0.623371
sg3
F93.813
sg4
F0.419143
sg5
I3
sg6
F144.41288
sg7
S'2e4758f4-2acc-3676-b36a-2ebc2ac4f9ed'
p262
sg9
S'Who Is That?'
p263
sg11
F0.046026
sg12
F0.013114
sg13
F0.858586
sg14
F4.0
sg15
F-12.361
sg16
F0.506969
sg17
F0.439177508455
sa(dp264
g2
F0.547328
sg3
F179.823
sg4
F0.418312
sg5
I2
sg6
F327.87955
sg7
S'506ac477-cca7-3c62-84e1-bbf9f8a8ff5e'
p265
sg9
S'Even Greater'
p266
sg11
F0.128086
sg12
F0.299483
sg13
F0.741572
sg14
F4.0
sg15
F-8.768
sg16
F0.832925
sg17
F0.439177508455
sa(dp267
g2
F0.560708
sg3
F95.988
sg4
F0.306293
sg5
I3
sg6
F302.19955
sg7
S'fddeae8f-cfcb-3979-8beb-56a5b8048a52'
p268
sg9
S"Sent One's Anthem"
p269
sg11
F0.100928
sg12
F0.687641
sg13
F0.85236
sg14
F4.0
sg15
F-9.562
sg16
F0.904397
sg17
F0.439177508455
sa(dp270
g2
F0.718284
sg3
F87.107
sg4
F0.364325
sg5
I3
sg6
F154.85134
sg7
S'099f17ae-0ef4-35b9-9127-4b998daccf1e'
p271
sg9
S'Cold Day'
p272
sg11
F0.11976
sg12
F0.181141
sg13
F0.699485
sg14
F4.0
sg15
F-4.223
sg16
F0.888557
sg17
F0.418464065701
sa(dp273
g2
F0.943235
sg3
F126.066
sg4
F0.036638
sg5
I4
sg6
F202.13288
sg7
S'dc25e77c-3e4f-3586-94b8-a28afa1e3524'
p274
sg9
S'Say What You Mean'
p275
sg11
F0.723171
sg12
F0.044206
sg13
F0.511998
sg14
F4.0
sg15
F-3.346
sg16
F0.961883
sg17
F0.257350533155
sa(dp276
g2
F0.62196
sg3
F116.722
sg4
F0.026709
sg5
I4
sg6
F195.77692
sg7
S'4aef81ec-8a4f-3f11-8cac-8c56f34fee73'
p277
sg9
S'Do You Love Me Like You Used To'
p278
sg11
F0.351945
sg12
F0.003469
sg13
F0.618934
sg14
F4.0
sg15
F-6.153
sg16
F0.632316
sg17
F0.468873175959
sa(dp279
g2
F0.526636
sg3
F106.317
sg4
F0.025082
sg5
I1
sg6
F232.47302
sg7
S'e6afae31-b9f0-3046-b927-79f57266f01a'
p280
sg9
S'How They Want Me To Be'
p281
sg11
F0.138389
sg12
F0.534604
sg13
F0.52702
sg14
F4.0
sg15
F-8.38
sg16
F0.325479
sg17
F0.468873175959
sa(dp282
g2
F0.515314
sg3
F94.659
sg4
F0.025284
sg5
I3
sg6
F213.22621
sg7
S'b16ff455-be8f-3e75-a41e-15395ebf85e1'
p283
sg9
S'Last Year'
p284
sg11
F0.10218
sg12
F0.004788
sg13
F0.501094
sg14
F3.0
sg15
F-7.374
sg16
F0.616961
sg17
F0.468873175959
sa(dp285
g2
F0.875429
sg3
F115.101
sg4
F0.052552
sg5
I1
sg6
F149.81288
sg7
S'5b6ff226-5e1f-376a-8c03-460b960549ac'
p286
sg9
S'Boyfriend'
p287
sg11
F0.147798
sg12
F0.120742
sg13
F0.251596
sg14
F4.0
sg15
F-3.864
sg16
F0.584839
sg17
F0.468873175959
sa(dp288
g2
F0.80422
sg3
F105.455
sg4
F0.029271
sg5
I1
sg6
F162.66621
sg7
S'e25de644-5643-31e7-b874-bf6d9b8a2ce3'
p289
sg9
S'The Only Place'
p290
sg11
F0.193944
sg12
F0.001398
sg13
F0.551381
sg14
F4.0
sg15
F-6.549
sg16
F0.708936
sg17
F0.468873175959
sa(dp291
g2
F0.533767
sg3
F82.418
sg4
F0.023963
sg5
I3
sg6
F246.93288
sg7
S'131fdeef-c2f1-30c7-a816-79069193af9a'
p292
sg9
S'Wasted Days And Wasted Nights'
p293
sg11
F0.065932
sg12
F0.20243
sg13
F0.633677
sg14
F4.0
sg15
F-6.097
sg16
F0.401249
sg17
F0.40997164097
sa(dp294
g2
F0.954097
sg3
F125.976
sg4
F0.035354
sg5
I4
sg6
F204.46621
sg7
S'1b05d254-1b98-3364-9e4e-6df7063f1e15'
p295
sg9
S"You Don't Know Me"
p296
sg11
F0.103009
sg12
F0.00277
sg13
F0.559183
sg14
F4.0
sg15
F-3.943
sg16
F0.930714
sg17
F0.390633729011
sa(dp297
g2
F0.907509
sg3
F161.98
sg4
F0.067308
sg5
I2
sg6
F148.22354
sg7
S'5592eb40-c09d-334c-a888-e06820fe4c2e'
p298
sg9
g209
sg11
F0.472298
sg12
F2.1e-05
sg13
F0.225446
sg14
F4.0
sg15
F-3.996
sg16
F0.242289
sg17
F0.493368037261
sa(dp299
g2
F0.705751
sg3
F140.03
sg4
F0.082625
sg5
I0
sg6
F125.99955
sg7
S'04b33997-2081-39a6-8738-6ec26f33f2db'
p300
sg9
S'Dead Pinky'
p301
sg11
F0.233171
sg12
F0.071466
sg13
F0.438953
sg14
F4.0
sg15
F-9.631
sg16
F0.198898
sg17
F0.254321855023
sa(dp302
g2
F0.407223
sg3
F113.017
sg4
F0.072577
sg5
I1
sg6
F74.77288
sg7
S'a5c7813b-486d-3756-b3ae-7e2d5adcf30b'
p303
sg9
S'"Design Obsession" from Insignia'
p304
sg11
F0.198817
sg12
F0.00152
sg13
F0.714951
sg14
F4.0
sg15
F-16.247
sg16
F0.276962
sg17
F0.273430095496
sa(dp305
g2
F0.039854
sg3
F62.519
sg4
F0.043539
sg5
I3
sg6
F42.10621
sg7
S'd30909a0-db68-3d4a-a929-35ef9c41e09e'
p306
sg9
S'"Last Dance" from Insignia'
p307
sg11
F0.083872
sg12
F0.912285
sg13
F0.203489
sg14
F4.0
sg15
F-25.057
sg16
F0.098357
sg17
F0.273430095496
sa(dp308
g2
F0.073962
sg3
F110.999
sg4
F0.058726
sg5
I1
sg6
F91.31955
sg7
S'846e4a01-3752-371d-a840-1b63dc42f99f'
p309
sg9
S'"The Retrospective / End Credits" from Insignia'
p310
sg11
F0.070995
sg12
F0.984689
sg13
F0.468001
sg14
F3.0
sg15
F-23.537
sg16
F0.243531
sg17
F0.273430095496
sa(dp311
g2
F0.028413
sg3
F73.345
sg4
F0.040851
sg5
I3
sg6
F67.14621
sg7
S'e42fc942-8835-3afb-b03d-75d5ac6644a3'
p312
sg9
S'"Hands In Blood" from Insignia'
p313
sg11
F0.14579
sg12
F0.981716
sg13
F0.084938
sg14
F3.0
sg15
F-28.263
sg16
F0.019146
sg17
F0.273430095496
sa(dp314
g2
F0.177545
sg3
F110.319
sg4
F0.055385
sg5
I1
sg6
F121.70621
sg7
S'f573b191-ca21-31a1-9594-47e22958707e'
p315
sg9
S'Good Christian Friends  Rejoice'
p316
sg11
F0.097516
sg12
F0.984475
sg13
F0.55923
sg14
F4.0
sg15
F-15.477
sg16
F0.462483
sg17
F0.354734404735
sa(dp317
g2
F0.784997
sg3
F129.99
sg4
F0.066059
sg5
I4
sg6
F247.63224
sg7
S'350a9f5e-4fff-3164-b493-98c2586129e9'
p318
sg9
S'Fall Back In'
p319
sg11
F0.123024
sg12
F0.029019
sg13
F0.787743
sg14
F4.0
sg15
F-3.942
sg16
F0.774422
sg17
F0.309731157687
sa(dp320
g2
F0.072824
sg3
F116.917
sg4
F0.044037
sg5
I4
sg6
F233.83955
sg7
S'ff796f66-63d9-33c2-8bea-79d8971540a5'
p321
sg9
S'Far Over the Misty Mountains Cold'
p322
sg11
F0.330526
sg12
F0.906649
sg13
F0.564542
sg14
F4.0
sg15
F-16.614
sg16
F0.158143
sg17
F0.338486369779
sa(dp323
g2
F0.017179
sg3
F81.851
sg4
F0.036504
sg5
I3
sg6
F331.81288
sg7
S'b2f22c1c-b12f-3125-a86c-696f12950412'
p324
sg9
S'Ellens Gesang III (Ave Maria)  S558 no.12 (after Schubert\xe2\x80\x99s D839)'
p325
sg11
F0.073908
sg12
F0.992143
sg13
F0.198088
sg14
F3.0
sg15
F-29.981
sg16
F0.038902
sg17
F0.559777263004
sa(dp326
g2
F0.647525
sg3
F95.995
sg4
F0.30353
sg5
I3
sg6
F210.03955
sg7
S'378da4e3-635c-337a-83ce-b0a9a5f3a1f5'
p327
sg9
S'Anti Square'
p328
sg11
F0.137166
sg12
F0.086541
sg13
F0.918851
sg14
F4.0
sg15
F-7.502
sg16
F0.434724
sg17
F0.394952520631
sa(dp329
g2
F0.421042
sg3
F141.076
sg4
F0.030858
sg5
I0
sg6
F266.79955
sg7
S'41095070-d713-3b0d-9445-edd7d3591b60'
p330
sg9
S'Alone'
p331
sg11
F0.093374
sg12
F0.775325
sg13
F0.551884
sg14
F4.0
sg15
F-10.505
sg16
F0.34217
sg17
F0.462073569169
sa(dp332
g2
F0.886183
sg3
F110.015
sg4
F0.025166
sg5
I1
sg6
F211.57288
sg7
S'a4b325f1-921c-347d-9d9e-6be6e95e2b30'
p333
sg9
S'Modern Love'
p334
sg11
F0.208591
sg12
F0.052954
sg13
F0.740648
sg14
F4.0
sg15
F-3.459
sg16
F0.973866
sg17
F0.499727972349
sa(dp335
g2
F0.850832
sg3
F107.018
sg4
F0.038588
sg5
I1
sg6
F208.27955
sg7
S'b272c043-9dbe-3b3b-b8ad-cefa95842f8b'
p336
sg9
S'Faster'
p337
sg11
F0.333886
sg12
F0.009181
sg13
F0.742982
sg14
F4.0
sg15
F-4.17
sg16
F0.953739
sg17
F0.499727972349
sa(dp338
g2
F0.614492
sg3
F92.024
sg4
F0.029353
sg5
I3
sg6
F216.95955
sg7
S'549acc18-f405-3b46-bf24-13a227bb71bc'
p339
sg9
S'Come On Get Higher'
p340
sg11
F0.092467
sg12
F0.240732
sg13
F0.678666
sg14
F4.0
sg15
F-5.699
sg16
F0.611898
sg17
F0.499727972349
sa(dp341
g2
F0.410028
sg3
F153.888
sg4
F0.02767
sg5
I0
sg6
F201.21288
sg7
S'd5c3746e-008b-3008-8399-d82f1084f966'
p342
sg9
S'Kept'
p343
sg11
F0.09704
sg12
F0.506025
sg13
F0.489147
sg14
F4.0
sg15
F-9.398
sg16
F0.432331
sg17
F0.499727972349
sa(dp344
g2
F0.858754
sg3
F76.02
sg4
F0.061065
sg5
I3
sg6
F181.89288
sg7
S'7c55df05-3cf5-3269-a6c4-9d1004b4a2e5'
p345
sg9
S'To The Beat Of Our Noisy Hearts'
p346
sg11
F0.150731
sg12
F0.000719
sg13
F0.588833
sg14
F4.0
sg15
F-4.465
sg16
F0.659838
sg17
F0.499727972349
sa(dp347
g2
F0.893739
sg3
F119.844
sg4
F0.028386
sg5
I4
sg6
F182.82621
sg7
S'2987036f-fbf7-331a-9d61-ddef79fcef92'
p348
sg9
S'Laid'
p349
sg11
F0.243777
sg12
F0.004303
sg13
F0.558825
sg14
F4.0
sg15
F-5.477
sg16
F0.71016
sg17
F0.499727972349
sa(dp350
g2
F0.465141
sg3
F85.994
sg4
F0.024424
sg5
I3
sg6
F231.59955
sg7
S'e5cafe5e-d38f-393b-9e55-d772e1d25680'
p351
sg9
S'Still'
p352
sg11
F0.126078
sg12
F0.026345
sg13
F0.679692
sg14
F4.0
sg15
F-6.545
sg16
F0.394214
sg17
F0.499727972349
sa(dp353
g2
F0.617277
sg3
F136.144
sg4
F0.028122
sg5
I0
sg6
F242.85995
sg7
S'd59ead91-44ac-3fc6-9d25-f099529a0a0b'
p354
sg9
S'Donna'
p355
sg11
F0.17607
sg12
F0.618205
sg13
F0.523574
sg14
F4.0
sg15
F-7.697
sg16
F0.276643
sg17
F0.472619405113
sa(dp356
g2
F0.361185
sg3
F81.89
sg4
F0.026112
sg5
I3
sg6
F231.71955
sg7
S'1f413f49-a91b-370a-b4e6-9d48134a422b'
p357
sg9
S'Two Pillow Sleeper'
p358
sg11
F0.290802
sg12
F0.603588
sg13
F0.42482
sg14
F3.0
sg15
F-9.283
sg16
F0.433368
sg17
F0.525710177304
sa(dp359
g2
F0.874142
sg3
F119.999
sg4
F0.032881
sg5
I4
sg6
F214.46621
sg7
S'ae19fc3a-dc55-310b-bd54-4798435bb97e'
p360
sg9
S'Lover'
p361
sg11
F0.568388
sg12
F0.042621
sg13
F0.674652
sg14
F4.0
sg15
F-6.328
sg16
F0.613576
sg17
F0.462164413163
sa(dp362
g2
F0.141038
sg3
F131.177
sg4
F0.029386
sg5
I4
sg6
F303.81288
sg7
S'12b3d8e5-55b4-3479-bfec-2abcff1ee85e'
p363
sg9
S'Find my Blood'
p364
sg11
F0.10927
sg12
F0.785069
sg13
F0.327569
sg14
F4.0
sg15
F-14.161
sg16
F0.056818
sg17
F0.487310865283
sa(dp365
g2
F0.777306
sg3
F115.046
sg4
F0.032536
sg5
I1
sg6
F236.34621
sg7
S'd847ea0c-bf52-3b59-b73d-5d81982d54ff'
p366
sg9
S"sponge won't soak"
p367
sg11
F0.110958
sg12
F0.002559
sg13
F0.662103
sg14
F4.0
sg15
F-6.244
sg16
F0.599511
sg17
F0.517026255554
sa(dp368
g2
F0.620529
sg3
F112.108
sg4
F0.039441
sg5
I1
sg6
F208.46621
sg7
S'1a5c0e6f-82be-36d8-91de-d2a2554be77d'
p369
sg9
S'Stranger'
p370
sg11
F0.146026
sg12
F0.885592
sg13
F0.684984
sg14
F4.0
sg15
F-9.26
sg16
F0.935729
sg17
F0.478355424422
sa(dp371
g2
F0.457495
sg3
F111.244
sg4
F0.041163
sg5
I1
sg6
F201.79546
sg7
S'8d06631c-7449-3515-a1a4-fef63a95cbae'
p372
sg9
S'Hit Me'
p373
sg11
F0.095937
sg12
F0.001244
sg13
F0.630803
sg14
F4.0
sg15
F-16.315
sg16
F0.601079
sg17
F0.418299168636
sa(dp374
g2
F0.64054
sg3
F107.877
sg4
F0.029804
sg5
I1
sg6
F201.66621
sg7
S'a8e6ac1c-5e12-3f1d-9b57-6bbb5c263b4a'
p375
sg9
S'Right Time'
p376
sg11
F0.350808
sg12
F0.08893
sg13
F0.563225
sg14
F4.0
sg15
F-8.231
sg16
F0.495171
sg17
F0.497233581082
sa(dp377
g2
F0.549929
sg3
F98.193
sg4
F0.035171
sg5
I1
sg6
F208.02621
sg7
S'9dfdda01-73b3-3719-ae24-2c35aab478f6'
p378
sg9
S'Unrevenged'
p379
sg11
F0.075143
sg12
F0.170879
sg13
F0.684711
sg14
F4.0
sg15
F-8.712
sg16
F0.292736
sg17
F0.51372479895
sa(dp380
g2
F0.506636
sg3
F134.936
sg4
F0.026268
sg5
I0
sg6
F252.49288
sg7
S'5b5d8d87-9ca0-392a-b544-5ec4a5c9d2d7'
p381
sg9
S'Different Shade Of Red'
p382
sg11
F0.102264
sg12
F0.009344
sg13
F0.573576
sg14
F4.0
sg15
F-5.43
sg16
F0.603208
sg17
F0.474687038208
sa(dp383
g2
F0.13315
sg3
F126.905
sg4
F0.033032
sg5
I4
sg6
F220.98621
sg7
S'd1dc6fe5-fb35-32a1-a67d-4dd86e649ef6'
p384
sg9
S'Ludlow'
p385
sg11
F0.088999
sg12
F0.824933
sg13
F0.36469
sg14
F4.0
sg15
F-15.546
sg16
F0.101451
sg17
F0.490858362488
sa(dp386
g2
F0.548535
sg3
F139.525
sg4
F0.037508
sg5
I0
sg6
F230.11955
sg7
S'73bf8248-3875-318b-a811-db6d72942e3d'
p387
sg9
S'Only Lies'
p388
sg11
F0.125204
sg12
F0.395932
sg13
F0.387991
sg14
F4.0
sg15
F-8.521
sg16
F0.147995
sg17
F0.494146463382
sa(dp389
g2
F0.443327
sg3
F92.258
sg4
F0.024767
sg5
I3
sg6
F183.2795
sg7
S'461d1d96-7c26-3592-8afa-610742549e7e'
p390
sg9
S'Ways'
p391
sg11
F0.108683
sg12
F0.454248
sg13
F0.717906
sg14
F4.0
sg15
F-8.245
sg16
F0.52181
sg17
F0.64037206414
sa(dp392
g2
F0.426062
sg3
F177.179
sg4
F0.191555
sg5
I2
sg6
F199.14621
sg7
S'88be37f6-4696-3412-8551-81c604097870'
p393
sg9
S"Blood 'n Guts"
p394
sg11
F0.11045
sg12
F0.654086
sg13
F0.558161
sg14
F4.0
sg15
F-13.593
sg16
F0.604167
sg17
F0.454363175724
sa(dp395
g2
F0.816441
sg3
F127.044
sg4
F0.040027
sg5
I4
sg6
F186.91955
sg7
S'8992c4f2-a827-3548-87db-9ea21e45da09'
p396
sg9
S'The Outsider'
p397
sg11
F0.10724
sg12
F0.489502
sg13
F0.64367
sg14
F4.0
sg15
F-6.178
sg16
F0.508096
sg17
F0.511730656842
sa(dp398
g2
F0.8866
sg3
F106.12
sg4
F0.037407
sg5
I1
sg6
F183.0
sg7
S'6b8c4ea3-73e3-32a7-9a4c-6aafd8911cd3'
p399
sg9
S'The Lash Of The Whip'
p400
sg11
F0.069147
sg12
F0.004871
sg13
F0.452122
sg14
F4.0
sg15
F-3.034
sg16
F0.51473
sg17
F0.486346127806
sa(dp401
g2
F0.610707
sg3
F123.051
sg4
F0.030626
sg5
I4
sg6
F254.32844
sg7
S'63adf7a4-4620-324e-94d8-28cc38b142a5'
p402
sg9
S'Autumn Grove'
p403
sg11
F0.096732
sg12
F0.029384
sg13
F0.73506
sg14
F4.0
sg15
F-9.227
sg16
F0.628484
sg17
F0.461595818091
sa(dp404
g2
F0.871067
sg3
F126.014
sg4
F0.036651
sg5
I4
sg6
F310.74621
sg7
S'ee406264-9cd6-3814-a062-1f8fb85b6643'
p405
sg9
S'Go Out On The Town'
p406
sg11
F0.068646
sg12
F0.093019
sg13
F0.773837
sg14
F4.0
sg15
F-4.128
sg16
F0.596553
sg17
F0.421573562199
sa(dp407
g2
F0.62258
sg3
F90.016
sg4
F0.029875
sg5
I3
sg6
F327.00082
sg7
S'98f8049e-b6e7-3715-a419-02811231bf93'
p408
sg9
S'\xd0\x91\xd0\xb5\xd0\xb7\xd0\xb2\xd0\xbe\xd0\xb7\xd0\xb4\xd1\x83\xd1\x88\xd0\xbd\xd0\xb0\xd1\x8f \xd1\x82\xd1\x80\xd0\xb5\xd0\xb2\xd0\xbe\xd0\xb3\xd0\xb0'
p409
sg11
F0.127639
sg12
F0.53567
sg13
F0.525848
sg14
F4.0
sg15
F-4.931
sg16
F0.358499
sg17
F0.571071436124
sa(dp410
g2
F0.973737
sg3
F108.955
sg4
F0.079588
sg5
I1
sg6
F208.4683
sg7
S'db47b36f-3cb0-3dd4-8550-9777d7f0f0a4'
p411
sg9
S'Moonlight Equilibrium'
p412
sg11
F0.336811
sg12
F3e-05
sg13
F0.477216
sg14
F4.0
sg15
F-6.292
sg16
F0.328289
sg17
F0.380335878318
sa(dp413
g2
F0.640353
sg3
F100.007
sg4
F0.0271
sg5
I1
sg6
F270.23601
sg7
S'770eb6c9-c171-3738-81cc-bb072ba47a30'
p414
sg9
S'\xd0\xa5\xd0\xb8\xd0\xbf\xd1\x81\xd1\x82\xd0\xb5\xd1\x80'
p415
sg11
F0.105663
sg12
F0.004025
sg13
F0.498416
sg14
F4.0
sg15
F-6.827
sg16
F0.209346
sg17
F0.571071436124
sa(dp416
g2
F0.316235
sg3
F100.442
sg4
F0.052565
sg5
I1
sg6
F207.33342
sg7
S'6201f05f-de98-3365-85fa-40ab7cef65b8'
p417
sg9
S"When We're Fire"
p418
sg11
F0.096808
sg12
F0.121053
sg13
F0.743483
sg14
F4.0
sg15
F-20.382
sg16
F0.153389
sg17
F0.665735656125
sa(dp419
g2
F0.765785
sg3
F112.014
sg4
F0.042008
sg5
I1
sg6
F187.82222
sg7
S'3dedb740-1058-3755-a7ac-321d27265143'
p420
sg9
S'Let the Good Times Roll'
p421
sg11
F0.926332
sg12
F0.180748
sg13
F0.652282
sg14
F4.0
sg15
F-4.844
sg16
F0.511869
sg17
F0.50106936713
sa(dp422
g2
F0.148782
sg3
F125.925
sg4
F0.038159
sg5
I4
sg6
F265.46621
sg7
S'0e118798-e640-3d08-9bdc-f799480d7651'
p423
sg9
S'Autumn - Dual Piano'
p424
sg11
F0.098949
sg12
F0.978796
sg13
F0.356202
sg14
F4.0
sg15
F-21.435
sg16
F0.151527
sg17
F0.553378844811
sa(dp425
g2
F0.248191
sg3
F100.067
sg4
F0.031263
sg5
I1
sg6
F186.41288
sg7
S'babaa23b-b9a0-3232-a992-b8a09532937a'
p426
sg9
S'White Dove'
p427
sg11
F0.111155
sg12
F0.789648
sg13
F0.24073
sg14
F4.0
sg15
F-12.185
sg16
F0.232742
sg17
F0.553378844811
sa(dp428
g2
F0.0807
sg3
F114.707
sg4
F0.038507
sg5
I1
sg6
F173.41823
sg7
S'14382c26-fb68-324a-9800-3036083e4d53'
p429
sg9
S'Pastel Garden'
p430
sg11
F0.119636
sg12
F0.988842
sg13
F0.437436
sg14
F3.0
sg15
F-22.448
sg16
F0.307531
sg17
F0.553378844811
sa(dp431
g2
F0.82051
sg3
F135.0
sg4
F0.074995
sg5
I0
sg6
F206.72218
sg7
S'4de0065f-8690-33ea-b8e8-6d8d6effe370'
p432
sg9
S'Right Words'
p433
sg11
F0.302008
sg12
F0.0568
sg13
F0.723309
sg14
F4.0
sg15
F-4.958
sg16
F0.559721
sg17
F0.489884858802
sa(dp434
g2
F0.740594
sg3
F125.013
sg4
F0.038508
sg5
I4
sg6
F256.8185
sg7
S'db16de94-035e-37b2-b3e2-0c4650f2f98a'
p435
sg9
S'Stars Align'
p436
sg11
F0.07889
sg12
F0.149274
sg13
F0.737322
sg14
F4.0
sg15
F-6.523
sg16
F0.353082
sg17
F0.379715686017
sa(dp437
g2
F0.799582
sg3
F126.964
sg4
F0.12965
sg5
I4
sg6
F426.23955
sg7
S'e28a950a-1fc5-37e1-b711-167d162ba0bf'
p438
sg9
S'Turn It Down'
p439
sg11
F0.308138
sg12
F0.003516
sg13
F0.548635
sg14
F4.0
sg15
F-7.933
sg16
F0.413483
sg17
F0.379715686017
sa(dp440
g2
F0.85109
sg3
F127.875
sg4
F0.060461
sg5
I4
sg6
F258.28136
sg7
S'fd34b2f7-8b40-3f95-bbdb-eab6dc9cf753'
p441
sg9
S'Last Chance'
p442
sg11
F0.107059
sg12
F0.061341
sg13
F0.412526
sg14
F4.0
sg15
F-4.69
sg16
F0.17511
sg17
F0.379715686017
sa(dp443
g2
F0.835398
sg3
F125.604
sg4
F0.07576
sg5
I4
sg6
F230.02848
sg7
S'824c90ad-8786-35c8-9970-8582ca5e6230'
p444
sg9
S'No One Knows Who We Are'
p445
sg11
F0.059555
sg12
F0.023366
sg13
F0.39337
sg14
F4.0
sg15
F-4.703
sg16
F0.190495
sg17
F0.379715686017
sa(dp446
g2
F0.8482
sg3
F126.989
sg4
F0.04318
sg5
I4
sg6
F224.35701
sg7
S'e0a14ae1-b662-3772-a305-41be14f5f198'
p447
sg9
S'Be Still'
p448
sg11
F0.111696
sg12
F0.011653
sg13
F0.499012
sg14
F4.0
sg15
F-4.89
sg16
F0.291113
sg17
F0.379715686017
sa(dp449
g2
F0.882721
sg3
F128.028
sg4
F0.324103
sg5
I4
sg6
F63.69556
sg7
S'168b3c52-6c2b-3532-94d6-4bc1665b4d58'
p450
sg9
S'Move For Me'
p451
sg11
F0.693154
sg12
F0.002647
sg13
F0.725007
sg14
F4.0
sg15
F-7.033
sg16
F0.270649
sg17
F0.379715686017
sa(dp452
g2
F0.222482
sg3
F124.805
sg4
F0.031876
sg5
I4
sg6
F294.95728
sg7
S'eb15d59a-fcee-31e5-9fe1-6220c182acf8'
p453
sg9
S"Room for Happiness (Kaskade's Ice Mix)"
p454
sg11
F0.415936
sg12
F0.846266
sg13
F0.417127
sg14
F4.0
sg15
F-9.595
sg16
F0.158287
sg17
F0.379715686017
sa(dp455
g2
F0.560863
sg3
F128.024
sg4
F0.041424
sg5
I4
sg6
F270.57288
sg7
S'9550fc1c-1757-33e7-aae7-124b2fb4b220'
p456
sg9
S'Eyes'
p457
sg11
F0.06947
sg12
F0.006127
sg13
F0.633478
sg14
F4.0
sg15
F-8.305
sg16
F0.284131
sg17
F0.379715686017
sa(dp458
g2
F0.802163
sg3
F127.986
sg4
F0.058041
sg5
I4
sg6
F254.05823
sg7
S'786a691e-4c98-30bf-b074-dc6215d783d2'
p459
sg9
S'Lessons in Love'
p460
sg11
F0.143966
sg12
F0.03516
sg13
F0.583706
sg14
F4.0
sg15
F-5.927
sg16
F0.632706
sg17
F0.379715686017
sa(dp461
g2
F0.562688
sg3
F128.021
sg4
F0.100528
sg5
I4
sg6
F240.0
sg7
S'c9d5ff6f-7799-3e5f-a029-3b90635c614a'
p462
sg9
S'Fire In Your New Shoes'
p463
sg11
F0.114896
sg12
F0.003086
sg13
F0.830279
sg14
F4.0
sg15
F-5.838
sg16
F0.480605
sg17
F0.379715686017
sa(dp464
g2
F0.666079
sg3
F123.007
sg4
F0.046343
sg5
I4
sg6
F280.00798
sg7
S'f36642ae-ab93-3969-89b9-d54cda2f6865'
p465
sg9
S'Atmosphere (Kaskade Redux Edit)'
p466
sg11
F0.110355
sg12
F0.001774
sg13
F0.719302
sg14
F4.0
sg15
F-8.201
sg16
F0.376296
sg17
F0.379715686017
sa(dp467
g2
F0.685386
sg3
F128.004
sg4
F0.038498
sg5
I4
sg6
F267.27955
sg7
S'a19a2179-32af-3af3-8eee-b5557979d7b1'
p468
sg9
S'4AM (Adam K & Soha Mix)'
p469
sg11
F0.887852
sg12
F0.229705
sg13
F0.655673
sg14
F4.0
sg15
F-8.127
sg16
F0.094583
sg17
F0.379715686017
sa(dp470
g2
F0.602884
sg3
F128.022
sg4
F0.051953
sg5
I4
sg6
F326.50621
sg7
S'8c725c3e-cf57-34dc-af2d-0458c6a1f631'
p471
sg9
S'Atmosphere'
p472
sg11
F0.05514
sg12
F0.00568
sg13
F0.476864
sg14
F4.0
sg15
F-8.525
sg16
F0.276032
sg17
F0.379715686017
sa(dp473
g2
F0.827865
sg3
F129.995
sg4
F0.473707
sg5
I4
sg6
F312.03955
sg7
S'56a43fdf-7ead-34dc-b8eb-f493d693f7f5'
p474
sg9
S'Raining'
p475
sg11
F0.455988
sg12
F0.26964
sg13
F0.628403
sg14
F4.0
sg15
F-6.736
sg16
F0.288603
sg17
F0.379715686017
sa(dp476
g2
F0.853235
sg3
F127.987
sg4
F0.069956
sg5
I4
sg6
F317.10912
sg7
S'83068dec-7dd6-3342-a484-068d0f97e276'
p477
sg9
S"I'll Never Dream I'm in Love - Radio Edit"
p478
sg11
F0.707342
sg12
F0.028942
sg13
F0.446204
sg14
F4.0
sg15
F-3.977
sg16
F0.238201
sg17
F0.379715686017
sa(dp479
g2
F0.794435
sg3
F128.026
sg4
F0.041023
sg5
I4
sg6
F224.28154
sg7
S'064e60af-3d5b-3248-bb70-d35adee19299'
p480
sg9
S'Something Something Champs - Radio Edit'
p481
sg11
F0.356174
sg12
F0.047956
sg13
F0.444791
sg14
F4.0
sg15
F-4.095
sg16
F0.330714
sg17
F0.379715686017
sa(dp482
g2
F0.944854
sg3
F128.001
sg4
F0.136933
sg5
I4
sg6
F280.46209
sg7
S'd5cb1c8f-703a-3300-8c6a-93304d8e9c71'
p483
sg9
S'Rage in Your New Shoes'
p484
sg11
F0.3373
sg12
F0.007483
sg13
F0.493408
sg14
F4.0
sg15
F-4.061
sg16
F0.40774
sg17
F0.379715686017
sa(dp485
g2
F0.727388
sg3
F128.014
sg4
F0.035231
sg5
I4
sg6
F195.05923
sg7
S'9b72ac47-2853-3aff-bb9e-cae73c2a6de0'
p486
sg9
S'Dynasty'
p487
sg11
F0.155123
sg12
F0.00441
sg13
F0.608259
sg14
F4.0
sg15
F-4.529
sg16
F0.71664
sg17
F0.379715686017
sa(dp488
g2
F0.628059
sg3
F125.98
sg4
F0.043302
sg5
I4
sg6
F227.45333
sg7
S'4d5cb8cd-4e3d-3773-ad7e-0e1439874a58'
p489
sg9
S'Angel On My Shoulder'
p490
sg11
F0.10473
sg12
F0.004087
sg13
F0.573704
sg14
F4.0
sg15
F-7.514
sg16
F0.191793
sg17
F0.379715686017
sa(dp491
g2
F0.941216
sg3
F192.055
sg4
F0.042728
sg5
I2
sg6
F276.77333
sg7
S'a39a59b1-0866-34bd-9e5b-676ad6659362'
p492
sg9
S'Never Ending Hill'
p493
sg11
F0.329648
sg12
F0.000259
sg13
F0.398205
sg14
F4.0
sg15
F-5.021
sg16
F0.633262
sg17
F0.382461900079
sa(dp494
g2
F0.758711
sg3
F129.941
sg4
F0.057676
sg5
I4
sg6
F384.49955
sg7
S'41e23b1c-f736-3f13-a789-7bb8e5b8dba6'
p495
sg9
S'Breakout'
p496
sg11
F0.024467
sg12
F0.001884
sg13
F0.786752
sg14
F4.0
sg15
F-5.447
sg16
F0.780387
sg17
F0.451393701203
sa(dp497
g2
F0.117221
sg3
F131.847
sg4
F0.034454
sg5
I4
sg6
F246.41374
sg7
S'bb90d234-a742-33ad-9326-6d4707c9663a'
p498
sg9
S'Mexico'
p499
sg11
F0.084694
sg12
F0.964347
sg13
F0.558383
sg14
F4.0
sg15
F-16.958
sg16
F0.171579
sg17
F0.49402576793
sa(dp500
g2
F0.927924
sg3
F98.474
sg4
F0.044055
sg5
I1
sg6
F136.02621
sg7
S'991d1a54-5ca1-3a4c-bceb-6a0c303d3803'
p501
sg9
S'No Waves'
p502
sg11
F0.109231
sg12
F0.000713
sg13
F0.480968
sg14
F4.0
sg15
F-4.199
sg16
F0.34093
sg17
F0.492095052637
sa(dp503
g2
F0.844234
sg3
F140.127
sg4
F0.136575
sg5
I0
sg6
F264.13188
sg7
S'0b1d22a2-59fd-3a6f-b1c1-b68ec2fc8e49'
p504
sg9
S'Lonesome'
p505
sg11
F0.889599
sg12
F0.01839
sg13
F0.423804
sg14
F4.0
sg15
F-7.082
sg16
F0.330515
sg17
F0.44277217852
sa(dp506
g2
F0.920479
sg3
F145.645
sg4
F0.052382
sg5
I0
sg6
F266.69823
sg7
S'57fa4aa3-0d8a-37e7-8b9e-19870f0f8caa'
p507
sg9
S'Vampire'
p508
sg11
F0.735992
sg12
F0.172498
sg13
F0.411746
sg14
F4.0
sg15
F-3.641
sg16
F0.557554
sg17
F0.44277217852
sa(dp509
g2
F0.816924
sg3
F97.71
sg4
F0.029784
sg5
I1
sg6
F272.44517
sg7
S'f784e2af-0ff3-3d91-9727-0d70e46d32b6'
p510
sg9
S'Do The Trick'
p511
sg11
F0.060042
sg12
F0.182439
sg13
F0.549465
sg14
F4.0
sg15
F-4.861
sg16
F0.848776
sg17
F0.44277217852
sa(dp512
g2
F0.901423
sg3
F97.366
sg4
F0.065156
sg5
I1
sg6
F228.32952
sg7
S'76b729e9-4092-3bb4-8241-5f4c58a8d455'
p513
sg9
S'That Old Black Hole'
p514
sg11
F0.680955
sg12
F0.001734
sg13
F0.45891
sg14
F4.0
sg15
F-7.135
sg16
F0.59184
sg17
F0.44277217852
sa(dp515
g2
F0.616872
sg3
F74.029
sg4
F0.064726
sg5
I3
sg6
F273.37601
sg7
S'd3bdcf44-ea5d-33b7-be84-de42ecd8e60d'
p516
sg9
S'Sonsick'
p517
sg11
F0.075545
sg12
F0.017306
sg13
F0.462577
sg14
F4.0
sg15
F-8.593
sg16
F0.527527
sg17
F0.50060709663
sa(dp518
g2
F0.857575
sg3
F131.421
sg4
F0.038501
sg5
I4
sg6
F229.89288
sg7
S'5307fe1f-773c-39ac-a4ba-9c7bafcd2745'
p519
sg9
S'Il paese \xc3\xa8 reale'
p520
sg11
F0.295096
sg12
F0.004496
sg13
F0.47932
sg14
F4.0
sg15
F-3.986
sg16
F0.53985
sg17
F0.421715281823
sa(dp521
g2
F0.395037
sg3
F109.184
sg4
F0.028618
sg5
I1
sg6
F405.52444
sg7
S'6e97ad0a-2916-3c9c-b797-7d243382a4b6'
p522
sg9
S'Danko/Manuel (Live)'
p523
sg11
F0.254781
sg12
F0.78579
sg13
F0.393761
sg14
F4.0
sg15
F-8.798
sg16
F0.193262
sg17
F0.508785783354
sa(dp524
g2
F0.934226
sg3
F150.149
sg4
F0.080376
sg5
I0
sg6
F299.43955
sg7
S'fd4f8fae-0bd0-34ea-b209-b4fa2df4670a'
p525
sg9
S'Take My Bones Away'
p526
sg11
F0.062053
sg12
F0.000198
sg13
F0.256737
sg14
F4.0
sg15
F-5.654
sg16
F0.148196
sg17
F0.436332127364
sa(dp527
g2
F0.73987
sg3
F126.626
sg4
F0.058369
sg5
I4
sg6
F212.74621
sg7
S'27f0af3e-ae74-3ea5-bf2b-10e8400f9896'
p528
sg9
S'Now or Never'
p529
sg11
F0.11561
sg12
F0.00201
sg13
F0.597952
sg14
F4.0
sg15
F-7.124
sg16
F0.609316
sg17
F0.468779004957
sa(dp530
g2
F0.117221
sg3
F131.847
sg4
F0.034454
sg5
I4
sg6
F246.41374
sg7
S'3f73eece-5499-3608-81d0-adad439b2eea'
p531
sg9
g499
sg11
F0.084694
sg12
F0.964347
sg13
F0.558383
sg14
F4.0
sg15
F-16.958
sg16
F0.171579
sg17
F0.49402576793
sa(dp532
g2
F0.715897
sg3
F90.023
sg4
F0.040442
sg5
I3
sg6
F455.61333
sg7
S'99b009eb-3da9-3272-88d6-12cd7e93704d'
p533
sg9
S'Turn and Dub'
p534
sg11
F0.090198
sg12
F0.025117
sg13
F0.712105
sg14
F4.0
sg15
F-6.125
sg16
F0.533935
sg17
F0.415381464026
sa(dp535
g2
F0.443365
sg3
F131.638
sg4
F0.03644
sg5
I4
sg6
F788.15447
sg7
S'ee5cae07-3f6a-3e38-9066-d97f0e6ed394'
p536
sg9
S'Jajunk>'
p537
sg11
F0.13177
sg12
F0.162648
sg13
F0.455793
sg14
F3.0
sg15
F-18.827
sg16
F0.350895
sg17
F0.415381464026
sa(dp538
g2
F0.501421
sg3
F102.361
sg4
F0.031955
sg5
I1
sg6
F296.33261
sg7
S'6b6c07fc-b85a-348a-ac33-5b413df063c4'
p539
sg9
S'Glory'
p540
sg11
F0.673882
sg12
F0.35736
sg13
F0.291331
sg14
F4.0
sg15
F-13.653
sg16
F0.176022
sg17
F0.415381464026
sa(dp541
g2
F0.260017
sg3
F88.036
sg4
F0.057939
sg5
I3
sg6
F225.17506
sg7
S'f77b2a20-fddb-36b5-aa09-142cbf5390b1'
p542
sg9
S'Deeper'
p543
sg11
F0.089518
sg12
F0.106969
sg13
F0.773756
sg14
F4.0
sg15
F-18.455
sg16
F0.769306
sg17
F0.415381464026
sa(dp544
g2
F0.723258
sg3
F149.397
sg4
F0.040254
sg5
I0
sg6
F455.92336
sg7
S'e4ccdfde-ea7d-318e-8f90-1e10b5c7f275'
p545
sg9
S'The Fussy Dutchman'
p546
sg11
F0.716392
sg12
F0.249457
sg13
F0.27866
sg14
F4.0
sg15
F-11.628
sg16
F0.448044
sg17
F0.415381464026
sa(dp547
g2
F0.537843
sg3
F101.989
sg4
F0.034254
sg5
I1
sg6
F695.78549
sg7
S'f9785e64-90d4-33ac-919f-c95d3b7d6876'
p548
sg9
S'2x2'
p549
sg11
F0.245253
sg12
F0.01439
sg13
F0.402734
sg14
F4.0
sg15
F-12.948
sg16
F0.187079
sg17
F0.415381464026
sa(dp550
g2
F0.573315
sg3
F143.616
sg4
F0.067211
sg5
I0
sg6
F1061.48526
sg7
S'103e768a-f78d-336b-ae49-dac53dc431ac'
p551
sg9
S'All In Time LIVE'
p552
sg11
F0.89807
sg12
F0.020146
sg13
F0.356015
sg14
F4.0
sg15
F-17.274
sg16
F0.471832
sg17
F0.415381464026
sa(dp553
g2
F0.573315
sg3
F143.616
sg4
F0.067211
sg5
I0
sg6
F1061.48526
sg7
S'014095ed-48c9-3347-a472-2a3e5938b1ee'
p554
sg9
g552
sg11
F0.89807
sg12
F0.020146
sg13
F0.356015
sg14
F4.0
sg15
F-17.274
sg16
F0.471832
sg17
F0.415381464026
sa(dp555
g2
F0.443365
sg3
F131.638
sg4
F0.03644
sg5
I4
sg6
F788.15447
sg7
S'a029190c-dcbf-3689-9c79-7b959d53ccb7'
p556
sg9
g537
sg11
F0.13177
sg12
F0.162648
sg13
F0.455793
sg14
F3.0
sg15
F-18.827
sg16
F0.350895
sg17
F0.415381464026
sa(dp557
g2
F0.415023
sg3
F103.378
sg4
F0.036912
sg5
I1
sg6
F518.60853
sg7
S'9e13b90b-715e-37d6-a826-de5d0e13c045'
p558
sg9
S'Hajimemashite'
p559
sg11
F0.736986
sg12
F0.8367
sg13
F0.302663
sg14
F4.0
sg15
F-21.119
sg16
F0.357704
sg17
F0.415381464026
sa(dp560
g2
F0.619352
sg3
F121.87
sg4
F0.036965
sg5
I4
sg6
F560.15773
sg7
S'fa2288db-0d30-3e5a-a958-4f8444715ba6'
p561
sg9
S'The Triple Wide >'
p562
sg11
F0.176214
sg12
F0.434324
sg13
F0.482606
sg14
F4.0
sg15
F-15.034
sg16
F0.558575
sg17
F0.415381464026
sa(dp563
g2
F0.537843
sg3
F101.989
sg4
F0.034254
sg5
I1
sg6
F695.78549
sg7
S'5003d10c-e367-37a8-a5d4-e120b450ed39'
p564
sg9
g549
sg11
F0.245253
sg12
F0.01439
sg13
F0.402734
sg14
F4.0
sg15
F-12.948
sg16
F0.187079
sg17
F0.415381464026
sa(dp565
g2
F0.791328
sg3
F112.972
sg4
F0.037449
sg5
I1
sg6
F446.62667
sg7
S'f2ce1b60-e5ad-30e9-a635-0bb013c2228d'
p566
sg9
S'Layla (Live)'
p567
sg11
F0.672494
sg12
F0.217912
sg13
F0.390743
sg14
F4.0
sg15
F-6.175
sg16
F0.362721
sg17
F0.415381464026
sa(dp568
g2
F0.621438
sg3
F99.269
sg4
F0.0318
sg5
I1
sg6
F186.57288
sg7
S'572b60f2-f470-32b9-b1eb-7c7cd58ec202'
p569
sg9
S'End Of The Road'
p570
sg11
F0.122302
sg12
F0.88532
sg13
F0.257019
sg14
F4.0
sg15
F-10.007
sg16
F0.334279
sg17
F0.415381464026
sa(dp571
g2
F0.585189
sg3
F103.688
sg4
F0.031755
sg5
I1
sg6
F467.32435
sg7
S'6ff8d930-cb6a-3c1e-8105-b2cf1bb9c35c'
p572
sg9
S'August'
p573
sg11
F0.465085
sg12
F0.594032
sg13
F0.467086
sg14
F4.0
sg15
F-15.271
sg16
F0.468435
sg17
F0.415381464026
sa(dp574
g2
F0.509892
sg3
F98.65
sg4
F0.040628
sg5
I1
sg6
F473.36154
sg7
S'ada5a566-f7f3-3425-b292-314c564311ce'
p575
sg9
S"Partyin' Peeps"
p576
sg11
F0.847409
sg12
F0.372976
sg13
F0.569149
sg14
F4.0
sg15
F-16.238
sg16
F0.531608
sg17
F0.415381464026
sa(dp577
g2
F0.616872
sg3
F74.029
sg4
F0.064726
sg5
I3
sg6
F273.37601
sg7
S'69d63818-aeac-3b36-8732-d9cc4a7fb921'
p578
sg9
g517
sg11
F0.075545
sg12
F0.017306
sg13
F0.462577
sg14
F4.0
sg15
F-8.593
sg16
F0.527527
sg17
F0.50060709663
sa(dp579
g2
F0.622066
sg3
F155.88
sg4
F0.07533
sg5
I0
sg6
F207.80032
sg7
S'b5e6270a-6560-3b8f-9add-6cc6bae256bf'
p580
sg9
S'Campfire'
p581
sg11
F0.312415
sg12
F0.002271
sg13
F0.44273
sg14
F4.0
sg15
F-7.072
sg16
F0.31396
sg17
F0.532878507099
sa(dp582
g2
F0.203148
sg3
F152.363
sg4
F0.033896
sg5
I0
sg6
F208.14621
sg7
S'e182e068-a1c6-3975-b751-726da149963e'
p583
sg9
S'Stoplight Roses'
p584
sg11
F0.361451
sg12
F0.878124
sg13
F0.426048
sg14
F3.0
sg15
F-13.604
sg16
F0.20272
sg17
F0.3952684428
sa(dp585
g2
F0.556249
sg3
F134.147
sg4
F0.039176
sg5
I0
sg6
F172.34621
sg7
S'c887e9be-7c21-30dd-8508-f75ec6377a53'
p586
sg9
S'Sensitive Man'
p587
sg11
F0.097418
sg12
F0.450265
sg13
F0.749502
sg14
F4.0
sg15
F-8.872
sg16
F0.668804
sg17
F0.3952684428
sa(dp588
g2
F0.921286
sg3
F127.017
sg4
F0.056658
sg5
I4
sg6
F606.54395
sg7
S'ecdec6fc-265b-32ae-aa8d-f695e76b1fd3'
p589
sg9
S'Come As Your Kids (10/29/11 Atlanta  Georgia)'
p590
sg11
F0.751581
sg12
F0.049181
sg13
F0.277751
sg14
F4.0
sg15
F-5.38
sg16
F0.314592
sg17
F0.415381464026
sa(dp591
g2
F0.599522
sg3
F113.541
sg4
F0.094706
sg5
I1
sg6
F511.21007
sg7
S'ca4205a5-7ad8-3523-b0b2-c130d59d30d9'
p592
sg9
S'Pay the Snucka'
p593
sg11
F0.141208
sg12
F0.599863
sg13
F0.415488
sg14
F4.0
sg15
F-15.268
sg16
F0.135295
sg17
F0.415381464026
sa(dp594
g2
F0.478125
sg3
F98.589
sg4
F0.054291
sg5
I1
sg6
F311.4488
sg7
S'bbce6e31-2af6-390f-b40b-adb82ffc4523'
p595
sg9
S'Ringo'
p596
sg11
F0.900277
sg12
F0.622379
sg13
F0.504299
sg14
F4.0
sg15
F-19.534
sg16
F0.601321
sg17
F0.415381464026
sa(dp597
g2
F0.599522
sg3
F113.541
sg4
F0.094706
sg5
I1
sg6
F511.21007
sg7
S'31cdf476-8169-35e5-97df-afd72bdf87d9'
p598
sg9
g593
sg11
F0.141208
sg12
F0.599863
sg13
F0.415488
sg14
F4.0
sg15
F-15.268
sg16
F0.135295
sg17
F0.415381464026
sa(dp599
g2
F0.548299
sg3
F137.597
sg4
F0.041686
sg5
I0
sg6
F1034.40209
sg7
S'13459492-7de0-3d5f-965a-8f122f26cf27'
p600
sg9
S'Hurt Bird Bath'
p601
sg11
F0.176144
sg12
F0.483828
sg13
F0.426143
sg14
F4.0
sg15
F-17.829
sg16
F0.602635
sg17
F0.415381464026
sa(dp602
g2
F0.622982
sg3
F105.99
sg4
F0.052487
sg5
I1
sg6
F564.13995
sg7
S'c227bff2-a817-3135-a896-aa2abc97bf07'
p603
sg9
S'Bridgeless'
p604
sg11
F0.951079
sg12
F0.113679
sg13
F0.554666
sg14
F4.0
sg15
F-16.22
sg16
F0.351475
sg17
F0.415381464026
sa(dp605
g2
F0.573315
sg3
F143.616
sg4
F0.067211
sg5
I0
sg6
F1061.48526
sg7
S'bfdb686b-b677-38fc-abc7-745fecfd55f2'
p606
sg9
g552
sg11
F0.89807
sg12
F0.020146
sg13
F0.356015
sg14
F4.0
sg15
F-17.274
sg16
F0.471832
sg17
F0.415381464026
sa(dp607
g2
F0.50215
sg3
F102.256
sg4
F0.032281
sg5
I1
sg6
F645.39819
sg7
S'e8839246-3599-3363-b435-e0231bb207af'
p608
sg9
S'The Haunt'
p609
sg11
F0.308845
sg12
F0.181945
sg13
F0.430221
sg14
F4.0
sg15
F-13.403
sg16
F0.118054
sg17
F0.415381464026
sa(dp610
g2
F0.501421
sg3
F102.361
sg4
F0.031955
sg5
I1
sg6
F296.33261
sg7
S'93184f6c-cfeb-3fa8-a040-c81fcf2e2125'
p611
sg9
g540
sg11
F0.673882
sg12
F0.35736
sg13
F0.291331
sg14
F4.0
sg15
F-13.653
sg16
F0.176022
sg17
F0.415381464026
sa(dp612
g2
F0.573315
sg3
F143.616
sg4
F0.067211
sg5
I0
sg6
F1061.48526
sg7
S'06be1140-39ba-321a-8fca-5a8a504ff5d9'
p613
sg9
g552
sg11
F0.89807
sg12
F0.020146
sg13
F0.356015
sg14
F4.0
sg15
F-17.274
sg16
F0.471832
sg17
F0.415381464026
sa(dp614
g2
F0.828804
sg3
F166.85
sg4
F0.040237
sg5
I2
sg6
F491.89288
sg7
S'a2d6d1ee-dbd0-3e30-97ef-e7e177952cf6'
p615
sg9
S'The Linear'
p616
sg11
F0.147927
sg12
F0.424319
sg13
F0.308665
sg14
F4.0
sg15
F-11.303
sg16
F0.589495
sg17
F0.415381464026
sa(dp617
g2
F0.311775
sg3
F100.362
sg4
F0.032594
sg5
I1
sg6
F740.77995
sg7
S'1dd9d6ca-54ee-3ad1-a175-433da00327e7'
p618
sg9
S'Mantis'
p619
sg11
F0.119825
sg12
F0.336935
sg13
F0.332457
sg14
F4.0
sg15
F-20.42
sg16
F0.274851
sg17
F0.415381464026
sa(dp620
g2
F0.311775
sg3
F100.362
sg4
F0.032594
sg5
I1
sg6
F740.77995
sg7
S'c2197aab-467f-35fa-ab74-53a928dbed26'
p621
sg9
g619
sg11
F0.119825
sg12
F0.336935
sg13
F0.332457
sg14
F4.0
sg15
F-20.42
sg16
F0.274851
sg17
F0.415381464026
sa(dp622
g2
F0.757323
sg3
F111.465
sg4
F0.058713
sg5
I1
sg6
F244.80753
sg7
S'e064d832-7836-37b2-951a-d392477205b9'
p623
sg9
S'Immigrant Song'
p624
sg11
F0.938948
sg12
F0.612588
sg13
F0.478219
sg14
F4.0
sg15
F-13.251
sg16
F0.260446
sg17
F0.415381464026
sa(dp625
g2
F0.708675
sg3
F121.96
sg4
F0.235667
sg5
I4
sg6
F206.28961
sg7
S'b53485d9-9c05-360e-bb3d-79a6300b1a57'
p626
sg9
S'Useless Music (Remix)'
p627
sg11
F0.115687
sg12
F0.371095
sg13
F0.895519
sg14
F4.0
sg15
F-7.503
sg16
F0.833276
sg17
F0.232344793957
sa(dp628
g2
F0.501346
sg3
F96.632
sg4
F0.041055
sg5
I1
sg6
F481.23311
sg7
S'8a2b6052-c7f5-3e3a-8938-44c73c54cb70'
p629
sg9
S'The Bottom Half'
p630
sg11
F0.980844
sg12
F0.434847
sg13
F0.50809
sg14
F4.0
sg15
F-13.135
sg16
F0.222856
sg17
F0.415381464026
sa(dp631
g2
F0.600401
sg3
F140.263
sg4
F0.039546
sg5
I0
sg6
F768.06921
sg7
S'9643ae14-ae6a-3f6f-b901-e8bb946adac1'
p632
sg9
S"Phil's Farm>"
p633
sg11
F0.38418
sg12
F0.03341
sg13
F0.412459
sg14
F4.0
sg15
F-20.44
sg16
F0.424761
sg17
F0.415381464026
sa(dp634
g2
F0.693003
sg3
F106.071
sg4
F0.054087
sg5
I1
sg6
F350.83955
sg7
S'327cfea0-9af3-3e3b-be71-a5d1d202db39'
p635
sg9
S'Intentions Clear'
p636
sg11
F0.101423
sg12
F0.080508
sg13
F0.664405
sg14
F4.0
sg15
F-8.996
sg16
F0.324325
sg17
F0.415381464026
sa(dp637
g2
F0.355198
sg3
F88.255
sg4
F0.081615
sg5
I3
sg6
F528.50893
sg7
S'6700324e-35c4-3d00-8356-7a59bc149af8'
p638
sg9
S'Hangover'
p639
sg11
F0.279192
sg12
F0.747004
sg13
F0.512707
sg14
F4.0
sg15
F-16.325
sg16
F0.379441
sg17
F0.415381464026
sa(dp640
g2
F0.58344
sg3
F101.51
sg4
F0.034249
sg5
I1
sg6
F582.30957
sg7
S'1af4f184-74f2-392e-9a04-87a9fbc5b63c'
p641
sg9
S'Much Obliged'
p642
sg11
F0.788278
sg12
F0.75886
sg13
F0.524255
sg14
F4.0
sg15
F-16.362
sg16
F0.518425
sg17
F0.415381464026
sa(dp643
g2
F0.272611
sg3
F90.98
sg4
F0.042545
sg5
I3
sg6
F641.56689
sg7
S'0da43a36-f019-3fbc-bde9-50ac1fd54808'
p644
sg9
S'Turn & Dub'
p645
sg11
F0.183813
sg12
F0.451601
sg13
F0.463462
sg14
F4.0
sg15
F-21.349
sg16
F0.35678
sg17
F0.415381464026
sa(dp646
g2
F0.419735
sg3
F76.738
sg4
F0.033052
sg5
I3
sg6
F598.04689
sg7
S'895b8022-36dc-3731-b695-f01af7f175cf'
p647
sg9
S"Can't You Hear Me Knocking"
p648
sg11
F0.830528
sg12
F0.600867
sg13
F0.502976
sg14
F4.0
sg15
F-18.35
sg16
F0.764377
sg17
F0.415381464026
sa(dp649
g2
F0.203923
sg3
F112.554
sg4
F0.037354
sg5
I1
sg6
F172.73279
sg7
S'8c8cd4ce-3020-3038-99be-71d89d674460'
p650
sg9
S'Intro...'
p651
sg11
F0.173991
sg12
F0.976239
sg13
F0.337736
sg14
F4.0
sg15
F-19.451
sg16
F0.154083
sg17
F0.415381464026
sa(dp652
g2
F0.428849
sg3
F102.095
sg4
F0.035106
sg5
I1
sg6
F622.94449
sg7
S'10144241-7785-3715-bbdd-e5849031b135'
p653
sg9
S'Resolution >'
p654
sg11
F0.314058
sg12
F0.007328
sg13
F0.569002
sg14
F4.0
sg15
F-14.594
sg16
F0.173302
sg17
F0.415381464026
sa(dp655
g2
F0.550725
sg3
F101.418
sg4
F0.030733
sg5
I1
sg6
F713.89995
sg7
S'5bf8dfd2-101b-3a30-836b-e26ad1fc9f80'
p656
sg9
S"White Man's Moccasins"
p657
sg11
F0.286774
sg12
F0.604852
sg13
F0.30642
sg14
F4.0
sg15
F-17.898
sg16
F0.36211
sg17
F0.415381464026
sa(dp658
g2
F0.838886
sg3
F142.801
sg4
F0.04373
sg5
I0
sg6
F298.49288
sg7
S'8cfaa0a0-b10c-325d-bf3a-8e667e76ea49'
p659
sg9
S"Mulche's Odyssey"
p660
sg11
F0.305397
sg12
F0.094172
sg13
F0.435973
sg14
F4.0
sg15
F-7.342
sg16
F0.574904
sg17
F0.415381464026
sa(dp661
g2
F0.504275
sg3
F96.214
sg4
F0.032426
sg5
I3
sg6
F316.11601
sg7
S'2e1cd307-afdf-347d-9061-91709d4b7776'
p662
sg9
S"Alex's House"
p663
sg11
F0.135682
sg12
F0.451504
sg13
F0.595478
sg14
F4.0
sg15
F-15.653
sg16
F0.328381
sg17
F0.415381464026
sa(dp664
g2
F0.94506
sg3
F143.236
sg4
F0.062742
sg5
I0
sg6
F330.10621
sg7
S'7e270619-88c4-314e-8fc1-22f3a3ded1bc'
p665
sg9
S'The Floor'
p666
sg11
F0.07632
sg12
F0.00375
sg13
F0.413496
sg14
F4.0
sg15
F-7.179
sg16
F0.437949
sg17
F0.415381464026
sa(dp667
g2
F0.49399
sg3
F109.634
sg4
F0.029246
sg5
I1
sg6
F520.18621
sg7
S'6769719d-4bf2-3cbb-981e-5fa49b4a9392'
p668
sg9
S'Words'
p669
sg11
F0.132585
sg12
F0.605677
sg13
F0.350039
sg14
F4.0
sg15
F-10.841
sg16
F0.177524
sg17
F0.415381464026
sa(dp670
g2
F0.69156
sg3
F83.935
sg4
F0.255907
sg5
I3
sg6
F264.09556
sg7
S'41b008bd-3a3e-3621-a56e-a2326e47b315'
p671
sg9
S'Straight To The Bank'
p672
sg11
F0.28978
sg12
F0.293137
sg13
F0.741424
sg14
F4.0
sg15
F-8.591
sg16
F0.23216
sg17
F0.252968330726
sa(dp673
g2
F0.866346
sg3
F126.022
sg4
F0.069092
sg5
I4
sg6
F237.84
sg7
S'b53be5fb-2efa-3b19-a376-50090b47dcc0'
p674
sg9
S'Soft Offering (For the Oft Suffering)'
p675
sg11
F0.119457
sg12
F0.072264
sg13
F0.543584
sg14
F4.0
sg15
F-6.424
sg16
F0.241175
sg17
F0.496795028709
sa(dp676
g2
F0.373179
sg3
F105.046
sg4
F0.065761
sg5
I1
sg6
F235.42621
sg7
S'a543994d-2f8a-34fe-9653-c1711f799f36'
p677
sg9
S'Buster Keaton'
p678
sg11
F0.063295
sg12
F0.498667
sg13
F0.861227
sg14
F4.0
sg15
F-8.991
sg16
F0.411938
sg17
F0.491559266938
sa(dp679
g2
F0.329753
sg3
F159.968
sg4
F0.03839
sg5
I2
sg6
F207.62621
sg7
S'fc037a8f-8128-3bb2-95d1-055b8197e860'
p680
sg9
S'Day'
p681
sg11
F0.121778
sg12
F0.833324
sg13
F0.254012
sg14
F4.0
sg15
F-14.255
sg16
F0.103951
sg17
F0.491559266938
sa(dp682
g2
F0.285891
sg3
F85.915
sg4
F0.146776
sg5
I3
sg6
F205.05288
sg7
S'de13eb15-96b2-3685-ab57-4f8a3ca1d024'
p683
sg9
S'Jeans'
p684
sg11
F0.045516
sg12
F0.58492
sg13
F0.598226
sg14
F4.0
sg15
F-10.48
sg16
F0.836654
sg17
F0.491559266938
sa(dp685
g2
F0.467486
sg3
F118.031
sg4
F0.060141
sg5
I4
sg6
F205.42621
sg7
S'22ce45cb-35d8-353f-86ce-902a2b4cc400'
p686
sg9
S'Pressure'
p687
sg11
F0.076116
sg12
F0.646962
sg13
F0.781883
sg14
F4.0
sg15
F-8.58
sg16
F0.77116
sg17
F0.491559266938
sa(dp688
g2
F0.488703
sg3
F105.022
sg4
F0.025547
sg5
I1
sg6
F251.99955
sg7
S'4c7493b2-462b-36db-92cc-d4d8cf906217'
p689
sg9
S'Crash Landing'
p690
sg11
F0.146218
sg12
F0.472817
sg13
F0.62036
sg14
F4.0
sg15
F-11.744
sg16
F0.547062
sg17
F0.259683304522
sa(dp691
g2
F0.601133
sg3
F89.864
sg4
F0.044683
sg5
I3
sg6
F320.79955
sg7
S'f402fc85-ec38-3dde-83af-45b771bb31bb'
p692
sg9
S'All Stars'
p693
sg11
F0.350251
sg12
F0.01265
sg13
F0.300565
sg14
F4.0
sg15
F-12.188
sg16
F0.379127
sg17
F0.259683304522
sa(dp694
g2
F0.317244
sg3
F100.019
sg4
F0.026608
sg5
I1
sg6
F251.55955
sg7
S'ca776b59-2573-3941-b493-48cee4419da4'
p695
sg9
S'Protected'
p696
sg11
F0.190513
sg12
F0.621716
sg13
F0.596651
sg14
F4.0
sg15
F-12.895
sg16
F0.236286
sg17
F0.259683304522
sa(dp697
g2
F0.412081
sg3
F90.021
sg4
F0.033248
sg5
I3
sg6
F271.99955
sg7
S'b637f25d-168d-345c-ae87-907a1fa31848'
p698
sg9
S'Not For Sale'
p699
sg11
F0.107502
sg12
F0.000214
sg13
F0.545928
sg14
F4.0
sg15
F-14.907
sg16
F0.658094
sg17
F0.259683304522
sa(dp700
g2
F0.221765
sg3
F110.074
sg4
F0.035691
sg5
I1
sg6
F231.09955
sg7
S'3dc98dc9-c922-3fac-8b24-62b0b58e5891'
p701
sg9
S'Set You Free'
p702
sg11
F0.128515
sg12
F0.007989
sg13
F0.687869
sg14
F4.0
sg15
F-15.097
sg16
F0.221434
sg17
F0.259683304522
sa(dp703
g2
F0.478591
sg3
F120.019
sg4
F0.055752
sg5
I4
sg6
F236.63955
sg7
S'11e86d69-de71-32d2-b36b-d3182f1cabe0'
p704
sg9
S'When It Comes Down'
p705
sg11
F0.107826
sg12
F0.032634
sg13
F0.841219
sg14
F4.0
sg15
F-13.062
sg16
F0.646362
sg17
F0.259683304522
sa(dp706
g2
F0.514742
sg3
F94.958
sg4
F0.028062
sg5
I3
sg6
F207.09955
sg7
S'8913bf49-5575-3d30-8488-1ee3359990d1'
p707
sg9
S'Heartbroken'
p708
sg11
F0.060514
sg12
F0.075533
sg13
F0.635735
sg14
F4.0
sg15
F-11.216
sg16
F0.384219
sg17
F0.259683304522
sa(dp709
g2
F0.14042
sg3
F99.999
sg4
F0.034411
sg5
I1
sg6
F205.47206
sg7
S'cedcc03a-2649-33fd-8a35-cf21d07271db'
p710
sg9
S'Ocean Breeze'
p711
sg11
F0.169822
sg12
F0.734029
sg13
F0.67301
sg14
F4.0
sg15
F-17.268
sg16
F0.205282
sg17
F0.259683304522
sa(dp712
g2
F0.562737
sg3
F100.01
sg4
F0.027154
sg5
I1
sg6
F211.09955
sg7
S'f8e3dce2-2ae7-35de-900d-ab14dcb721ab'
p713
sg9
S'Faces'
p714
sg11
F0.032165
sg12
F0.012457
sg13
F0.629081
sg14
F4.0
sg15
F-13.423
sg16
F0.655771
sg17
F0.259683304522
sa(dp715
g2
F0.421439
sg3
F87.029
sg4
F0.026144
sg5
I3
sg6
F212.19955
sg7
S'c2d5a4db-5e10-3baf-a355-946e96c8142d'
p716
sg9
S'Careless Love'
p717
sg11
F0.04213
sg12
F0.114678
sg13
F0.571095
sg14
F4.0
sg15
F-12.277
sg16
F0.381393
sg17
F0.259683304522
sa(dp718
g2
F0.35908
sg3
F97.984
sg4
F0.025305
sg5
I1
sg6
F254.79955
sg7
S'c18553d5-5105-3a6a-8dc1-66e83c49de79'
p719
sg9
S'In My Head'
p720
sg11
F0.090649
sg12
F0.392418
sg13
F0.632506
sg14
F4.0
sg15
F-15.216
sg16
F0.484545
sg17
F0.259683304522
sa(dp721
g2
F0.784877
sg3
F122.914
sg4
F0.033861
sg5
I4
sg6
F352.77374
sg7
S'591f7a68-492b-3d78-8547-1f4c3abf87ee'
p722
sg9
S'Get Out'
p723
sg11
F0.324349
sg12
F0.065091
sg13
F0.664173
sg14
F4.0
sg15
F-6.038
sg16
F0.109534
sg17
F0.5358796057
sa(dp724
g2
F0.176454
sg3
F117.772
sg4
F0.059696
sg5
I4
sg6
F172.419
sg7
S'117897ca-2c66-3652-afc0-cb71618fda1a'
p725
sg9
S'Happiness (Live)'
p726
sg11
F0.473382
sg12
F0.928137
sg13
F0.471396
sg14
F3.0
sg15
F-18.626
sg16
F0.241836
sg17
F0.261711676507
sa(dp727
g2
F0.14817
sg3
F112.711
sg4
F0.04599
sg5
I1
sg6
F162.72898
sg7
S'f8e40694-fb4a-3dcd-a26c-bf604889543d'
p728
sg9
S'Second Class Citizen (Live)'
p729
sg11
F0.390936
sg12
F0.957954
sg13
F0.395702
sg14
F4.0
sg15
F-16.319
sg16
F0.164966
sg17
F0.261711676507
sa(dp730
g2
F0.474616
sg3
F95.913
sg4
F0.031629
sg5
I3
sg6
F133.51955
sg7
S'817323eb-50ac-303e-93d9-52420a9b2e65'
p731
sg9
S'Free and Clear'
p732
sg11
F0.369566
sg12
F0.05193
sg13
F0.385358
sg14
F4.0
sg15
F-14.725
sg16
F0.305637
sg17
F0.261711676507
sa(dp733
g2
F0.297802
sg3
F125.398
sg4
F0.037694
sg5
I4
sg6
F173.19129
sg7
S'81028750-4226-3e6a-9331-61d9162d6dbf'
p734
sg9
S"Can't Escape"
p735
sg11
F0.265918
sg12
F0.349985
sg13
F0.631881
sg14
F4.0
sg15
F-13.413
sg16
F0.540984
sg17
F0.261711676507
sa(dp736
g2
F0.197797
sg3
F128.151
sg4
F0.034645
sg5
I4
sg6
F244.09347
sg7
S'edc7ce72-6b18-347b-8a56-bc289111f3aa'
p737
sg9
S"Just Can't Wait (Live)"
p738
sg11
F0.885216
sg12
F0.907841
sg13
F0.433848
sg14
F4.0
sg15
F-15.937
sg16
F0.205249
sg17
F0.261711676507
sa(dp739
g2
F0.533658
sg3
F134.162
sg4
F0.038611
sg5
I0
sg6
F180.23293
sg7
S'36f68e0a-77c6-379e-b96d-256a2f454804'
p740
sg9
S'Against the Grain'
p741
sg11
F0.406711
sg12
F0.309606
sg13
F0.494467
sg14
F4.0
sg15
F-9.323
sg16
F0.465352
sg17
F0.261711676507
sa(dp742
g2
F0.314594
sg3
F94.005
sg4
F0.027323
sg5
I3
sg6
F289.18966
sg7
S'95d1fda8-4b5d-3bbd-8870-078723961e87'
p743
sg9
S'Damage Done'
p744
sg11
F0.077021
sg12
F0.127873
sg13
F0.703228
sg14
F4.0
sg15
F-15.145
sg16
F0.380776
sg17
F0.261711676507
sa(dp745
g2
F0.160476
sg3
F183.031
sg4
F0.049204
sg5
I2
sg6
F162.72898
sg7
S'5a94a44e-7d7f-3ed0-b967-cd9571917f2f'
p746
sg9
S'Give Me Your Love (Live)'
p747
sg11
F0.964875
sg12
F0.931532
sg13
F0.341883
sg14
F4.0
sg15
F-20.269
sg16
F0.184572
sg17
F0.261711676507
sa(dp748
g2
F0.143808
sg3
F90.091
sg4
F0.051942
sg5
I3
sg6
F234.00259
sg7
S'536a310c-dac2-3a5b-8199-3faaa53356c1'
p749
sg9
S'Giving Up (Live)'
p750
sg11
F0.369975
sg12
F0.940496
sg13
F0.438949
sg14
F4.0
sg15
F-17.902
sg16
F0.211327
sg17
F0.261711676507
sa(dp751
g2
F0.243803
sg3
F138.3
sg4
F0.028643
sg5
I0
sg6
F229.54685
sg7
S'66608cce-57f5-30ec-8b4d-4b57867da814'
p752
sg9
S'Searching'
p753
sg11
F0.354246
sg12
F0.250819
sg13
F0.498685
sg14
F4.0
sg15
F-14.678
sg16
F0.245883
sg17
F0.261711676507
sa(dp754
g2
F0.251917
sg3
F111.677
sg4
F0.034041
sg5
I1
sg6
F228.03701
sg7
S'cad9f7cb-8975-3e9b-b826-fd396c8afbfe'
p755
sg9
S'Only Love Is Real'
p756
sg11
F0.131333
sg12
F0.807484
sg13
F0.279058
sg14
F4.0
sg15
F-15.525
sg16
F0.075639
sg17
F0.269127343221
sa(dp757
g2
F0.752706
sg3
F132.371
sg4
F0.045712
sg5
I4
sg6
F228.0361
sg7
S'92987af5-3d8e-37e6-a893-f16522210e4f'
p758
sg9
S"Joe Savio's New Age Blues Experience"
p759
sg11
F0.386971
sg12
F0.005333
sg13
F0.478864
sg14
F4.0
sg15
F-7.048
sg16
F0.642798
sg17
F0.269127343221
sa(dp760
g2
F0.869809
sg3
F165.315
sg4
F0.103505
sg5
I2
sg6
F137.7478
sg7
S'b564ad88-626f-329e-b0e5-9aca67070483'
p761
sg9
g732
sg11
F0.136443
sg12
F0.167899
sg13
F0.228199
sg14
F4.0
sg15
F-8.325
sg16
F0.361097
sg17
F0.269127343221
sa(dp762
g2
F0.288196
sg3
F109.003
sg4
F0.036446
sg5
I1
sg6
F264.73905
sg7
S'1deb239d-8bf1-36f5-b8e0-b6587b4ac532'
p763
sg9
S'Happiness'
p764
sg11
F0.107551
sg12
F0.382436
sg13
F0.513654
sg14
F4.0
sg15
F-12.526
sg16
F0.226113
sg17
F0.269127343221
sa(dp765
g2
F0.653437
sg3
F114.854
sg4
F0.034173
sg5
I1
sg6
F342.99959
sg7
S'da6e002d-3119-3eb4-b334-f8893ae2180c'
p766
sg9
g744
sg11
F0.308909
sg12
F0.076559
sg13
F0.445109
sg14
F4.0
sg15
F-7.401
sg16
F0.308249
sg17
F0.269127343221
sa(dp767
g2
F0.096786
sg3
F81.016
sg4
F0.032607
sg5
I3
sg6
F255.99955
sg7
S'6c1136c6-087e-34d9-b46e-e974cecc1e8f'
p768
sg9
S"Jaco's Serenade"
p769
sg11
F0.239625
sg12
F0.844797
sg13
F0.239031
sg14
F4.0
sg15
F-21.513
sg16
F0.130409
sg17
F0.269127343221
sa(dp770
g2
F0.354437
sg3
F122.237
sg4
F0.04341
sg5
I4
sg6
F316.04354
sg7
S'07fd1b88-00cc-3f85-9e2f-7b4a64599ce5'
p771
sg9
S'Beyond'
p772
sg11
F0.127935
sg12
F0.33303
sg13
F0.345482
sg14
F4.0
sg15
F-13.567
sg16
F0.115813
sg17
F0.269127343221
sa(dp773
g2
F0.291129
sg3
F118.106
sg4
F0.038191
sg5
I4
sg6
F202.32975
sg7
S'11f4207b-8920-3429-b4e6-5d98a686f6b3'
p774
sg9
S'Another Day'
p775
sg11
F0.957786
sg12
F0.783779
sg13
F0.378899
sg14
F4.0
sg15
F-13.019
sg16
F0.182656
sg17
F0.269127343221
sa(dp776
g2
F0.794541
sg3
F147.912
sg4
F0.139935
sg5
I0
sg6
F272.221
sg7
S'de6e3d1b-1b39-3f0c-92ee-e9d8ccd50a9e'
p777
sg9
g741
sg11
F0.110364
sg12
F0.306238
sg13
F0.386481
sg14
F4.0
sg15
F-7.856
sg16
F0.576159
sg17
F0.269127343221
sa(dp778
g2
F0.590055
sg3
F86.042
sg4
F0.029587
sg5
I3
sg6
F224.04027
sg7
S'9dcc9b10-1f9a-3ec7-8881-747fea019678'
p779
sg9
S'Gold'
p780
sg11
F0.121055
sg12
F0.111321
sg13
F0.484962
sg14
F4.0
sg15
F-9.021
sg16
F0.439051
sg17
F0.52529093909
sa(dp781
g2
F0.252202
sg3
F128.896
sg4
F0.033243
sg5
I4
sg6
F257.61914
sg7
S'f1154113-3947-32dd-9f3d-a79c74cbe761'
p782
sg9
S'London Bridge Is Falling Down'
p783
sg11
F0.107388
sg12
F0.865424
sg13
F0.33118
sg14
F3.0
sg15
F-12.675
sg16
F0.282439
sg17
F0.5435561165
sa(dp784
g2
F0.824839
sg3
F83.059
sg4
F0.033386
sg5
I3
sg6
F187.06671
sg7
S'b50d440a-62b5-3b23-abee-cf675ebe7469'
p785
sg9
S'Leaga-Ma la ochi'
p786
sg11
F0.061049
sg12
F0.084896
sg13
F0.654004
sg14
F4.0
sg15
F-5.631
sg16
F0.946057
sg17
F0.508299106973
sa(dp787
g2
F0.131073
sg3
F107.824
sg4
F0.034708
sg5
I1
sg6
F264.44
sg7
S'e54ebece-fec7-3fb8-85f3-6a4ffd72ac47'
p788
sg9
S'Tell Old Bill'
p789
sg11
F0.084081
sg12
F0.901606
sg13
F0.534071
sg14
F4.0
sg15
F-13.78
sg16
F0.347314
sg17
F0.452536045128
sa(dp790
g2
F0.455485
sg3
F94.97
sg4
F0.028943
sg5
I3
sg6
F263.26159
sg7
S'9128dd75-9e49-3285-a5a3-7a1d6d368b43'
p791
sg9
S'Lovecrimes'
p792
sg11
F0.375161
sg12
F0.502712
sg13
F0.448466
sg14
F4.0
sg15
F-11.306
sg16
F0.068237
sg17
F0.395206280428
sa(dp793
g2
F0.900815
sg3
F95.101
sg4
F0.037579
sg5
I3
sg6
F213.89288
sg7
S'3c110fbe-7612-3d33-806d-6a2287206e78'
p794
sg9
S'Brooklyn'
p795
sg11
F0.102456
sg12
F0.010963
sg13
F0.422643
sg14
F4.0
sg15
F-5.835
sg16
F0.701908
sg17
F0.477268557358
sa(dp796
g2
F0.94234
sg3
F174.11
sg4
F0.553082
sg5
I2
sg6
F248.48649
sg7
S'8afbb2a2-068a-3eca-a21f-0aa20967ad66'
p797
sg9
S'Dominate (Instrumental Mix)'
p798
sg11
F0.15746
sg12
F0.000668
sg13
F0.41096
sg14
F4.0
sg15
F-3.888
sg16
F0.455431
sg17
F0.536887447902
sa(dp799
g2
F0.966646
sg3
F139.952
sg4
F0.100236
sg5
I0
sg6
F240.06485
sg7
S'4987cf57-3803-3871-9bbb-bfb5c5df88c6'
p800
sg9
S'The Brink (Original Mix)'
p801
sg11
F0.092598
sg12
F4.6e-05
sg13
F0.581791
sg14
F4.0
sg15
F-4.19
sg16
F0.103379
sg17
F0.536887447902
sa(dp802
g2
F0.982031
sg3
F127.98
sg4
F0.432763
sg5
I4
sg6
F324.23138
sg7
S'8ee92632-4c13-3665-b5e5-3363b7dbf132'
p803
sg9
S'Mission of Destruction (Original Mix)'
p804
sg11
F0.222163
sg12
F4.5e-05
sg13
F0.606073
sg14
F4.0
sg15
F-2.625
sg16
F0.112207
sg17
F0.536887447902
sa(dp805
g2
F0.926121
sg3
F148.56
sg4
F0.107787
sg5
I0
sg6
F191.78621
sg7
S'1d71fed4-f55a-306f-9cac-5496d3996ef6'
p806
sg9
S'Is This Love?'
p807
sg11
F0.159069
sg12
F0.018449
sg13
F0.326008
sg14
F4.0
sg15
F-4.542
sg16
F0.118749
sg17
F0.418719856012
sa(dp808
g2
F0.674445
sg3
F101.731
sg4
F0.026787
sg5
I1
sg6
F183.34621
sg7
S'cba9662e-8031-3600-aa4c-4e5f5242231a'
p809
sg9
S'Gimme Some Salt'
p810
sg11
F0.126171
sg12
F0.08333
sg13
F0.715943
sg14
F4.0
sg15
F-6.477
sg16
F0.573512
sg17
F0.418719856012
sa(dp811
g2
F0.879636
sg3
F139.591
sg4
F0.056309
sg5
I0
sg6
F248.95955
sg7
S'b2fc63c2-51f3-331a-b5b9-e1dad2440c55'
p812
sg9
S"The Witness' Dull Surprise"
p813
sg11
F0.094226
sg12
F0.000521
sg13
F0.290932
sg14
F4.0
sg15
F-4.73
sg16
F0.25132
sg17
F0.418719856012
sa(dp814
g2
F0.952944
sg3
F167.646
sg4
F0.074287
sg5
I2
sg6
F231.37288
sg7
S'86dd5946-852b-3ccc-995b-a3a76d17dcaf'
p815
sg9
S'Hysterical'
p816
sg11
F0.056911
sg12
F2.7e-05
sg13
F0.215229
sg14
F4.0
sg15
F-3.742
sg16
F0.285298
sg17
F0.418719856012
sa(dp817
g2
F0.524114
sg3
F148.372
sg4
F0.066664
sg5
I0
sg6
F194.84689
sg7
S'9f2fa962-d2fc-395e-9560-13b6405ebb14'
p818
sg9
S'Satan Said Dance'
p819
sg11
F0.133498
sg12
F0.000125
sg13
F0.43567
sg14
F4.0
sg15
F-18.172
sg16
F0.197295
sg17
F0.418719856012
sa(dp820
g2
F0.903011
sg3
F161.308
sg4
F0.055365
sg5
I2
sg6
F274.46621
sg7
S'4bd1f1d2-1fa8-3f1e-a394-a2289e14c73a'
p821
sg9
S'Upon This Tidal Wave Of Young Blood'
p822
sg11
F0.099138
sg12
F0.000149
sg13
F0.44227
sg14
F4.0
sg15
F-4.862
sg16
F0.715425
sg17
F0.418719856012
sa(dp823
g2
F0.666081
sg3
F139.684
sg4
F0.02737
sg5
I0
sg6
F189.31955
sg7
S'553b3b7e-115f-3cad-9517-270bb5fb3ab1'
p824
sg9
S'Over And Over Again (Lost And Found)'
p825
sg11
F0.131383
sg12
F0.000185
sg13
F0.576859
sg14
F4.0
sg15
F-8.25
sg16
F0.87206
sg17
F0.418719856012
sa(dp826
g2
F0.972875
sg3
F150.064
sg4
F0.101954
sg5
I0
sg6
F184.85651
sg7
S'fd2e403d-7698-3ebc-af5d-87814be996d4'
p827
sg9
S'Same Mistake'
p828
sg11
F0.228427
sg12
F3.2e-05
sg13
F0.318986
sg14
F4.0
sg15
F-4.598
sg16
F0.116245
sg17
F0.418719856012
sa(dp829
g2
F0.881544
sg3
F169.183
sg4
F0.063429
sg5
I2
sg6
F181.63955
sg7
S'6d450ec4-7832-3ce0-94ee-013a7f462346'
p830
sg9
S'Maniac'
p831
sg11
F0.363397
sg12
F5.9e-05
sg13
F0.321217
sg14
F4.0
sg15
F-3.989
sg16
F0.205642
sg17
F0.418719856012
sa(dp832
g2
F0.580064
sg3
F126.03
sg4
F0.230691
sg5
I4
sg6
F251.23918
sg7
S'd18eaadf-7d04-3703-a346-a3103bfa270a'
p833
sg9
S'Do It Again'
p834
sg11
F0.24107
sg12
F0.154611
sg13
F0.854924
sg14
F4.0
sg15
F-10.044
sg16
F0.796017
sg17
F0.486850656346
sa(dp835
g2
F0.245467
sg3
F148.141
sg4
F0.040872
sg5
I0
sg6
F199.6
sg7
S'9a9a6fd9-b7b6-3e4a-9bff-c80754f6fc3f'
p836
sg9
S'Code'
p837
sg11
F0.099602
sg12
F0.84715
sg13
F0.401269
sg14
F3.0
sg15
F-13.595
sg16
F0.344269
sg17
F0.526311765244
sa(dp838
g2
F0.6701
sg3
F129.979
sg4
F0.029973
sg5
I4
sg6
F198.13288
sg7
S'fd369b0c-bd74-358f-830f-368997c47af7'
p839
sg9
S'Pioneers'
p840
sg11
F0.051441
sg12
F0.155989
sg13
F0.731601
sg14
F4.0
sg15
F-7.835
sg16
F0.570496
sg17
F0.506836887611
sa(dp841
g2
F0.58701
sg3
F115.1
sg4
F0.153894
sg5
I1
sg6
F322.9561
sg7
S'ccb38163-6338-3a62-9e32-88dbace2886e'
p842
sg9
S'The Edge'
p843
sg11
F0.292205
sg12
F0.007142
sg13
F0.683801
sg14
F4.0
sg15
F-8.437
sg16
F0.212445
sg17
F0.341315943912
sa(dp844
g2
F0.680768
sg3
F138.307
sg4
F0.094309
sg5
I0
sg6
F194.30354
sg7
S'072279af-25fc-3c1c-81f4-fa7698b55710'
p845
sg9
S"Backyard Sippin'"
p846
sg11
F0.233034
sg12
F0.032455
sg13
F0.430962
sg14
F4.0
sg15
F-9.493
sg16
F0.695029
sg17
F0.341315943912
sa(dp847
g2
F0.549529
sg3
F88.551
sg4
F0.040895
sg5
I3
sg6
F193.43628
sg7
S'132027c5-a9f4-32e5-b801-433901a8a4b2'
p848
sg9
S'Pretty Green'
p849
sg11
F0.181269
sg12
F0.074155
sg13
F0.57014
sg14
F4.0
sg15
F-16.451
sg16
F0.427406
sg17
F0.468001175241
sa(dp850
g2
F0.491723
sg3
F123.909
sg4
F0.035347
sg5
I4
sg6
F257.85637
sg7
S'2b60b6b3-29b2-3a54-9c20-c4f16b4f2a2f'
p851
sg9
S'Remember'
p852
sg11
F0.11330899999999999
sg12
F0.634829
sg13
F0.558161
sg14
F4.0
sg15
F-8.667
sg16
F0.187115
sg17
F0.495380891229
sa(dp853
g2
F0.8156
sg3
F114.959
sg4
F0.040649
sg5
I1
sg6
F311.03955
sg7
S'f5ad6617-9ebb-34b4-92ca-45fc4a1386eb'
p854
sg9
S'Play by Play'
p855
sg11
F0.354865
sg12
F0.035381
sg13
F0.505438
sg14
F4.0
sg15
F-5.16
sg16
F0.12812
sg17
F0.518628554476
sa(dp856
g2
F0.857535
sg3
F119.996
sg4
F0.049998
sg5
I4
sg6
F279.37288
sg7
S'3bd3a63a-b3f9-3ac4-b8e7-bd54426ce327'
p857
sg9
S'New Prayer'
p858
sg11
F0.174446
sg12
F0.004016
sg13
F0.579332
sg14
F4.0
sg15
F-7.865
sg16
F0.463574
sg17
F0.495380891229
sa(dp859
g2
F0.783913
sg3
F139.738
sg4
F0.041241
sg5
I0
sg6
F219.34621
sg7
S'0cf28ca4-8624-3e88-821f-c745d2822eca'
p860
sg9
S'Alone In Memphis'
p861
sg11
F0.117501
sg12
F0.170387
sg13
F0.474743
sg14
F4.0
sg15
F-5.591
sg16
F0.31956
sg17
F0.474687038208
sa(dp862
g2
F0.796616
sg3
F144.452
sg4
F0.03763
sg5
I0
sg6
F268.37578
sg7
S'9a480466-6cc6-3d11-a168-f341f56e8305'
p863
sg9
S'Never Meant'
p864
sg11
F0.114539
sg12
F0.020761
sg13
F0.432618
sg14
F4.0
sg15
F-6.708
sg16
F0.395821
sg17
F0.416711371683
sa(dp865
g2
F0.208904
sg3
F82.709
sg4
F0.037317
sg5
I3
sg6
F202.42726
sg7
S'1cf4c851-b7e5-3687-a3f3-29e081e75395'
p866
sg9
S'Blood Drinkers'
p867
sg11
F0.213055
sg12
F0.245326
sg13
F0.502858
sg14
F4.0
sg15
F-13.449
sg16
F0.143724
sg17
F0.349826682618
sa(dp868
g2
F0.97957
sg3
F122.454
sg4
F0.061382
sg5
I4
sg6
F135.04707
sg7
S'e840ff35-76ec-36e3-882e-aa1225b2e6cb'
p869
sg9
S'Suburban Commando'
p870
sg11
F0.360479
sg12
F0.068836
sg13
F0.573885
sg14
F4.0
sg15
F-2.309
sg16
F0.793716
sg17
F0.38653169619
sa(dp871
g2
F0.429131
sg3
F113.839
sg4
F0.034359
sg5
I1
sg6
F142.03306
sg7
S'00d3feea-551e-3cd2-9aee-fe89aadf6a4d'
p872
sg9
S'Lovers Can Be Monsters (7" Version)'
p873
sg11
F0.114549
sg12
F0.000712
sg13
F0.416207
sg14
F4.0
sg15
F-13.524
sg16
F0.234356
sg17
F0.344159876506
sa(dp874
g2
F0.891755
sg3
F135.204
sg4
F0.098863
sg5
I0
sg6
F238.00213
sg7
S'73446205-c456-35e9-b1d5-fb85ab34ac7c'
p875
sg9
S'Three Is a Crowd (QCA Session)'
p876
sg11
F0.309105
sg12
F0.000133
sg13
F0.476061
sg14
F3.0
sg15
F-6.683
sg16
F0.30177
sg17
F0.476866094486
sa(dp877
g2
F0.945177
sg3
F104.974
sg4
F0.053667
sg5
I1
sg6
F230.83392
sg7
S'6c2cad38-7cb7-3eb1-b251-96ac71b44fec'
p878
sg9
S'Burnt Out'
p879
sg11
F0.2945
sg12
F0.004688
sg13
F0.396295
sg14
F3.0
sg15
F-3.509
sg16
F0.559605
sg17
F0.305265676181
sa(dp880
g2
F0.884623
sg3
F159.853
sg4
F0.046416
sg5
I2
sg6
F218.34907
sg7
S'030f3f89-bc31-3fbd-b413-943d2505b95b'
p881
sg9
S'Framed / Slanted'
p882
sg11
F0.274171
sg12
F0.001743
sg13
F0.41182
sg14
F4.0
sg15
F-7.393
sg16
F0.534719
sg17
F0.371014985536
sa(dp883
g2
F0.499801
sg3
F135.019
sg4
F0.03327
sg5
I0
sg6
F454.1122
sg7
S'86456a9c-1732-30d5-b6e9-16a133bf9d1a'
p884
sg9
S'Goodbye'
p885
sg11
F0.050622
sg12
F0.657528
sg13
F0.545799
sg14
F4.0
sg15
F-13.315
sg16
F0.105964
sg17
F0.424985907871
sa(dp886
g2
F0.592468
sg3
F147.044
sg4
F0.040715
sg5
I0
sg6
F225.96154
sg7
S'a7fd2838-b467-338b-b454-dfeed8fd77e0'
p887
sg9
S'Radio Hive'
p888
sg11
F0.061566
sg12
F0.320823
sg13
F0.539743
sg14
F4.0
sg15
F-6.503
sg16
F0.757234
sg17
F0.449362667055
sa(dp889
g2
F0.913154
sg3
F182.381
sg4
F0.077721
sg5
I2
sg6
F158.79823
sg7
S'e026d515-57e2-32f1-9086-cee7d3b5c284'
p890
sg9
S'Taking Meds'
p891
sg11
F0.491916
sg12
F0.000209
sg13
F0.28982
sg14
F5.0
sg15
F-7.048
sg16
F0.551438
sg17
F0.347539858327
sa(dp892
g2
F0.76872
sg3
F168.206
sg4
F0.093971
sg5
I2
sg6
F302.85669
sg7
S'28a932c7-d8fe-3c01-ba01-f9bc910b9528'
p893
sg9
S'Signal / Noise'
p894
sg11
F0.30721
sg12
F6.3e-05
sg13
F0.19168
sg14
F3.0
sg15
F-14.413
sg16
F0.197419
sg17
F0.477356819164
sa(dp895
g2
F0.856859
sg3
F146.074
sg4
F0.075694
sg5
I0
sg6
F286.07955
sg7
S'640624f8-80c3-3173-89b7-ab8da06e8937'
p896
sg9
S'Decayer'
p897
sg11
F0.363995
sg12
F0.001408
sg13
F0.384487
sg14
F4.0
sg15
F-4.347
sg16
F0.370987
sg17
F0.487989541894
sa(dp898
g2
F0.777194
sg3
F77.593
sg4
F0.097669
sg5
I3
sg6
F245.77429
sg7
S'8a3cd20d-9700-394b-9d3c-e599d88ad968'
p899
sg9
S'Life'
p900
sg11
F0.106684
sg12
F0.001128
sg13
F0.156996
sg14
F4.0
sg15
F-7.261
sg16
F0.041745
sg17
F0.292518234123
sa(dp901
g2
F0.74562
sg3
F108.09
sg4
F0.038829
sg5
I1
sg6
F376.92907
sg7
S'c3d17098-18e2-3229-9561-32af4b24a65d'
p902
sg9
S'On Forgetting to Let Go'
p903
sg11
F0.073934
sg12
F0.004296
sg13
F0.462258
sg14
F4.0
sg15
F-8.802
sg16
F0.263903
sg17
F0.286610205859
sa(dp904
g2
F0.98661
sg3
F103.686
sg4
F0.066787
sg5
I1
sg6
F90.08
sg7
S'f1176604-d026-351f-a312-8bb29dea2d51'
p905
sg9
S'Guy Picciotto'
p906
sg11
F0.795919
sg12
F5e-06
sg13
F0.328959
sg14
F4.0
sg15
F-3.915
sg16
F0.090271
sg17
F0.440537657724
sa(dp907
g2
F0.60076
sg3
F89.224
sg4
F0.044496
sg5
I3
sg6
F226.2722
sg7
S'8f074b34-c314-3281-93ee-9f7579e4b2fb'
p908
sg9
S'Forty Winks'
p909
sg11
F0.359435
sg12
F0.598343
sg13
F0.563303
sg14
F3.0
sg15
F-10.913
sg16
F0.381859
sg17
F0.482105444399
sa(dp910
g2
F0.894892
sg3
F145.03
sg4
F0.045063
sg5
I0
sg6
F300.98621
sg7
S'b3afc110-af0e-384f-acc4-2b6c6f6a5fcb'
p911
sg9
S'Photography'
p912
sg11
F0.603928
sg12
F6.7e-05
sg13
F0.298504
sg14
F5.0
sg15
F-6.635
sg16
F0.429734
sg17
F0.280862992364
sa(dp913
g2
F0.911783
sg3
F176.085
sg4
F0.049731
sg5
I2
sg6
F167.25288
sg7
S'b503df45-f0ac-30aa-ac3a-9f26c21d4e46'
p914
sg9
S'Pack up and Let Go'
p915
sg11
F0.160376
sg12
F9e-06
sg13
F0.395176
sg14
F4.0
sg15
F-4.445
sg16
F0.67322
sg17
F0.445573689595
sa(dp916
g2
F0.672105
sg3
F155.088
sg4
F0.048109
sg5
I0
sg6
F205.53098
sg7
S'9dc44f93-17c1-3110-8a89-4cdb4ac84456'
p917
sg9
S'Eating Me Alive'
p918
sg11
F0.088842
sg12
F0.073844
sg13
F0.504186
sg14
F4.0
sg15
F-8.108
sg16
F0.502669
sg17
F0.475421033375
sa(dp919
g2
F0.549529
sg3
F88.551
sg4
F0.040895
sg5
I3
sg6
F193.43628
sg7
S'961cdbb3-9917-3843-8d51-b3710a770d6f'
p920
sg9
g849
sg11
F0.181269
sg12
F0.074155
sg13
F0.57014
sg14
F4.0
sg15
F-16.451
sg16
F0.427406
sg17
F0.468001175241
sa(dp921
g2
F0.533015
sg3
F116.993
sg4
F0.040104
sg5
I4
sg6
F209.3254
sg7
S'820e4f7b-a096-30c7-8883-aeeb7f6d5a07'
p922
sg9
S'Lies (feat. Nomi Ruiz) - Original Mix'
p923
sg11
F0.085899
sg12
F0.099882
sg13
F0.765196
sg14
F4.0
sg15
F-10.321
sg16
F0.202573
sg17
F0.579305340907
sa(dp924
g2
F0.176575
sg3
F120.679
sg4
F0.044248
sg5
I4
sg6
F399.11955
sg7
S'2d6643b8-74e6-3ba7-8511-5a3feaa900cc'
p925
sg9
S'Sister Rosa (feat. Russell Malone)'
p926
sg11
F0.110476
sg12
F0.967405
sg13
F0.620702
sg14
F4.0
sg15
F-21.815
sg16
F0.452645
sg17
F0.441125679892
sa(dp927
g2
F0.752514
sg3
F129.758
sg4
F0.037746
sg5
I4
sg6
F249.63955
sg7
S'4b1db0e6-9a91-396a-90f7-7ccb9832566e'
p928
sg9
S'Love To Love'
p929
sg11
F0.09451
sg12
F0.040937
sg13
F0.595515
sg14
F4.0
sg15
F-7.492
sg16
F0.78162
sg17
F0.53413194612
sa(dp930
g2
F0.747775
sg3
F160.921
sg4
F0.059762
sg5
I2
sg6
F228.87955
sg7
S'c07ee430-0c2e-3498-8801-5bbd2a282cd9'
p931
sg9
S'Glitter'
p932
sg11
F0.250869
sg12
F0.000624
sg13
F0.233352
sg14
F3.0
sg15
F-6.373
sg16
F0.481657
sg17
F0.410896755641
sa(dp933
g2
F0.712762
sg3
F155.062
sg4
F0.251605
sg5
I0
sg6
F283.98621
sg7
S'edb5b53f-4e17-3f8f-b694-c40ecfc37fb7'
p934
sg9
S'Have to Be Free (feat. Strange People)'
p935
sg11
F0.310982
sg12
F0.000216
sg13
F0.595305
sg14
F4.0
sg15
F-8.465
sg16
F0.454267
sg17
F0.322102705505
sa(dp936
g2
F0.460745
sg3
F130.005
sg4
F0.028483
sg5
I4
sg6
F219.14077
sg7
S'91053808-43f6-3c23-8f06-b6163c8c5754'
p937
sg9
S'Love You Strongly'
p938
sg11
F0.10927
sg12
F0.888491
sg13
F0.643734
sg14
F4.0
sg15
F-9.749
sg16
F0.401846
sg17
F0.52000875725
sa(dp939
g2
F0.658386
sg3
F98.917
sg4
F0.032123
sg5
I1
sg6
F253.59955
sg7
S'0fda7217-ffd1-3bf6-ad18-bfcc4638bbcc'
p940
sg9
S'Te Amo'
p941
sg11
F0.113718
sg12
F0.337814
sg13
F0.464507
sg14
F4.0
sg15
F-12.563
sg16
F0.142421
sg17
F0.44888095234
sa(dp942
g2
F0.193937
sg3
F101.49
sg4
F0.040782
sg5
I1
sg6
F505.94023
sg7
S'6ac5d80a-fff1-33fa-88da-dcf05edb492f'
p943
sg9
S'MOON SUBLIME BACKING VOCALS'
p944
sg11
F0.258864
sg12
F0.993556
sg13
F0.281332
sg14
F3.0
sg15
F-17.258
sg16
F0.051078
sg17
F0.334107039043
sa(dp945
g2
F0.450006
sg3
F90.0
sg4
F0.087434
sg5
I3
sg6
F197.46245
sg7
S'65677dd7-0a3d-357d-b133-7c76ba4c36c3'
p946
sg9
S'Bus Passes and Happy Meals'
p947
sg11
F0.183298
sg12
F0.076198
sg13
F0.753783
sg14
F4.0
sg15
F-7.396
sg16
F0.038291
sg17
F0.497604815678
sa(dp948
g2
F0.585425
sg3
F184.037
sg4
F0.045324
sg5
I2
sg6
F285.21288
sg7
S'393f797f-ef49-3409-85fd-e98d1a18b102'
p949
sg9
S'The Architekt'
p950
sg11
F0.110565
sg12
F0.813997
sg13
F0.48153
sg14
F3.0
sg15
F-12.914
sg16
F0.203251
sg17
F0.50639870239
sa(dp951
g2
F0.285724
sg3
F117.241
sg4
F0.035603
sg5
I4
sg6
F332.38354
sg7
S'44cb129c-e153-34cc-bd86-8a4c4fdbed01'
p952
sg9
S'Switzerland'
p953
sg11
F0.099406
sg12
F0.416816
sg13
F0.402859
sg14
F4.0
sg15
F-16.354
sg16
F0.524041
sg17
F0.521161626023
sa(dp954
g2
F0.620842
sg3
F144.577
sg4
F0.028845
sg5
I0
sg6
F253.34921
sg7
S'44e49cbd-4d79-3ecd-a6cd-5872a25dc6f1'
p955
sg9
S'Collateral Damage'
p956
sg11
F0.09517
sg12
F0.118241
sg13
F0.415613
sg14
F4.0
sg15
F-10.927
sg16
F0.665074
sg17
F0.250719795666
sa(dp957
g2
F0.809652
sg3
F93.456
sg4
F0.027618
sg5
I3
sg6
F171.11574
sg7
S'fe648568-ed70-35b5-855a-53a425372a1d'
p958
sg9
S"She's Crying At My Funeral"
p959
sg11
F0.081129
sg12
F0.009917
sg13
F0.494333
sg14
F4.0
sg15
F-10.699
sg16
F0.798197
sg17
F0.250719795666
sa(dp960
g2
F0.519067
sg3
F129.727
sg4
F0.028551
sg5
I4
sg6
F201.679
sg7
S'5c31e1bb-46a8-34eb-b987-dee436d4c7a6'
p961
sg9
S"I Won't Cry"
p962
sg11
F0.100063
sg12
F0.025822
sg13
F0.372538
sg14
F4.0
sg15
F-14.575
sg16
F0.683052
sg17
F0.250719795666
sa(dp963
g2
F0.761979
sg3
F149.141
sg4
F0.033723
sg5
I0
sg6
F194.26023
sg7
S'3a6da5e6-4294-373e-950d-ba20f87d34bb'
p964
sg9
S'I Wish'
p965
sg11
F0.074573
sg12
F0.00298
sg13
F0.432004
sg14
F4.0
sg15
F-11.048
sg16
F0.664265
sg17
F0.250719795666
sa(dp966
g2
F0.750004
sg3
F144.473
sg4
F0.029054
sg5
I0
sg6
F196.74186
sg7
S'dd2aa1ee-5497-3184-be0c-c468dc6c21e5'
p967
sg9
S'In My World'
p968
sg11
F0.135786
sg12
F0.059512
sg13
F0.379865
sg14
F4.0
sg15
F-11.823
sg16
F0.931841
sg17
F0.250719795666
sa(dp969
g2
F0.559925
sg3
F114.069
sg4
F0.029072
sg5
I1
sg6
F256.4839
sg7
S'32517e7c-3df6-319a-b3ce-05b27fd60ee8'
p970
sg9
S'This'
p971
sg11
F0.122296
sg12
F0.033489
sg13
F0.46601
sg14
F4.0
sg15
F-11.873
sg16
F0.430864
sg17
F0.250719795666
sa(dp972
g2
F0.78413
sg3
F169.382
sg4
F0.034852
sg5
I2
sg6
F202.88063
sg7
S'cc8a384b-a165-3266-98e0-d339061ae824'
p973
sg9
S'From the Front Lines'
p974
sg11
F0.101212
sg12
F0.001588
sg13
F0.263809
sg14
F4.0
sg15
F-11.855
sg16
F0.755953
sg17
F0.250719795666
sa(dp975
g2
F0.809652
sg3
F93.456
sg4
F0.027618
sg5
I3
sg6
F171.11574
sg7
S'7ac33e0c-7cea-3aa0-8084-66980cff9753'
p976
sg9
g959
sg11
F0.081129
sg12
F0.009917
sg13
F0.494333
sg14
F4.0
sg15
F-10.699
sg16
F0.798197
sg17
F0.250719795666
sa(dp977
g2
F0.023053
sg3
F71.415
sg4
F0.045172
sg5
I3
sg6
F248.30621
sg7
S'76597302-2139-3948-b988-e6a8b1b94f31'
p978
sg9
S'Mimema'
p979
sg11
F0.11181
sg12
F0.600856
sg13
F0.176726
sg14
F4.0
sg15
F-28.545
sg16
F0.034256
sg17
F0.50639870239
sa(dp980
g2
F0.747775
sg3
F160.921
sg4
F0.059762
sg5
I2
sg6
F228.87955
sg7
S'7b51d58a-19fd-3243-8d46-972d2ba29375'
p981
sg9
g932
sg11
F0.250869
sg12
F0.000624
sg13
F0.233352
sg14
F3.0
sg15
F-6.373
sg16
F0.481657
sg17
F0.410896755641
sa(dp982
g2
F0.914983
sg3
F97.661
sg4
F0.064841
sg5
I1
sg6
F171.0
sg7
S'e8381769-d6d7-3434-af52-ab853e8e2783'
p983
sg9
S"Fuck You  I'm Famous (The Gothsicles Kind of Big Remix)"
p984
sg11
F0.310767
sg12
F2e-05
sg13
F0.401164
sg14
F4.0
sg15
F-3.996
sg16
F0.910866
sg17
F0.378714949787
sa(dp985
g2
F0.912737
sg3
F118.001
sg4
F0.058368
sg5
I4
sg6
F253.64585
sg7
S'cafc615c-e829-3ed7-b818-25c0eb892d37'
p986
sg9
S'Malignancy - Vnvpuppy Mix'
p987
sg11
F0.095214
sg12
F9.9e-05
sg13
F0.658586
sg14
F4.0
sg15
F-7.908
sg16
F0.648725
sg17
F0.406230548043
sa(dp988
g2
F0.987347
sg3
F103.984
sg4
F0.054547
sg5
I1
sg6
F277.74172
sg7
S'53b0e5d5-4308-3f86-a6f6-8d4f786c17cd'
p989
sg9
S'Mangka'
p990
sg11
F0.203868
sg12
F0.015444
sg13
F0.588374
sg14
F4.0
sg15
F-4.822
sg16
F0.380163
sg17
F0.376100752575
sa(dp991
g2
F0.8329
sg3
F133.983
sg4
F0.039974
sg5
I0
sg6
F316.90916
sg7
S'f7d531c4-630c-3cb1-a58c-36cfec16b9e7'
p992
sg9
S'Better - Cut.Rate.Box Remix'
p993
sg11
F0.396906
sg12
F0.025942
sg13
F0.610649
sg14
F4.0
sg15
F-7.596
sg16
F0.323561
sg17
F0.302439930972
sa(dp994
g2
F0.8598
sg3
F120.015
sg4
F0.048122
sg5
I4
sg6
F385.73193
sg7
S'74def078-db9c-3f22-977d-1996759f5cbf'
p995
sg9
S'Stupid Song (Inner Self Mix)'
p996
sg11
F0.083382
sg12
F0.03186
sg13
F0.610303
sg14
F4.0
sg15
F-7.474
sg16
F0.307322
sg17
F0.407898373708
sa(dp997
g2
F0.851453
sg3
F137.002
sg4
F0.034983
sg5
I0
sg6
F198.17474
sg7
S'd50f4ef3-8bcf-3d06-98ef-9bffdaddb0ad'
p998
sg9
S"I Won't Tell If You Don't"
p999
sg11
F0.349929
sg12
F0.003789
sg13
F0.625568
sg14
F4.0
sg15
F-6.651
sg16
F0.819338
sg17
F0.332636732592
sa(dp1000
g2
F0.927106
sg3
F107.029
sg4
F0.055129
sg5
I1
sg6
F273.2951
sg7
S'df2a5763-096b-3159-983c-eaf1ee38cafd'
p1001
sg9
S'Push (Tamo)'
p1002
sg11
F0.184737
sg12
F0.028728
sg13
F0.683948
sg14
F4.0
sg15
F-4.595
sg16
F0.891825
sg17
F0.398246286256
sa(dp1003
g2
F0.546878
sg3
F120.1
sg4
F0.066262
sg5
I4
sg6
F246.65619
sg7
S'8493fa56-04d1-3794-a4e8-23d9d870871d'
p1004
sg9
S'Electricity'
p1005
sg11
F0.29826
sg12
F0.031383
sg13
F0.62386
sg14
F4.0
sg15
F-10.109
sg16
F0.106722
sg17
F0.385852062349
sa(dp1006
g2
F0.698499
sg3
F120.057
sg4
F0.03608
sg5
I4
sg6
F321.7615
sg7
S'cf7fc50e-80ad-3a53-a8c1-42a6e283a7de'
p1007
sg9
S'Black Powder'
p1008
sg11
F0.093574
sg12
F0.000625
sg13
F0.496123
sg14
F4.0
sg15
F-8.137
sg16
F0.179908
sg17
F0.46174610332
sa(dp1009
g2
F0.943383
sg3
F175.01
sg4
F0.150737
sg5
I2
sg6
F272.0
sg7
S'219e742e-dd1b-33f5-aa80-9306739753eb'
p1010
sg9
S'To the Devil (Beati Mortui Covering Attrition)'
p1011
sg11
F0.101515
sg12
F0.005991
sg13
F0.431824
sg14
F4.0
sg15
F-5.991
sg16
F0.320572
sg17
F0.477722829188
sa(dp1012
g2
F0.859062
sg3
F100.996
sg4
F0.103712
sg5
I1
sg6
F294.74957
sg7
S'fbcd0c4c-e711-350b-8408-13b48ec1fd82'
p1013
sg9
S'A Different Face'
p1014
sg11
F0.054358
sg12
F0.00084
sg13
F0.576353
sg14
F4.0
sg15
F-5.756
sg16
F0.389383
sg17
F0.387065830955
sa(dp1015
g2
F0.691958
sg3
F116.023
sg4
F0.099029
sg5
I4
sg6
F289.63161
sg7
S'91628db0-3e01-3bcd-9e0e-7aa1f519a34c'
p1016
sg9
S'Lights Out - Go Fight Remix'
p1017
sg11
F0.295185
sg12
F0.001534
sg13
F0.784621
sg14
F4.0
sg15
F-4.98
sg16
F0.828404
sg17
F0.473784237384
sa(dp1018
g2
F0.862297
sg3
F131.958
sg4
F0.109022
sg5
I4
sg6
F177.97361
sg7
S'51ba24cf-8982-3e72-8b0b-acc06cce6c22'
p1019
sg9
S'Bloodrush'
p1020
sg11
F0.485942
sg12
F0.000139
sg13
F0.558892
sg14
F4.0
sg15
F-6.214
sg16
F0.492774
sg17
F0.300389542679
sa(dp1021
g2
F0.955374
sg3
F138.008
sg4
F0.097837
sg5
I0
sg6
F342.5
sg7
S'63d9bb3f-8a22-39e5-8e54-3401776ee901'
p1022
sg9
S'Beneath - Without a Net Remix'
p1023
sg11
F0.081474
sg12
F0.005272
sg13
F0.407501
sg14
F4.0
sg15
F-6.096
sg16
F0.287282
sg17
F0.467566258201
sa(dp1024
g2
F0.687781
sg3
F120.103
sg4
F0.107285
sg5
I4
sg6
F256.05596
sg7
S'e28787dd-1433-32a7-856a-bf5afb7dff70'
p1025
sg9
S'Metal Madness - Marble Madness Remix'
p1026
sg11
F0.64175
sg12
F0.005746
sg13
F0.597336
sg14
F4.0
sg15
F-6.501
sg16
F0.40734
sg17
F0.432647245384
sa(dp1027
g2
F0.95422
sg3
F106.002
sg4
F0.059075
sg5
I1
sg6
F367.24308
sg7
S'a61ff492-ff7d-3b5d-8715-0f85e2277aa9'
p1028
sg9
S'Cracks Start to Show'
p1029
sg11
F0.111179
sg12
F0.039958
sg13
F0.55701
sg14
F4.0
sg15
F-6.587
sg16
F0.237668
sg17
F0.427661987575
sa(dp1030
g2
F0.966259
sg3
F106.511
sg4
F0.040405
sg5
I1
sg6
F309.25016
sg7
S'ed702f9e-62ad-3dc7-a3fe-fb075fdd7eff'
p1031
sg9
S'Terminal Velocity'
p1032
sg11
F0.110441
sg12
F0.003101
sg13
F0.541433
sg14
F3.0
sg15
F-6.327
sg16
F0.439717
sg17
F0.419763876557
sa(dp1033
g2
F0.816646
sg3
F134.983
sg4
F0.081542
sg5
I0
sg6
F401.14907
sg7
S'4425bdc0-df50-312e-8b35-26277be361e8'
p1034
sg9
S'I Lost My Friend to a Video Game (ZExtended)'
p1035
sg11
F0.064528
sg12
F2.9e-05
sg13
F0.544973
sg14
F4.0
sg15
F-6.885
sg16
F0.488056
sg17
F0.415651613203
sa(dp1036
g2
F0.951174
sg3
F129.987
sg4
F0.03891
sg5
I4
sg6
F323.46635
sg7
S'4b869c72-b17f-36cb-9e13-9c0284873b10'
p1037
sg9
S'Western Rust - Interface Remix'
p1038
sg11
F0.541859
sg12
F0.006032
sg13
F0.593182
sg14
F4.0
sg15
F-7.101
sg16
F0.792543
sg17
F0.433902174913
sa(dp1039
g2
F0.883604
sg3
F134.96
sg4
F0.06789
sg5
I0
sg6
F263.83683
sg7
S'4921001d-7eff-3c97-9e65-48a3210b0982'
p1040
sg9
S'Recurring Nightmare'
p1041
sg11
F0.896567
sg12
F7.4e-05
sg13
F0.561534
sg14
F4.0
sg15
F-7.617
sg16
F0.380055
sg17
F0.368041826789
sa(dp1042
g2
F0.972402
sg3
F145.022
sg4
F0.120306
sg5
I0
sg6
F204.0868
sg7
S'c1565482-4bfe-3a13-a319-a776d91d30b5'
p1043
sg9
S'Suffer'
p1044
sg11
F0.186755
sg12
F0.003606
sg13
F0.660612
sg14
F4.0
sg15
F-6.892
sg16
F0.456334
sg17
F0.33175416583
sa(dp1045
g2
F0.995648
sg3
F132.01
sg4
F0.213424
sg5
I4
sg6
F266.27805
sg7
S'2265b6b4-b8a6-36d1-93af-2f4589a04bb8'
p1046
sg9
S'Condemnation - Filament 38 Remix'
p1047
sg11
F0.11904
sg12
F0.266627
sg13
F0.721596
sg14
F4.0
sg15
F-6.583
sg16
F0.031552
sg17
F0.309499507842
sa(dp1048
g2
F0.931457
sg3
F105.121
sg4
F0.130029
sg5
I1
sg6
F294.93288
sg7
S'e3f52581-baac-3166-a5e0-1d4c7181093a'
p1049
sg9
S'Parasiempre'
p1050
sg11
F0.754414
sg12
F4.8e-05
sg13
F0.296275
sg14
F4.0
sg15
F-3.713
sg16
F0.422664
sg17
F0.453297584614
sa(dp1051
g2
F0.834759
sg3
F106.959
sg4
F0.035601
sg5
I1
sg6
F190.01288
sg7
S'1fcac497-9489-327e-a70a-25455330ad53'
p1052
sg9
S'Undertaker'
p1053
sg11
F0.114062
sg12
F0.102033
sg13
F0.655757
sg14
F4.0
sg15
F-6.159
sg16
F0.718466
sg17
F0.442529590805
sa(dp1054
g2
F0.850472
sg3
F188.045
sg4
F0.072123
sg5
I2
sg6
F217.3893
sg7
S'1c7844e7-c234-3d43-af6c-9cd7ab31c43e'
p1055
sg9
S'Denial'
p1056
sg11
F0.349329
sg12
F0.013455
sg13
F0.386977
sg14
F4.0
sg15
F-7.114
sg16
F0.234812
sg17
F0.477815934222
sa(dp1057
g2
F0.068355
sg3
F129.199
sg4
F0.048055
sg5
I4
sg6
F217.34621
sg7
S'17ff5efc-0778-3776-aba6-7e7ee22f7c29'
p1058
sg9
S'The Stars'
p1059
sg11
F0.156913
sg12
F0.994858
sg13
F0.414006
sg14
F4.0
sg15
F-25.168
sg16
F0.287966
sg17
F0.487129948669
sa(dp1060
g2
F0.926629
sg3
F159.911
sg4
F0.059274
sg5
I2
sg6
F178.16925
sg7
S'facb3fd5-9904-3fc0-9d02-4d6f0ec49905'
p1061
sg9
S'Silver Lining'
p1062
sg11
F0.21002
sg12
F0.058829
sg13
F0.342658
sg14
F4.0
sg15
F-4.526
sg16
F0.437973
sg17
F0.537162486142
sa(dp1063
g2
F0.02746
sg3
F176.953
sg4
F0.064089
sg5
I2
sg6
F299.22621
sg7
S'77f19ce5-6bac-3b8e-aaf1-406de23e60d5'
p1064
sg9
S'Do You Hear What I Hear'
p1065
sg11
F0.115766
sg12
F0.768826
sg13
F0.458026
sg14
F4.0
sg15
F-23.084
sg16
F0.084312
sg17
F0.433222042245
sa(dp1066
g2
F0.366807
sg3
F93.584
sg4
F0.404477
sg5
I3
sg6
F23.97288
sg7
S'5ac48cff-bdfa-3eba-81ae-987f19f26d59'
p1067
sg9
S'I am trying to do that.'
p1068
sg11
F0.229263
sg12
F0.214992
sg13
F0.657751
sg14
F4.0
sg15
F-11.952
sg16
F0.614973
sg17
F0.439177508455
sa(dp1069
g2
F0.26371
sg3
F81.113
sg4
F0.03504
sg5
I3
sg6
F208.18621
sg7
S'9ea0da72-a943-306b-a835-6cb80ffb6658'
p1070
sg9
S'I Am Not Waiting Anymore'
p1071
sg11
F0.122065
sg12
F0.769379
sg13
F0.446855
sg14
F3.0
sg15
F-9.256
sg16
F0.157976
sg17
F0.509141139785
sa(dp1072
g2
F0.373573
sg3
F94.976
sg4
F0.029749
sg5
I3
sg6
F303.41288
sg7
S'daf603c6-13f0-3f45-b962-ca6baa0ddfc3'
p1073
sg9
S'Fergus Falls'
p1074
sg11
F0.092365
sg12
F0.517596
sg13
F0.424503
sg14
F4.0
sg15
F-11.259
sg16
F0.092823
sg17
F0.509141139785
sa(dp1075
g2
F0.817834
sg3
F127.021
sg4
F0.072031
sg5
I4
sg6
F232.03374
sg7
S'104d8816-f39d-35f0-bbf2-5a312982d405'
p1076
sg9
S'Osali Mabe'
p1077
sg11
F0.244384
sg12
F0.079183
sg13
F0.698875
sg14
F4.0
sg15
F-6.079
sg16
F0.88097
sg17
F0.518222718283
sa(dp1078
g2
F0.864317
sg3
F114.992
sg4
F0.081592
sg5
I1
sg6
F208.01288
sg7
S'2cf5024b-0ab9-3b70-a17a-27a798a9ed65'
p1079
sg9
S'Lights Down'
p1080
sg11
F0.324613
sg12
F0.004886
sg13
F0.655095
sg14
F4.0
sg15
F-6.263
sg16
F0.49414
sg17
F0.527641954497
sa(dp1081
g2
F0.811512
sg3
F174.998
sg4
F0.235074
sg5
I2
sg6
F345.86621
sg7
S'e1ac271c-6fbb-357e-a5db-6fe6524f9932'
p1082
sg9
S'Storm Warning'
p1083
sg11
F0.14248
sg12
F0.064936
sg13
F0.719902
sg14
F4.0
sg15
F-8.527
sg16
F0.672402
sg17
F0.423050041937
sa(dp1084
g2
F0.46621
sg3
F95.414
sg4
F0.064641
sg5
I3
sg6
F276.37506
sg7
S'ab43f24f-a343-3628-8378-1c80cc44acdc'
p1085
sg9
S"03 - The Bumpin' Contraption (The Recalibration)"
p1086
sg11
F0.136193
sg12
F0.152998
sg13
F0.828145
sg14
F4.0
sg15
F-9.161
sg16
F0.401077
sg17
F0.423050041937
sa(dp1087
g2
F0.658461
sg3
F120.087
sg4
F0.05528
sg5
I4
sg6
F135.99955
sg7
S'57752be5-d40d-34e0-91a1-8761084b0313'
p1088
sg9
S'Turn Up The Music - Single'
p1089
sg11
F0.096695
sg12
F0.009604
sg13
F0.792277
sg14
F4.0
sg15
F-6.297
sg16
F0.450104
sg17
F0.347514013097
sa(dp1090
g2
F0.926629
sg3
F159.911
sg4
F0.059274
sg5
I2
sg6
F178.16925
sg7
S'feaeed3e-bb1b-3c73-b472-044dbc821b59'
p1091
sg9
g1062
sg11
F0.21002
sg12
F0.058829
sg13
F0.342658
sg14
F4.0
sg15
F-4.526
sg16
F0.437973
sg17
F0.537162486142
sa(dp1092
g2
F0.797145
sg3
F85.844
sg4
F0.30875
sg5
I3
sg6
F285.37288
sg7
S'40026e6f-c916-3998-9568-e279403b857b'
p1093
sg9
S'Straight To The Top'
p1094
sg11
F0.10889
sg12
F0.166537
sg13
F0.359347
sg14
F4.0
sg15
F-5.875
sg16
F0.470509
sg17
F0.164109556313
sa(dp1095
g2
F0.155774
sg3
F111.403
sg4
F0.480727
sg5
I1
sg6
F6.39955
sg7
S'ba620ede-5108-33b6-99e6-367d2a76988f'
p1096
sg9
S'Of Mortals'
p1097
sg11
F0.148016
sg12
F0.995796
sg13
F0.484019
sg14
F1.0
sg15
F-21.043
sg16
F0.477002
sg17
F0.442279716647
sa(dp1098
g2
F0.586599
sg3
F169.935
sg4
F0.035589
sg5
I2
sg6
F206.51147
sg7
S'6b1e5eb1-d3c7-3494-8a71-e9f94f732d5b'
p1099
sg9
S'Draculas Tavern (Remix Arbic Six Song)'
p1100
sg11
F0.302727
sg12
F0.000594
sg13
F0.389682
sg14
F4.0
sg15
F-15.53
sg16
F0.505881
sg17
F0.258036867611
sa(dp1101
g2
F0.374452
sg3
F178.006
sg4
F0.028733
sg5
I2
sg6
F222.7688
sg7
S'c1bf6f52-97da-3de9-978e-ceab0c8ec160'
p1102
sg9
S'Your Apocalypse'
p1103
sg11
F0.106783
sg12
F0.876246
sg13
F0.459113
sg14
F4.0
sg15
F-10.842
sg16
F0.129723
sg17
F0.459953872927
sa(dp1104
g2
F0.639965
sg3
F120.434
sg4
F0.039215
sg5
I4
sg6
F201.54091
sg7
S'05afef5e-1265-3ca6-88c6-6558fb3bfab3'
p1105
sg9
S'Bad Blood'
p1106
sg11
F0.105275
sg12
F0.12482
sg13
F0.556076
sg14
F4.0
sg15
F-8.65
sg16
F0.603304
sg17
F0.459953872927
sa(dp1107
g2
F0.654304
sg3
F127.018
sg4
F0.033182
sg5
I4
sg6
F240.8224
sg7
S'c623f16e-ebc1-373b-b837-073814001865'
p1108
sg9
S'By Surprise'
p1109
sg11
F0.172881
sg12
F0.001323
sg13
F0.568756
sg14
F4.0
sg15
F-8.959
sg16
F0.5646
sg17
F0.490329923552
sa(dp1110
g2
F0.517516
sg3
F123.146
sg4
F0.081285
sg5
I4
sg6
F330.001
sg7
S'24ed52f8-c6e3-3ca7-b59a-f53f0d5549bc'
p1111
sg9
S'Until The Colours Run'
p1112
sg11
F0.180382
sg12
F0.430214
sg13
F0.20406
sg14
F4.0
sg15
F-11.474
sg16
F0.16192
sg17
F0.520956071682
sa(dp1113
g2
F0.692792
sg3
F147.912
sg4
F0.216578
sg5
I0
sg6
F253.00417
sg7
S'802334d9-5f11-3caa-ad71-85fb74062c7b'
p1114
sg9
S'One of My Homies'
p1115
sg11
F0.113728
sg12
F0.088229
sg13
F0.639507
sg14
F4.0
sg15
F-7.402
sg16
F0.769965
sg17
F0.450085095424
sa(dp1116
g2
F0.420222
sg3
F197.226
sg4
F0.056398
sg5
I2
sg6
F234.99955
sg7
S'bf931707-2b91-3fea-9724-4c530875bb75'
p1117
sg9
S'The Beat (Of Our Own Drum)'
p1118
sg11
F0.110845
sg12
F0.068649
sg13
F0.597131
sg14
F4.0
sg15
F-9.421
sg16
F0.544814
sg17
F0.542871697728
sa(dp1119
g2
F0.750684
sg3
F128.184
sg4
F0.036437
sg5
I4
sg6
F204.99955
sg7
S'b0487d03-09f5-3517-991d-823f0fe475b8'
p1120
sg9
S"Don't Lock the Door"
p1121
sg11
F0.124972
sg12
F0.35144
sg13
F0.657892
sg14
F4.0
sg15
F-5.357
sg16
F0.872422
sg17
F0.542871697728
sa(dp1122
g2
F0.762372
sg3
F121.148
sg4
F0.031982
sg5
I4
sg6
F205.03955
sg7
S'20af3088-1ccf-3604-910c-906958ea01e5'
p1123
sg9
S'Sister Ray Charles'
p1124
sg11
F0.106905
sg12
F0.524495
sg13
F0.65495
sg14
F4.0
sg15
F-5.215
sg16
F0.943307
sg17
F0.542871697728
sa(dp1125
g2
F0.707916
sg3
F136.009
sg4
F0.028838
sg5
I0
sg6
F215.59859
sg7
S'ef43f660-d0a8-367a-a198-9a729adaea5d'
p1126
sg9
S'I Wanna Fall in Love'
p1127
sg11
F0.163357
sg12
F0.264176
sg13
F0.530158
sg14
F4.0
sg15
F-5.367
sg16
F0.589864
sg17
F0.473572689386
sa(dp1128
g2
F0.384485
sg3
F100.16
sg4
F0.542745
sg5
I1
sg6
F182.46667
sg7
S'b664f3ac-7ce2-3110-9f48-cd66dac8f156'
p1129
sg9
S"Mailin' Goats"
p1130
sg11
F0.12377
sg12
F0.9909
sg13
F0.686607
sg14
F4.0
sg15
F-16.045
sg16
F0.557647
sg17
F0.382541001143
sa(dp1131
g2
F0.860233
sg3
F106.242
sg4
F0.073582
sg5
I1
sg6
F336.90621
sg7
S'ca02854a-8db9-3249-ac6c-a219f780efc6'
p1132
sg9
S'Everybody Want Sum'
p1133
sg11
F0.480007
sg12
F0.096361
sg13
F0.687352
sg14
F4.0
sg15
F-4.9
sg16
F0.823704
sg17
F0.486548390104
sa(dp1134
g2
F0.746454
sg3
F160.596
sg4
F0.173353
sg5
I2
sg6
F240.25288
sg7
S'513cf269-d70f-39db-96d0-eeb33a66521a'
p1135
sg9
S'Meanwhile...'
p1136
sg11
F0.03708
sg12
F0.093081
sg13
F0.588053
sg14
F4.0
sg15
F-9.284
sg16
F0.79914
sg17
F0.486548390104
sa(dp1137
g2
F0.436575
sg3
F96.259
sg4
F0.125087
sg5
I3
sg6
F264.97288
sg7
S'2d75df45-40cb-350d-a890-22d3a0db6384'
p1138
sg9
S'Do Ya'
p1139
sg11
F0.031702
sg12
F0.180897
sg13
F0.862764
sg14
F3.0
sg15
F-6.216
sg16
F0.890534
sg17
F0.486548390104
sa(dp1140
g2
F0.842754
sg3
F153.453
sg4
F0.130876
sg5
I0
sg6
F288.73288
sg7
S'dd710170-1efb-343e-8b82-664d343a495f'
p1141
sg9
S'Oughta Know Better'
p1142
sg11
F0.133341
sg12
F0.270799
sg13
F0.564903
sg14
F4.0
sg15
F-4.995
sg16
F0.74668
sg17
F0.486548390104
sa(dp1143
g2
F0.445069
sg3
F101.423
sg4
F0.034441
sg5
I1
sg6
F329.66485
sg7
S'e27f39e7-36c6-3ec9-8dbf-42ba23419839'
p1144
sg9
S'Liar'
p1145
sg11
F0.564404
sg12
F0.31146
sg13
F0.601952
sg14
F4.0
sg15
F-18.268
sg16
F0.870399
sg17
F0.224822874628
sa(dp1146
g2
F0.517516
sg3
F123.146
sg4
F0.081285
sg5
I4
sg6
F330.001
sg7
S'22c25a3b-2bd2-3eb1-ae53-2a6108320b65'
p1147
sg9
g1112
sg11
F0.180382
sg12
F0.430214
sg13
F0.20406
sg14
F4.0
sg15
F-11.474
sg16
F0.16192
sg17
F0.520956071682
sa(dp1148
g2
F0.72323
sg3
F81.847
sg4
F0.13143
sg5
I3
sg6
F330.78844
sg7
S'd1fe0ef6-fbec-33c8-9e8b-72e0787bcf01'
p1149
sg9
S'Frack Track (feat. Nice Nate)'
p1150
sg11
F0.265032
sg12
F0.079133
sg13
F0.354819
sg14
F4.0
sg15
F-4.394
sg16
F0.536707
sg17
F0.466890261436
sa(dp1151
g2
F0.872723
sg3
F87.537
sg4
F0.238931
sg5
I3
sg6
F214.1829
sg7
S'e2f6b5fd-a8d5-34fc-8115-36320d86dfb4'
p1152
sg9
S'Anyway (feat. J. Glaze)'
p1153
sg11
F0.082214
sg12
F0.069653
sg13
F0.412251
sg14
F4.0
sg15
F-5.069
sg16
F0.685455
sg17
F0.466890261436
sa(dp1154
g2
F0.744624
sg3
F132.011
sg4
F0.132774
sg5
I4
sg6
F222.9541
sg7
S'b4094667-6d8a-3436-b855-a439fa006010'
p1155
sg9
S'Dancing with Lightning (feat. J. Glaze)'
p1156
sg11
F0.104199
sg12
F0.006033
sg13
F0.743242
sg14
F4.0
sg15
F-3.623
sg16
F0.438774
sg17
F0.466890261436
sa(dp1157
g2
F0.899889
sg3
F89.684
sg4
F0.062503
sg5
I3
sg6
F205.33288
sg7
S'fc7371ff-43ca-3598-8c4f-67d8acd05923'
p1158
sg9
S'Today (feat. Headphone Activist)'
p1159
sg11
F0.151912
sg12
F0.000332
sg13
F0.40005
sg14
F4.0
sg15
F-2.111
sg16
F0.302611
sg17
F0.466890261436
sa(dp1160
g2
F0.673266
sg3
F90.197
sg4
F0.128809
sg5
I3
sg6
F221.33288
sg7
S'6a02f7a0-dda6-33d7-a200-e3d39aa6e3af'
p1161
sg9
S'The 5th Element (feat. Golden Day)'
p1162
sg11
F0.056777
sg12
F0.278849
sg13
F0.583028
sg14
F4.0
sg15
F-4.06
sg16
F0.554298
sg17
F0.466890261436
sa(dp1163
g2
F0.762594
sg3
F122.367
sg4
F0.063766
sg5
I4
sg6
F330.66621
sg7
S'0a4d5dc4-262d-3727-8b69-6466bb7a24bd'
p1164
sg9
S'Rise (feat. the Siren)'
p1165
sg11
F0.138971
sg12
F0.128966
sg13
F0.370071
sg14
F1.0
sg15
F-5.758
sg16
F0.240276
sg17
F0.466890261436
sa(dp1166
g2
F0.962408
sg3
F80.0
sg4
F0.331392
sg5
I3
sg6
F283.49955
sg7
S'02fc44b1-d4d2-3a79-be0e-4e556939dc19'
p1167
sg9
S'I Know You (feat. Charlton Samuels)'
p1168
sg11
F0.394031
sg12
F0.05584
sg13
F0.28228
sg14
F4.0
sg15
F-2.324
sg16
F0.577203
sg17
F0.466890261436
sa(dp1169
g2
F0.419578
sg3
F122.725
sg4
F0.228955
sg5
I4
sg6
F187.31624
sg7
S'3869bfb3-e2bf-3133-b1ae-e71800bf8903'
p1170
sg9
S'Indo Amnesia (feat. Nice Nate)'
p1171
sg11
F0.104806
sg12
F0.247868
sg13
F0.507019
sg14
F4.0
sg15
F-7.673
sg16
F0.354271
sg17
F0.466890261436
sa(dp1172
g2
F0.727414
sg3
F108.038
sg4
F0.064392
sg5
I1
sg6
F177.77732
sg7
S'5bd18285-b0c6-35b3-9f8c-6d22eeb56331'
p1173
sg9
S'Vision (feat. Golden Day)'
p1174
sg11
F0.142416
sg12
F0.235524
sg13
F0.697882
sg14
F4.0
sg15
F-5.825
sg16
F0.403687
sg17
F0.466890261436
sa(dp1175
g2
F0.725615
sg3
F89.921
sg4
F0.29219
sg5
I3
sg6
F258.66621
sg7
S'25b7caef-d5a9-38d2-a587-9f3e6265d5e7'
p1176
sg9
S'Gotta Love Me (feat. Golden Day & M. Tomlin)'
p1177
sg11
F0.117211
sg12
F0.586624
sg13
F0.364998
sg14
F4.0
sg15
F-6.698
sg16
F0.448094
sg17
F0.466890261436
sa(dp1178
g2
F0.679476
sg3
F140.024
sg4
F0.044644
sg5
I0
sg6
F306.03079
sg7
S'a4d9339a-a86b-3273-bcad-98ef1e66bf6f'
p1179
sg9
S'Belong (feat. Headphone Activist)'
p1180
sg11
F0.243577
sg12
F0.182759
sg13
F0.52916
sg14
F4.0
sg15
F-6.793
sg16
F0.115253
sg17
F0.466890261436
sa(dp1181
g2
F0.493471
sg3
F112.704
sg4
F0.054681
sg5
I1
sg6
F267.25333
sg7
S'027328de-bf87-3111-b356-08a9e212f395'
p1182
sg9
S'Feel Safe'
p1183
sg11
F0.119063
sg12
F0.094397
sg13
F0.702557
sg14
F4.0
sg15
F-8.959
sg16
F0.518395
sg17
F0.562163416495
sa(dp1184
g2
F0.727621
sg3
F157.973
sg4
F0.15248
sg5
I2
sg6
F188.92358
sg7
S'4a7cdd77-ab21-3725-b60a-94120d1433fe'
p1185
sg9
S"I'm Gone (feat. Jim Wes)"
p1186
sg11
F0.337779
sg12
F0.152191
sg13
F0.599447
sg14
F4.0
sg15
F-6.99
sg16
F0.545049
sg17
F0.446822875739
sa(dp1187
g2
F0.865466
sg3
F140.894
sg4
F0.034981
sg5
I0
sg6
F216.74621
sg7
S'50b5f1ef-7fa9-39f1-a9b5-f3709eae40ac'
p1188
sg9
S'Black Lotus'
p1189
sg11
F0.208071
sg12
F5.4e-05
sg13
F0.41383
sg14
F4.0
sg15
F-5.168
sg16
F0.364126
sg17
F0.418299168636
sa(dp1190
g2
F0.459731
sg3
F131.087
sg4
F0.30374
sg5
I4
sg6
F146.42866
sg7
S'4ec87ed5-3d55-3752-bc1b-2713b5014ff9'
p1191
sg9
S'Atmosphere (feat. P.H. The Vocal Beast)'
p1192
sg11
F0.099028
sg12
F0.155778
sg13
F0.826636
sg14
F4.0
sg15
F-11.399
sg16
F0.852593
sg17
F0.35271847675
sa(dp1193
g2
F0.769413
sg3
F113.004
sg4
F0.065135
sg5
I1
sg6
F192.10621
sg7
S'71c069bc-402e-31d6-b0d8-85bb2941a602'
p1194
sg9
S'Stick Up Kids'
p1195
sg11
F0.093219
sg12
F0.016253
sg13
F0.673241
sg14
F4.0
sg15
F-6.761
sg16
F0.616901
sg17
F0.488629260238
sa(dp1196
g2
F0.90722
sg3
F135.108
sg4
F0.181556
sg5
I0
sg6
F197.15955
sg7
S'6f52fbcc-6f11-3880-bd10-c9fd9e37a802'
p1197
sg9
S'Dope.Fly.Fresh Feat. Boss Of Nova'
p1198
sg11
F0.177694
sg12
F0.126564
sg13
F0.653527
sg14
F4.0
sg15
F-4.621
sg16
F0.515755
sg17
F0.446822875739
sa(dp1199
g2
F0.798543
sg3
F166.128
sg4
F0.046468
sg5
I2
sg6
F197.97288
sg7
S'7813b220-7af8-3c2e-b9aa-8373f19a4a6a'
p1200
sg9
S'Already Young'
p1201
sg11
F0.14028
sg12
F1.8e-05
sg13
F0.325977
sg14
F4.0
sg15
F-4.084
sg16
F0.281717
sg17
F0.418299168636
sa(dp1202
g2
F0.578132
sg3
F109.17
sg4
F0.054122
sg5
I1
sg6
F259.41288
sg7
S'380c5ebe-9d31-3e6f-9da6-6fc0bd22968f'
p1203
sg9
S'All the Lights'
p1204
sg11
F0.112187
sg12
F0.066757
sg13
F0.326585
sg14
F5.0
sg15
F-8.129
sg16
F0.257545
sg17
F0.487558872394
sa(dp1205
g2
F0.207823
sg3
F114.831
sg4
F0.030752
sg5
I1
sg6
F220.75955
sg7
S'66bf66d2-79ba-352b-bd37-298a8b730f94'
p1206
sg9
S'Rings On Fingers'
p1207
sg11
F0.084266
sg12
F0.639278
sg13
F0.546866
sg14
F4.0
sg15
F-13.227
sg16
F0.224056
sg17
F0.360503634538
sa(dp1208
g2
F0.753183
sg3
F125.484
sg4
F0.084501
sg5
I4
sg6
F195.18621
sg7
S'bb5375c2-22d9-3128-a9c9-221243b62933'
p1209
sg9
S"Can't Back Down"
p1210
sg11
F0.031517
sg12
F0.002128
sg13
F0.701018
sg14
F4.0
sg15
F-6.231
sg16
F0.616648
sg17
F0.488629260238
sa(dp1211
g2
F0.462789
sg3
F149.936
sg4
F0.071855
sg5
I0
sg6
F164.34621
sg7
S'236d7414-c909-32ba-9728-7819ecae6a09'
p1212
sg9
S'All Along'
p1213
sg11
F0.09447
sg12
F0.325937
sg13
F0.562277
sg14
F4.0
sg15
F-10.067
sg16
F0.542521
sg17
F0.360503634538
sa(dp1214
g2
F0.777538
sg3
F117.144
sg4
F0.027627
sg5
I4
sg6
F250.22621
sg7
S'13cd8792-2aed-3133-a1f5-5a6d31aa1437'
p1215
sg9
S'You Better Believe It'
p1216
sg11
F0.106893
sg12
F0.01194
sg13
F0.658961
sg14
F4.0
sg15
F-6.156
sg16
F0.888679
sg17
F0.515630567528
sa(dp1217
g2
F0.933476
sg3
F173.382
sg4
F0.04975
sg5
I2
sg6
F156.45288
sg7
S'55c595e0-ce6c-3a58-befb-36b8c74ef21d'
p1218
sg9
g98
sg11
F0.248992
sg12
F4e-05
sg13
F0.307052
sg14
F4.0
sg15
F-6.703
sg16
F0.428135
sg17
F0.487558872394
sa(dp1219
g2
F0.826882
sg3
F94.97
sg4
F0.047333
sg5
I3
sg6
F233.61288
sg7
S'de1e8d13-3cbf-39b9-92f4-56f58711d780'
p1220
sg9
S'Family Planning'
p1221
sg11
F0.114648
sg12
F0.124715
sg13
F0.405738
sg14
F3.0
sg15
F-5.493
sg16
F0.337131
sg17
F0.529591888426
sa(dp1222
g2
F0.59243
sg3
F112.571
sg4
F0.027274
sg5
I1
sg6
F210.03955
sg7
S'3e1f83ef-16e5-3e2b-b8e7-b33986135929'
p1223
sg9
S'Murder Room'
p1224
sg11
F0.118089
sg12
F0.099267
sg13
F0.688133
sg14
F4.0
sg15
F-5.261
sg16
F0.70769
sg17
F0.529591888426
sa(dp1225
g2
F0.414351
sg3
F120.901
sg4
F0.029093
sg5
I4
sg6
F197.65288
sg7
S'b96b0342-2dd6-3969-9f79-694ce77180be'
p1226
sg9
S'Older Brother'
p1227
sg11
F0.120294
sg12
F0.450605
sg13
F0.574715
sg14
F4.0
sg15
F-11.148
sg16
F0.365549
sg17
F0.529591888426
sa(dp1228
g2
F0.581168
sg3
F87.976
sg4
F0.025015
sg5
I3
sg6
F264.15955
sg7
S'b56ea300-6d25-36c8-869b-4ffcc1383151'
p1229
sg9
S'Allison'
p1230
sg11
F0.071992
sg12
F0.112266
sg13
F0.614593
sg14
F4.0
sg15
F-7.49
sg16
F0.33376
sg17
F0.529591888426
sa(dp1231
g2
F0.860198
sg3
F170.035
sg4
F0.051305
sg5
I2
sg6
F199.90621
sg7
S'f015d77f-43e1-3c40-a0f3-7ea3e0febe79'
p1232
sg9
S'Rose Mary Stretch'
p1233
sg11
F0.213605
sg12
F0.007002
sg13
F0.554987
sg14
F3.0
sg15
F-5.1
sg16
F0.717108
sg17
F0.529591888426
sa(dp1234
g2
F0.697764
sg3
F90.037
sg4
F0.025721
sg5
I3
sg6
F269.39955
sg7
S'cb3d4bce-ca0c-3234-87ef-15b0e2fea329'
p1235
sg9
S'The Annexation Of Puerto Rico'
p1236
sg11
F0.083881
sg12
F0.409346
sg13
F0.534913
sg14
F4.0
sg15
F-6.725
sg16
F0.266517
sg17
F0.529591888426
sa(dp1237
g2
F0.783922
sg3
F132.002
sg4
F0.038396
sg5
I4
sg6
F321.5912
sg7
S'5a61cd74-20ae-371f-8a19-14abaebd25bf'
p1238
sg9
S'None Shall Sleep'
p1239
sg11
F0.221057
sg12
F0.171774
sg13
F0.478827
sg14
F4.0
sg15
F-7.642
sg16
F0.117242
sg17
F0.529591888426
sa(dp1240
g2
F0.72856
sg3
F139.932
sg4
F0.068888
sg5
I0
sg6
F111.46512
sg7
S'3880f4d7-5765-3582-8ba4-3295f4869c4b'
p1241
sg9
S'So Into You'
p1242
sg11
F0.208833
sg12
F0.01052
sg13
F0.524872
sg14
F4.0
sg15
F-9.617
sg16
F0.406386
sg17
F0.245935556317
sa(dp1243
g2
F0.538261
sg3
F92.121
sg4
F0.278552
sg5
I3
sg6
F204.30431
sg7
S'b61294e1-6829-3f5e-bf23-bedd45f0f89b'
p1244
sg9
S'Olive Garden'
p1245
sg11
F0.119293
sg12
F0.234366
sg13
F0.671557
sg14
F4.0
sg15
F-10.518
sg16
F0.545002
sg17
F0.245935556317
sa(dp1246
g2
F0.486577
sg3
F96.354
sg4
F0.234839
sg5
I3
sg6
F249.71819
sg7
S'b5582503-89f4-3e89-b9a7-42201c4d9870'
p1247
sg9
S'Imagine'
p1248
sg11
F0.117669
sg12
F0.127341
sg13
F0.789486
sg14
F4.0
sg15
F-10.247
sg16
F0.692158
sg17
F0.245935556317
sa(dp1249
g2
F0.431946
sg3
F87.821
sg4
F0.185972
sg5
I3
sg6
F190.77288
sg7
S'06c2af34-72e0-34bc-9967-0b02019745dc'
p1250
sg9
S'Heavenly Father'
p1251
sg11
F0.127567
sg12
F0.572333
sg13
F0.706462
sg14
F4.0
sg15
F-9.291
sg16
F0.783823
sg17
F0.245935556317
sa(dp1252
g2
F0.361399
sg3
F75.091
sg4
F0.148545
sg5
I3
sg6
F248.00717
sg7
S'6826aab3-e154-3952-84cb-13f562573284'
p1253
sg9
S'I Will'
p1254
sg11
F0.129138
sg12
F0.540319
sg13
F0.838701
sg14
F4.0
sg15
F-11.587
sg16
F0.247653
sg17
F0.245935556317
sa(dp1255
g2
F0.27134
sg3
F79.986
sg4
F0.028856
sg5
I3
sg6
F284.89098
sg7
S'63e716a3-15ea-307f-9050-9c655039ea71'
p1256
sg9
S'Uniqueness'
p1257
sg11
F0.108596
sg12
F0.931002
sg13
F0.371784
sg14
F3.0
sg15
F-11.96
sg16
F0.084018
sg17
F0.457844430734
sa(dp1258
g2
F0.801005
sg3
F144.049
sg4
F0.069896
sg5
I0
sg6
F171.22621
sg7
S'268a8c1d-6c03-37d8-9d3c-c332bb06a19d'
p1259
sg9
S'Intro'
p1260
sg11
F0.379013
sg12
F0.018552
sg13
F0.472562
sg14
F4.0
sg15
F-12.649
sg16
F0.128958
sg17
F0.466138835288
sa(dp1261
g2
F0.592717
sg3
F140.012
sg4
F0.262772
sg5
I0
sg6
F373.71383
sg7
S'180e63d2-9091-33bc-b948-6613a187a8b9'
p1262
sg9
S'Bassturbation - Oyaebu Break Cut'
p1263
sg11
F0.096424
sg12
F0.000393
sg13
F0.722479
sg14
F4.0
sg15
F-7.398
sg16
F0.282421
sg17
F0.488779257272
sa(dp1264
g2
F0.867185
sg3
F131.923
sg4
F0.067159
sg5
I4
sg6
F187.25333
sg7
S'd72e32bb-017b-3aae-9083-17fd3188e756'
p1265
sg9
S'Other Side'
p1266
sg11
F0.099743
sg12
F0.001513
sg13
F0.537049
sg14
F4.0
sg15
F-6.479
sg16
F0.677895
sg17
F0.493533822468
sa(dp1267
g2
F0.950909
sg3
F128.0
sg4
F0.064321
sg5
I4
sg6
F377.41669
sg7
S'f1bb0b10-cbd8-39a5-b106-3be6f1cc34bd'
p1268
sg9
S'Back to Salvador (Back to the 2003 original mix)'
p1269
sg11
F0.015867
sg12
F0.000128
sg13
F0.701111
sg14
F4.0
sg15
F-8.966
sg16
F0.469967
sg17
F0.431659383237
sa(dp1270
g2
F0.022272
sg3
F166.383
sg4
F0.032896
sg5
I2
sg6
F272.59955
sg7
S'e160be12-e1fe-3804-9689-4a36ff5681a0'
p1271
sg9
S'Amazing Grace/Silent Night'
p1272
sg11
F0.123024
sg12
F0.983095
sg13
F0.265498
sg14
F4.0
sg15
F-21.385
sg16
F0.067347
sg17
F0.491936204326
sa(dp1273
g2
F0.820941
sg3
F125.882
sg4
F0.096385
sg5
I4
sg6
F258.87955
sg7
S'c036b465-74c9-3c3e-b15c-be59b7caad8f'
p1274
sg9
S'Going and Going. and Going. (Feat. rjd2 & Aaron Livingston)'
p1275
sg11
F0.138491
sg12
F0.028226
sg13
F0.586116
sg14
F4.0
sg15
F-7.261
sg16
F0.157252
sg17
F0.460081479025
sa(dp1276
g2
F0.49506
sg3
F138.979
sg4
F0.029786
sg5
I0
sg6
F164.67982
sg7
S'1a526d92-7d4e-3595-ad6c-8a20fc791be4'
p1277
sg9
S"I Won't Wait (feat. Conor Oberst)"
p1278
sg11
F0.11303
sg12
F0.486549
sg13
F0.605496
sg14
F4.0
sg15
F-9.455
sg16
F0.618432
sg17
F0.439061034445
sa(dp1279
g2
F0.797162
sg3
F159.925
sg4
F0.088578
sg5
I2
sg6
F349.69819
sg7
S'329ea40b-ceee-3bd0-b56d-a0f1a5d94995'
p1280
sg9
S"I'm Flexible"
p1281
sg11
F0.283787
sg12
F0.000289
sg13
F0.506863
sg14
F4.0
sg15
F-7.856
sg16
F0.506188
sg17
F0.505085747993
sa(dp1282
g2
F0.767399
sg3
F99.989
sg4
F0.030568
sg5
I1
sg6
F180.00268
sg7
S'e7e605af-663a-3c7b-a5cc-f99555e0e20a'
p1283
sg9
S'Aitzaz'
p1284
sg11
F0.111319
sg12
F0.000218
sg13
F0.605617
sg14
F4.0
sg15
F-7.934
sg16
F0.260782
sg17
F0.491604045251
sa(dp1285
g2
F0.804271
sg3
F136.477
sg4
F0.037397
sg5
I0
sg6
F163.97288
sg7
S'6f01aabb-7219-39a3-bed6-47982681e6f0'
p1286
sg9
S'Double Exposure'
p1287
sg11
F0.249077
sg12
F0.001577
sg13
F0.509203
sg14
F4.0
sg15
F-6.304
sg16
F0.897084
sg17
F0.47170933954
sa(dp1288
g2
F0.906481
sg3
F134.946
sg4
F0.105903
sg5
I0
sg6
F144.54621
sg7
S'12dd6fce-3ef5-3163-a669-581ab8571111'
p1289
sg9
S"I Don't Get That"
p1290
sg11
F0.116427
sg12
F0.30592
sg13
F0.486344
sg14
F4.0
sg15
F-2.98
sg16
F0.528367
sg17
F0.47170933954
sa(dp1291
g2
F0.892588
sg3
F130.982
sg4
F0.035805
sg5
I4
sg6
F203.65288
sg7
S'6def7a01-dcfa-3acb-8a9c-4ceaf8f79bf1'
p1292
sg9
S'Big Waves'
p1293
sg11
F0.687127
sg12
F0.001438
sg13
F0.536296
sg14
F4.0
sg15
F-4.903
sg16
F0.321535
sg17
F0.450018983089
sa(dp1294
g2
F0.237602
sg3
F99.802
sg4
F0.03156
sg5
I1
sg6
F432.32717
sg7
S'eddef3e6-0e2a-3718-a945-b638559b8855'
p1295
sg9
S'Another Life'
p1296
sg11
F0.161063
sg12
F0.478931
sg13
F0.315956
sg14
F4.0
sg15
F-18.736
sg16
F0.034516
sg17
F0.0627598776851
sa(dp1297
g2
F0.630527
sg3
F156.032
sg4
F0.0389
sg5
I0
sg6
F176.26621
sg7
S'ea36de16-25f4-3528-b3b8-2a67088c8589'
p1298
sg9
S'Coming Down'
p1299
sg11
F0.111614
sg12
F0.050127
sg13
F0.549475
sg14
F3.0
sg15
F-7.523
sg16
F0.30577
sg17
F0.450018983089
sa(dp1300
g2
F0.553807
sg3
F103.947
sg4
F0.032653
sg5
I1
sg6
F280.04
sg7
S'a6b00045-81cd-3905-94f4-b5ae9bc45f25'
p1301
sg9
S'Stay With Me'
p1302
sg11
F0.121205
sg12
F0.016466
sg13
F0.325497
sg14
F4.0
sg15
F-8.945
sg16
F0.135632
sg17
F0.450018983089
sa(dp1303
g2
F0.723023
sg3
F161.124
sg4
F0.036045
sg5
I2
sg6
F256.82667
sg7
S'fd9b10bc-de79-3a7f-a80c-f5f04c6ff934'
p1304
sg9
S'The Long Haul'
p1305
sg11
F0.068335
sg12
F0.008894
sg13
F0.449545
sg14
F4.0
sg15
F-8.084
sg16
F0.548256
sg17
F0.450018983089
sa(dp1306
g2
F0.882658
sg3
F146.003
sg4
F0.304427
sg5
I0
sg6
F288.87619
sg7
S'a1c6adba-c5aa-3f6a-8c8b-4f129741605f'
p1307
sg9
S'B-N-M'
p1308
sg11
F0.083497
sg12
F0.002205
sg13
F0.902268
sg14
F4.0
sg15
F-4.822
sg16
F0.868148
sg17
F0.334559809193
sa(dp1309
g2
F0.554576
sg3
F169.981
sg4
F0.248936
sg5
I2
sg6
F220.77497
sg7
S'88c038a3-c38b-3e2e-9375-7667726bb34a'
p1310
sg9
S'Times Have Changed'
p1311
sg11
F0.083612
sg12
F0.002304
sg13
F0.797796
sg14
F4.0
sg15
F-7.341
sg16
F0.948321
sg17
F0.334559809193
sa(dp1312
g2
F0.84615
sg3
F150.045
sg4
F0.074018
sg5
I0
sg6
F210.40435
sg7
S'61fd7e41-d0ae-3f11-b0ec-4f6ff3be5f7d'
p1313
sg9
S'Red Horns'
p1314
sg11
F0.149397
sg12
F0.016383
sg13
F0.808511
sg14
F4.0
sg15
F-3.837
sg16
F0.826734
sg17
F0.334559809193
sa(dp1315
g2
F0.722093
sg3
F86.667
sg4
F0.229668
sg5
I3
sg6
F265.81007
sg7
S'10069e19-de55-315b-b4d8-4e5aea553739'
p1316
sg9
S"Dat's Dead"
p1317
sg11
F0.049779
sg12
F0.004923
sg13
F0.600811
sg14
F5.0
sg15
F-6.212
sg16
F0.946751
sg17
F0.334559809193
sa(dp1318
g2
F0.921691
sg3
F115.007
sg4
F0.207129
sg5
I1
sg6
F225.8166
sg7
S'bcdc344b-717a-3fb1-818d-3afeb60d98fc'
p1319
sg9
S'Party Like a Muhg'
p1320
sg11
F0.293966
sg12
F0.037826
sg13
F0.908499
sg14
F4.0
sg15
F-4.413
sg16
F0.69931
sg17
F0.334559809193
sa(dp1321
g2
F0.833939
sg3
F169.88
sg4
F0.086707
sg5
I2
sg6
F296.08599
sg7
S'fa114fb3-dc93-3874-8d3b-904af5c57aac'
p1322
sg9
S'Swet'
p1323
sg11
F0.195626
sg12
F0.066556
sg13
F0.649846
sg14
F4.0
sg15
F-5.045
sg16
F0.633679
sg17
F0.334559809193
sa(dp1324
g2
F0.891944
sg3
F174.099
sg4
F0.112418
sg5
I2
sg6
F275.21415
sg7
S'bf381593-0b92-31f4-8a73-da2d77dad132'
p1325
sg9
S'Greatness'
p1326
sg11
F0.079817
sg12
F0.000133
sg13
F0.789928
sg14
F4.0
sg15
F-6.609
sg16
F0.501164
sg17
F0.334559809193
sa(dp1327
g2
F0.821432
sg3
F72.959
sg4
F0.353064
sg5
I3
sg6
F197.31701
sg7
S'05cd5dde-6ef2-3693-997f-9cc0dad9ca2a'
p1328
sg9
S'Nightmares of a Lonely Heart'
p1329
sg11
F0.078044
sg12
F0.047104
sg13
F0.732282
sg14
F4.0
sg15
F-7.063
sg16
F0.409954
sg17
F0.334559809193
sa(dp1330
g2
F0.524264
sg3
F92.989
sg4
F0.268882
sg5
I3
sg6
F248.75211
sg7
S'f2e7dfa0-49eb-392b-ae73-788a3b341af5'
p1331
sg9
S"It's a Dc Thing"
p1332
sg11
F0.185987
sg12
F0.000139
sg13
F0.818198
sg14
F4.0
sg15
F-6.924
sg16
F0.403993
sg17
F0.334559809193
sa(dp1333
g2
F0.910037
sg3
F105.465
sg4
F0.155498
sg5
I1
sg6
F383.2566
sg7
S'86c0356b-2eb9-33cc-bc41-0593162d44a9'
p1334
sg9
S'Like Open Doors'
p1335
sg11
F0.206049
sg12
F0.333901
sg13
F0.782179
sg14
F4.0
sg15
F-6.187
sg16
F0.582956
sg17
F0.334559809193
sa(dp1336
g2
F0.841297
sg3
F130.024
sg4
F0.162462
sg5
I4
sg6
F313.92762
sg7
S'215d9561-02ec-383d-9413-7e4ebf3a34d9'
p1337
sg9
S'Dc On Tha Rise'
p1338
sg11
F0.068422
sg12
F0.011345
sg13
F0.822194
sg14
F4.0
sg15
F-4.731
sg16
F0.705009
sg17
F0.334559809193
sa(dp1339
g2
F0.69822
sg3
F89.997
sg4
F0.27371
sg5
I3
sg6
F223.52
sg7
S'811ffcb9-f04f-3142-9c47-9d75eb5391b4'
p1340
sg9
S'Flow Godly'
p1341
sg11
F0.047341
sg12
F0.002308
sg13
F0.85657
sg14
F4.0
sg15
F-8.786
sg16
F0.867725
sg17
F0.334559809193
sa(dp1342
g2
F0.832597
sg3
F180.005
sg4
F0.274981
sg5
I2
sg6
F217.11782
sg7
S'9930990b-b34a-32c3-af91-209003967563'
p1343
sg9
S'Can I Flow?'
p1344
sg11
F0.147221
sg12
F0.060725
sg13
F0.696613
sg14
F4.0
sg15
F-4.786
sg16
F0.704557
sg17
F0.334559809193
sa(dp1345
g2
F0.944587
sg3
F109.949
sg4
F0.301469
sg5
I1
sg6
F217.79701
sg7
S'ca265c0d-f503-3002-a3f0-8b82aee94143'
p1346
sg9
S'And Tha Story Goes...'
p1347
sg11
F0.08852
sg12
F0.02132
sg13
F0.634933
sg14
F4.0
sg15
F-5.541
sg16
F0.649886
sg17
F0.334559809193
sa(dp1348
g2
F0.591995
sg3
F92.038
sg4
F0.274198
sg5
I3
sg6
F171.97823
sg7
S'92b5c171-7f6a-3446-9f51-4449653a51d7'
p1349
sg9
S'Distinction (Intro)'
p1350
sg11
F0.157475
sg12
F0.032369
sg13
F0.822595
sg14
F4.0
sg15
F-6.2
sg16
F0.703396
sg17
F0.334559809193
sa(dp1351
g2
F0.85191
sg3
F140.006
sg4
F0.109529
sg5
I0
sg6
F261.57823
sg7
S'a69f798a-ce69-3aba-be0e-867a6eda83c5'
p1352
sg9
S'Respect for My City'
p1353
sg11
F0.072402
sg12
F0.000185
sg13
F0.805651
sg14
F4.0
sg15
F-6.185
sg16
F0.389966
sg17
F0.334559809193
sa(dp1354
g2
F0.761056
sg3
F89.989
sg4
F0.036796
sg5
I3
sg6
F215.13252
sg7
S'fb9669e3-e0a2-39e0-90df-f9852399ec06'
p1355
sg9
S'Mindstate of a Murderer'
p1356
sg11
F0.154826
sg12
F0.001577
sg13
F0.780837
sg14
F4.0
sg15
F-5.485
sg16
F0.526575
sg17
F0.334559809193
sa(dp1357
g2
F0.895992
sg3
F120.023
sg4
F0.083357
sg5
I4
sg6
F202.38476
sg7
S'5de0da1b-6289-32f8-b7a9-0b267b868ba0'
p1358
sg9
S'2095'
p1359
sg11
F0.062096
sg12
F0.026029
sg13
F0.861372
sg14
F4.0
sg15
F-6.0
sg16
F0.844714
sg17
F0.334559809193
sa(dp1360
g2
F0.691697
sg3
F139.963
sg4
F0.279152
sg5
I0
sg6
F195.3317
sg7
S'1f04a27e-faf4-326b-9954-ded26579c678'
p1361
sg9
S"It's Just Us"
p1362
sg11
F0.069058
sg12
F0.001001
sg13
F0.80204
sg14
F4.0
sg15
F-6.416
sg16
F0.746087
sg17
F0.334559809193
sa(dp1363
g2
F0.880111
sg3
F93.034
sg4
F0.12226
sg5
I3
sg6
F144.70639
sg7
S'17b23c5a-56c4-3257-8639-6ea0ac1b9030'
p1364
sg9
S'Tha Capture'
p1365
sg11
F0.33097
sg12
F6.3e-05
sg13
F0.774046
sg14
F4.0
sg15
F-3.897
sg16
F0.384504
sg17
F0.334559809193
sa(dp1366
g2
F0.498794
sg3
F120.058
sg4
F0.084642
sg5
I4
sg6
F226.71628
sg7
S'ce2b5356-75cb-317b-b7b4-ba93dca82bf6'
p1367
sg9
S'Been Grey for a While (Short Static Mix)'
p1368
sg11
F0.109705
sg12
F0.255043
sg13
F0.525283
sg14
F4.0
sg15
F-14.77
sg16
F0.134436
sg17
F0.275994516708
sa(dp1369
g2
F0.92687
sg3
F120.011
sg4
F0.069701
sg5
I4
sg6
F384.05955
sg7
S'9e70bcfa-de74-31ea-af7a-f1f814a46464'
p1370
sg9
S'Been Grey for a While (This Side of the White Mix)'
p1371
sg11
F0.183982
sg12
F0.002914
sg13
F0.560592
sg14
F4.0
sg15
F-10.24
sg16
F0.200814
sg17
F0.275994516708
sa(dp1372
g2
F0.355618
sg3
F130.011
sg4
F0.049048
sg5
I4
sg6
F373.02812
sg7
S'dde5d8fa-fa9d-3295-95f6-aa559b968df8'
p1373
sg9
S'Gift for the Aliens (Musicbox On Mars Mix)'
p1374
sg11
F0.28922
sg12
F0.501348
sg13
F0.484562
sg14
F4.0
sg15
F-16.241
sg16
F0.047855
sg17
F0.275994516708
sa(dp1375
g2
F0.385495
sg3
F74.914
sg4
F0.034653
sg5
I3
sg6
F313.53156
sg7
S'323a0677-d54f-34c4-b6e4-a68f30dfff7e'
p1376
sg9
S'Sun Through Cloud Through Rain'
p1377
sg11
F0.057162
sg12
F0.364223
sg13
F0.315789
sg14
F5.0
sg15
F-13.866
sg16
F0.126843
sg17
F0.275994516708
sa(dp1378
g2
F0.42053
sg3
F119.412
sg4
F0.062771
sg5
I4
sg6
F308.79556
sg7
S'21b50bb5-2ad3-3fd9-a85a-564041e80eb2'
p1379
sg9
S'The View from My Cave'
p1380
sg11
F0.083979
sg12
F0.515845
sg13
F0.387715
sg14
F4.0
sg15
F-14.577
sg16
F0.08391
sg17
F0.275994516708
sa(dp1381
g2
F0.809897
sg3
F140.027
sg4
F0.034914
sg5
I0
sg6
F203.13156
sg7
S'f196516c-0c50-3b13-b58d-f74398663efb'
p1382
sg9
S"I'll Go to My Helix"
p1383
sg11
F0.245495
sg12
F0.885055
sg13
F0.635373
sg14
F4.0
sg15
F-10.394
sg16
F0.500484
sg17
F0.275994516708
sa(dp1384
g2
F0.393992
sg3
F159.988
sg4
F0.044187
sg5
I2
sg6
F198.07556
sg7
S'd81d60d0-def6-3cc6-bf44-1ea80a34043b'
p1385
sg9
S'Warm Mushy Minds'
p1386
sg11
F0.201845
sg12
F0.019942
sg13
F0.491327
sg14
F4.0
sg15
F-19.668
sg16
F0.178276
sg17
F0.275994516708
sa(dp1387
g2
F0.337295
sg3
F139.954
sg4
F0.153615
sg5
I0
sg6
F360.76354
sg7
S'ef9b3488-9b51-34c3-a481-48614ce3ad7c'
p1388
sg9
S'As I Open the Door'
p1389
sg11
F0.155824
sg12
F0.042726
sg13
F0.40641
sg14
F4.0
sg15
F-15.458
sg16
F0.054957
sg17
F0.275994516708
sa(dp1390
g2
F0.803217
sg3
F126.114
sg4
F0.05286
sg5
I4
sg6
F224.09288
sg7
S'ae0d13c2-3967-3319-9888-129386df69a5'
p1391
sg9
S'Five'
p1392
sg11
F0.045368
sg12
F0.239295
sg13
F0.808899
sg14
F4.0
sg15
F-11.22
sg16
F0.583269
sg17
F0.450211472637
sa(dp1393
g2
F0.625709
sg3
F137.067
sg4
F0.029579
sg5
I0
sg6
F222.45941
sg7
S'8f0fe8bf-ce91-3826-9a37-bf8a6fc4197c'
p1394
sg9
S'One More Song'
p1395
sg11
F0.092621
sg12
F0.267624
sg13
F0.632815
sg14
F4.0
sg15
F-4.952
sg16
F0.519031
sg17
F0.443568291148
sa(dp1396
g2
F0.92692
sg3
F169.93
sg4
F0.091328
sg5
I2
sg6
F243.15955
sg7
S'b46cdd3c-a95b-3e71-9692-7f245e8467ee'
p1397
sg9
S'Back To Life'
p1398
sg11
F0.485285
sg12
F0.005407
sg13
F0.378072
sg14
F4.0
sg15
F-4.791
sg16
F0.541407
sg17
F0.443568291148
sa(dp1399
g2
F0.873222
sg3
F181.08
sg4
F0.050934
sg5
I2
sg6
F210.97288
sg7
S'39d7b02e-bf5b-305c-aec2-524164b0095d'
p1400
sg9
S'Reflection'
p1401
sg11
F0.14014
sg12
F0.027784
sg13
F0.541584
sg14
F4.0
sg15
F-5.065
sg16
F0.907587
sg17
F0.443568291148
sa(dp1402
g2
F0.606589
sg3
F87.199
sg4
F0.045643
sg5
I3
sg6
F269.03909
sg7
S'bdc606e6-2d8e-325e-b0ba-b4b06d83e848'
p1403
sg9
S'Slow the Time'
p1404
sg11
F0.200363
sg12
F0.001195
sg13
F0.458679
sg14
F4.0
sg15
F-6.949
sg16
F0.428253
sg17
F0.498289900117
sa(dp1405
g2
F0.872174
sg3
F133.418
sg4
F0.099492
sg5
I4
sg6
F277.81179
sg7
S'09179a3a-7b98-3090-8802-b6235b95a5fc'
p1406
sg9
S'Settle Down'
p1407
sg11
F0.09374
sg12
F0.004322
sg13
F0.307852
sg14
F4.0
sg15
F-5.954
sg16
F0.486609
sg17
F0.447664281579
sa(dp1408
g2
F0.911985
sg3
F77.555
sg4
F0.071185
sg5
I3
sg6
F233.45297
sg7
S'b8b8dab6-4a31-33ff-bd19-d6129e5bae7b'
p1409
sg9
S'The Best'
p1410
sg11
F0.162376
sg12
F0.000183
sg13
F0.269094
sg14
F4.0
sg15
F-5.364
sg16
F0.047969
sg17
F0.518732266431
sa(dp1411
g2
F0.690845
sg3
F123.007
sg4
F0.162502
sg5
I4
sg6
F247.06667
sg7
S'f9f97e09-6b7b-36a6-8e39-aab7189e0e5a'
p1412
sg9
S'Hard Times'
p1413
sg11
F0.685193
sg12
F0.445683
sg13
F0.749506
sg14
F4.0
sg15
F-6.734
sg16
F0.833464
sg17
F0.473311153183
sa(dp1414
g2
F0.642298
sg3
F96.867
sg4
F0.053085
sg5
I1
sg6
F378.79955
sg7
S'3676f106-8469-3853-a196-f33c2d5c6b86'
p1415
sg9
S'Lost My House'
p1416
sg11
F0.092793
sg12
F0.109807
sg13
F0.569067
sg14
F4.0
sg15
F-6.604
sg16
F0.606316
sg17
F0.473311153183
sa(dp1417
g2
F0.81525
sg3
F188.512
sg4
F0.07152
sg5
I2
sg6
F163.09288
sg7
S'4306f4b2-ab8c-3857-bb81-f622f8293a3d'
p1418
sg9
S'Beach Holiday'
p1419
sg11
F0.077742
sg12
F5e-05
sg13
F0.181116
sg14
F4.0
sg15
F-5.282
sg16
F0.566068
sg17
F0.487558872394
sa(dp1420
g2
F0.56178
sg3
F155.406
sg4
F0.035035
sg5
I0
sg6
F238.26621
sg7
S'7dc02f41-22d2-3ae2-b13c-1c9c214cfa1c'
p1421
sg9
S'High Definition'
p1422
sg11
F0.118549
sg12
F0.002833
sg13
F0.207419
sg14
F4.0
sg15
F-7.553
sg16
F0.125722
sg17
F0.487558872394
sa(dp1423
g2
F0.598046
sg3
F115.003
sg4
F0.028543
sg5
I1
sg6
F268.11315
sg7
S'61c1ff39-f635-32da-ae6a-f45dd77f182c'
p1424
sg9
S'Tomorrow Morning'
p1425
sg11
F0.071978
sg12
F0.002608
sg13
F0.618935
sg14
F4.0
sg15
F-5.863
sg16
F0.2862
sg17
F0.247097634462
sa(dp1426
g2
F0.2653
sg3
F77.987
sg4
F0.031234
sg5
I3
sg6
F248.21751
sg7
S'e0064cff-1873-3ab7-b27b-197b6ccc72ff'
p1427
sg9
S'Song I Will Always Sing'
p1428
sg11
F0.113055
sg12
F0.914477
sg13
F0.554319
sg14
F4.0
sg15
F-11.218
sg16
F0.183729
sg17
F0.247097634462
sa(dp1429
g2
F0.964726
sg3
F172.02
sg4
F0.082709
sg5
I2
sg6
F191.39156
sg7
S'f6a800b1-2217-38b4-bdc3-3d6381d7a22f'
p1430
sg9
S'Show Me'
p1431
sg11
F0.086177
sg12
F0.025554
sg13
F0.483706
sg14
F4.0
sg15
F-4.271
sg16
F0.906115
sg17
F0.247097634462
sa(dp1432
g2
F0.824322
sg3
F113.346
sg4
F0.057375
sg5
I1
sg6
F375.3171
sg7
S'3eb8372c-834b-3375-9b86-570625a16b70'
p1433
sg9
S'Character in Disguise'
p1434
sg11
F0.119086
sg12
F0.017828
sg13
F0.358646
sg14
F4.0
sg15
F-6.094
sg16
F0.176947
sg17
F0.247097634462
sa(dp1435
g2
F0.939545
sg3
F172.853
sg4
F0.117006
sg5
I2
sg6
F253.2049
sg7
S'd63cfedb-2b24-323b-aa99-dc18c80106b5'
p1436
sg9
S'Ordinary'
p1437
sg11
F0.119209
sg12
F0.032334
sg13
F0.373836
sg14
F4.0
sg15
F-4.537
sg16
F0.590652
sg17
F0.247097634462
sa(dp1438
g2
F0.914771
sg3
F179.805
sg4
F0.081142
sg5
I2
sg6
F128.06621
sg7
S'b4dfc5a3-913f-3d2f-ad8f-2b8ef779db85'
p1439
sg9
S'Swearing Is Fun'
p1440
sg11
F0.10012
sg12
F0.017797
sg13
F0.391592
sg14
F4.0
sg15
F-6.691
sg16
F0.634968
sg17
F0.247048815693
sa(dp1441
g2
F0.976575
sg3
F169.96
sg4
F0.098232
sg5
I2
sg6
F163.82621
sg7
S'dec1c1cd-9499-312f-b222-e14d738b41d2'
p1442
sg9
S'Toyland'
p1443
sg11
F0.323808
sg12
F0.067128
sg13
F0.375657
sg14
F4.0
sg15
F-5.516
sg16
F0.482995
sg17
F0.247048815693
sa(dp1444
g2
F0.916785
sg3
F160.028
sg4
F0.053016
sg5
I2
sg6
F158.70621
sg7
S'693da8e6-e332-300f-af2a-43afc46c5af7'
p1445
sg9
S'My Busy Hands'
p1446
sg11
F0.36359
sg12
F0.047739
sg13
F0.437884
sg14
F4.0
sg15
F-5.675
sg16
F0.776967
sg17
F0.247048815693
sa(dp1447
g2
F0.919713
sg3
F90.025
sg4
F0.040904
sg5
I3
sg6
F117.57288
sg7
S'054e4957-b1cf-357d-b839-8bb7ea5357d0'
p1448
sg9
S'Drinking In A Homobar'
p1449
sg11
F0.831614
sg12
F0.020426
sg13
F0.399592
sg14
F4.0
sg15
F-5.466
sg16
F0.527805
sg17
F0.247048815693
sa(dp1450
g2
F0.685796
sg3
F120.023
sg4
F0.036717
sg5
I4
sg6
F388.46621
sg7
S'b7ed4761-279f-3959-a756-7ff5226418c0'
p1451
sg9
S'Lesbo Vampires'
p1452
sg11
F0.184539
sg12
F0.46213
sg13
F0.619372
sg14
F4.0
sg15
F-7.325
sg16
F0.152186
sg17
F0.247048815693
sa(dp1453
g2
F0.91178
sg3
F169.934
sg4
F0.11836
sg5
I2
sg6
F205.67955
sg7
S'958efff3-aa31-3e71-8a39-28cd587f6524'
p1454
sg9
S'Religion Is Shit'
p1455
sg11
F0.08058
sg12
F0.01847
sg13
F0.428992
sg14
F4.0
sg15
F-6.126
sg16
F0.545311
sg17
F0.247048815693
sa(dp1456
g2
F0.927771
sg3
F89.989
sg4
F0.048923
sg5
I3
sg6
F215.26621
sg7
S'0663e548-70c7-3c59-a2ef-79ff82c3cf02'
p1457
sg9
S'Music And Moodscapes'
p1458
sg11
F0.079099
sg12
F0.077484
sg13
F0.527798
sg14
F4.0
sg15
F-5.148
sg16
F0.774374
sg17
F0.247048815693
sa(dp1459
g2
F0.602416
sg3
F110.079
sg4
F0.13652
sg5
I1
sg6
F233.17918
sg7
S'df9fa279-4b7d-33c3-b361-cd054c22698a'
p1460
sg9
S'Believe'
p1461
sg11
F0.264733
sg12
F0.06932
sg13
F0.687007
sg14
F4.0
sg15
F-6.353
sg16
F0.268956
sg17
F0.275994516708
sa(dp1462
g2
F0.800793
sg3
F120.006
sg4
F0.048956
sg5
I4
sg6
F187.99955
sg7
S'96dd33d8-3504-36d6-87bb-7b4ab645c0e9'
p1463
sg9
S'Donut'
p1464
sg11
F0.065683
sg12
F0.005965
sg13
F0.65533
sg14
F4.0
sg15
F-8.332
sg16
F0.320552
sg17
F0.386389068806
sa(dp1465
g2
F0.646472
sg3
F160.005
sg4
F0.040572
sg5
I2
sg6
F268.99955
sg7
S'c815f37f-f541-34de-a6d1-74cdfbe60ad4'
p1466
sg9
S'Gingerbread'
p1467
sg11
F0.114862
sg12
F0.012922
sg13
F0.521786
sg14
F4.0
sg15
F-8.862
sg16
F0.114064
sg17
F0.386389068806
sa(dp1468
g2
F0.444343
sg3
F139.99
sg4
F0.05773
sg5
I0
sg6
F253.99955
sg7
S'29358bc9-db43-380e-a606-a95f2ffb68d1'
p1469
sg9
S'Queue'
p1470
sg11
F0.052999
sg12
F0.007049
sg13
F0.720337
sg14
F4.0
sg15
F-15.334
sg16
F0.380232
sg17
F0.386389068806
sa(dp1471
g2
F0.362561
sg3
F130.01
sg4
F0.054822
sg5
I4
sg6
F275.23029
sg7
S'16b35adf-e507-3c00-817f-715436a8a545'
p1472
sg9
S'Cupcake'
p1473
sg11
F0.101975
sg12
F0.806342
sg13
F0.796049
sg14
F4.0
sg15
F-11.97
sg16
F0.115483
sg17
F0.386389068806
sa(dp1474
g2
F0.500344
sg3
F140.03
sg4
F0.131029
sg5
I0
sg6
F163.14231
sg7
S'4175a2d6-0c7a-307d-b295-63aca3dbc39a'
p1475
sg9
S'Stack'
p1476
sg11
F0.370365
sg12
F0.072819
sg13
F0.762336
sg14
F4.0
sg15
F-10.734
sg16
F0.332579
sg17
F0.386389068806
sa(dp1477
g2
F0.562391
sg3
F144.971
sg4
F0.078672
sg5
I0
sg6
F228.7581
sg7
S'2f420b84-35b0-3139-ae9c-197d55c0689a'
p1478
sg9
S'Vector'
p1479
sg11
F0.057878
sg12
F0.028009
sg13
F0.747926
sg14
F4.0
sg15
F-14.278
sg16
F0.571001
sg17
F0.386389068806
sa(dp1480
g2
F0.696878
sg3
F180.0
sg4
F0.02833
sg5
I2
sg6
F199.33288
sg7
S'6d66c4b7-a4f7-3053-9881-76e61c3b2d19'
p1481
sg9
S'Honeycomb'
p1482
sg11
F0.168191
sg12
F0.221253
sg13
F0.508053
sg14
F4.0
sg15
F-7.383
sg16
F0.230043
sg17
F0.386389068806
sa(dp1483
g2
F0.47591
sg3
F135.0
sg4
F0.049734
sg5
I0
sg6
F190.44399
sg7
S'b453fe99-1a99-338d-9797-0d29b35c7011'
p1484
sg9
S'Tree'
p1485
sg11
F0.117991
sg12
F0.820178
sg13
F0.682168
sg14
F4.0
sg15
F-14.316
sg16
F0.075558
sg17
F0.386389068806
sa(dp1486
g2
F0.587844
sg3
F120.346
sg4
F0.148485
sg5
I4
sg6
F240.07955
sg7
S'baeb6c12-bcb5-37f6-a4f4-c44752877eb1'
p1487
sg9
S'Jelly Bean'
p1488
sg11
F0.186867
sg12
F0.000298
sg13
F0.445084
sg14
F4.0
sg15
F-11.722
sg16
F0.198204
sg17
F0.386389068806
sa(dp1489
g2
F0.620872
sg3
F122.951
sg4
F0.057486
sg5
I4
sg6
F206.87755
sg7
S'e20cb175-ae5a-3c11-9014-0ac5edeb825f'
p1490
sg9
S'Ice Cream Sandwich'
p1491
sg11
F0.09088
sg12
F0.044317
sg13
F0.746732
sg14
F4.0
sg15
F-13.161
sg16
F0.170725
sg17
F0.386389068806
sa(dp1492
g2
F0.49325
sg3
F119.997
sg4
F0.044385
sg5
I4
sg6
F197.99955
sg7
S'7469c7cf-f266-39e9-813c-7a14b1c3cb6b'
p1493
sg9
S'Eclair'
p1494
sg11
F0.088407
sg12
F0.006906
sg13
F0.710409
sg14
F4.0
sg15
F-12.145
sg16
F0.366366
sg17
F0.386389068806
sa(dp1495
g2
F0.85678
sg3
F159.996
sg4
F0.045823
sg5
I2
sg6
F222.4995
sg7
S'aefbb9b9-de5c-30a4-bf38-7614faeb6335'
p1496
sg9
S'Key Lime Pie'
p1497
sg11
F0.136806
sg12
F2.2e-05
sg13
F0.642662
sg14
F4.0
sg15
F-9.807
sg16
F0.928311
sg17
F0.386389068806
sa(dp1498
g2
F0.505923
sg3
F99.965
sg4
F0.192966
sg5
I1
sg6
F198.79955
sg7
S'c554c719-cad3-32c3-8ac4-7418e5d9ffe6'
p1499
sg9
S'Froyo'
p1500
sg11
F0.148209
sg12
F0.274326
sg13
F0.857874
sg14
F4.0
sg15
F-15.677
sg16
F0.403792
sg17
F0.386389068806
sa(dp1501
g2
F0.028413
sg3
F73.345
sg4
F0.040851
sg5
I3
sg6
F67.14621
sg7
S'd6098e75-519c-3d84-8d3c-d080297175d4'
p1502
sg9
g313
sg11
F0.14579
sg12
F0.981716
sg13
F0.084938
sg14
F3.0
sg15
F-28.263
sg16
F0.019146
sg17
F0.273430095496
sa(dp1503
g2
F0.199005
sg3
F170.025
sg4
F0.068377
sg5
I2
sg6
F75.85288
sg7
S'59cb635c-a4b4-3b10-b009-b2f38661f6b4'
p1504
sg9
S'"I. Want. You." from Inversion'
p1505
sg11
F0.157664
sg12
F0.055656
sg13
F0.542348
sg14
F5.0
sg15
F-27.096
sg16
F0.053265
sg17
F0.273430095496
sa(dp1506
g2
F0.1099
sg3
F137.323
sg4
F0.034681
sg5
I0
sg6
F71.27955
sg7
S'b1658821-852d-360e-be2b-24b56ae827e1'
p1507
sg9
S'"Tuesday" from Holding On'
p1508
sg11
F0.127881
sg12
F0.76527
sg13
F0.291528
sg14
F5.0
sg15
F-19.455
sg16
F0.038062
sg17
F0.273430095496
sa(dp1509
g2
F0.472177
sg3
F91.493
sg4
F0.042062
sg5
I3
sg6
F161.27955
sg7
S'10783fc3-ef3b-33ef-8e73-370ab6cea971'
p1510
sg9
S'Utopia Main Theme'
p1511
sg11
F0.073029
sg12
F0.07993
sg13
F0.611607
sg14
F4.0
sg15
F-15.101
sg16
F0.310213
sg17
F0.273430095496
sa(dp1512
g2
F0.019779
sg3
F122.711
sg4
F0.042941
sg5
I4
sg6
F128.94621
sg7
S'fa684f03-4777-385f-8326-9fb80331630c'
p1513
sg9
S'"Opening" from Lightly Baked'
p1514
sg11
F0.089746
sg12
F0.248628
sg13
F0.201306
sg14
F4.0
sg15
F-30.64
sg16
F0.029683
sg17
F0.273430095496
sa(dp1515
g2
F0.432563
sg3
F168.053
sg4
F0.039019
sg5
I2
sg6
F77.34621
sg7
S'c3ba1e16-6879-349f-8229-5149fc13ea0a'
p1516
sg9
S'"Last Saturday Night" from Holding On'
p1517
sg11
F0.132626
sg12
F0.184398
sg13
F0.493656
sg14
F4.0
sg15
F-22.008
sg16
F0.496654
sg17
F0.273430095496
sa(dp1518
g2
F0.100066
sg3
F83.679
sg4
F0.030529
sg5
I3
sg6
F121.41288
sg7
S'1bb35d5d-b126-3e09-9cc5-cb033381140b'
p1519
sg9
S'Utopia End Credits'
p1520
sg11
F0.114922
sg12
F0.563338
sg13
F0.195832
sg14
F4.0
sg15
F-23.41
sg16
F0.074222
sg17
F0.273430095496
sa(dp1521
g2
F0.073962
sg3
F110.999
sg4
F0.058726
sg5
I1
sg6
F91.31955
sg7
S'4f1507e2-b753-3315-8ed7-4f6accc30ace'
p1522
sg9
g310
sg11
F0.070995
sg12
F0.984689
sg13
F0.468001
sg14
F3.0
sg15
F-23.537
sg16
F0.243531
sg17
F0.273430095496
sa(dp1523
g2
F0.258478
sg3
F106.958
sg4
F0.039806
sg5
I1
sg6
F355.05288
sg7
S'74f65a6a-4c96-3132-a87b-ad14717fe078'
p1524
sg9
S'Low On Rye'
p1525
sg11
F0.063066
sg12
F0.008687
sg13
F0.55073
sg14
F4.0
sg15
F-25.016
sg16
F0.071581
sg17
F0.273430095496
sa(dp1526
g2
F0.11307
sg3
F141.414
sg4
F0.042711
sg5
I0
sg6
F102.33288
sg7
S'a57b5dcf-6559-39ae-a8fc-f6c7d0d76144'
p1527
sg9
S'Unused End Credits'
p1528
sg11
F0.096371
sg12
F0.906275
sg13
F0.189625
sg14
F3.0
sg15
F-21.281
sg16
F0.108585
sg17
F0.273430095496
sa(dp1529
g2
F0.043597
sg3
F119.672
sg4
F0.058622
sg5
I4
sg6
F62.39955
sg7
S'9ce0876a-e64b-3bd1-8152-062aada9bb44'
p1530
sg9
S'"End Credits" from Inversion'
p1531
sg11
F0.107243
sg12
F0.50348
sg13
F0.210261
sg14
F4.0
sg15
F-25.695
sg16
F0.035887
sg17
F0.273430095496
sa(dp1532
g2
F0.039854
sg3
F62.519
sg4
F0.043539
sg5
I3
sg6
F42.10621
sg7
S'c7a24ea1-4238-33a7-828e-6828a2a322f2'
p1533
sg9
g307
sg11
F0.083872
sg12
F0.912285
sg13
F0.203489
sg14
F4.0
sg15
F-25.057
sg16
F0.098357
sg17
F0.273430095496
sa(dp1534
g2
F0.364186
sg3
F179.779
sg4
F0.063368
sg5
I2
sg6
F80.55955
sg7
S'05524e6a-3709-3283-9988-f654a5194602'
p1535
sg9
S'A Short Portrait of Obsession'
p1536
sg11
F0.114764
sg12
F0.011292
sg13
F0.557866
sg14
F4.0
sg15
F-19.864
sg16
F0.077712
sg17
F0.273430095496
sa(dp1537
g2
F0.10048
sg3
F59.638
sg4
F0.038896
sg5
I3
sg6
F107.17288
sg7
S'4f3319ad-15a9-34eb-ae99-44331daea367'
p1538
sg9
S'"Celebrity Mass" from Luxury Item'
p1539
sg11
F0.11723
sg12
F0.595684
sg13
F0.372236
sg14
F4.0
sg15
F-18.343
sg16
F0.036643
sg17
F0.273430095496
sa(dp1540
g2
F0.155116
sg3
F85.765
sg4
F0.036016
sg5
I3
sg6
F113.67955
sg7
S'71b39b08-397a-3eed-b804-059ee07a763c'
p1541
sg9
S'"Bush Theme" from Utopia'
p1542
sg11
F0.158559
sg12
F0.305868
sg13
F0.190487
sg14
F4.0
sg15
F-18.905
sg16
F0.038559
sg17
F0.273430095496
sa(dp1543
g2
F0.407223
sg3
F113.017
sg4
F0.072577
sg5
I1
sg6
F74.77288
sg7
S'4247bfb9-8db5-3156-914b-077243f4777a'
p1544
sg9
g304
sg11
F0.198817
sg12
F0.00152
sg13
F0.714951
sg14
F4.0
sg15
F-16.247
sg16
F0.276962
sg17
F0.273430095496
sa(dp1545
g2
F0.646203
sg3
F115.091
sg4
F0.047807
sg5
I1
sg6
F192.98063
sg7
S'179911d9-3f87-30b4-a6e9-0722e9d91f09'
p1546
sg9
S'Act 0 - The Premonition (Main Menu)'
p1547
sg11
F0.313635
sg12
F0.087419
sg13
F0.240308
sg14
F3.0
sg15
F-9.894
sg16
F0.156782
sg17
F0.462929240542
sa(dp1548
g2
F0.14848
sg3
F116.487
sg4
F0.068299
sg5
I1
sg6
F68.25469
sg7
S'24909fdc-1455-3a41-a2c9-fd2b1a01b082'
p1549
sg9
S'Act 0 - Initialize'
p1550
sg11
F0.072521
sg12
F0.422881
sg13
F0.325044
sg14
F3.0
sg15
F-22.289
sg16
F0.069321
sg17
F0.462929240542
sa(dp1551
g2
F0.697972
sg3
F81.992
sg4
F0.035628
sg5
I3
sg6
F358.19057
sg7
S'1dd990ce-a4c1-37e3-a414-6ac874186cf7'
p1552
sg9
S'Act 1 - Narcotic'
p1553
sg11
F0.134635
sg12
F0.787047
sg13
F0.643535
sg14
F4.0
sg15
F-13.322
sg16
F0.361979
sg17
F0.462929240542
sa(dp1554
g2
F0.06401
sg3
F119.644
sg4
F0.050671
sg5
I4
sg6
F128.99859
sg7
S'7fe428e5-d310-3588-bd19-d19bdfdd55ad'
p1555
sg9
S'Act 1 - A Pale Horse'
p1556
sg11
F0.10044
sg12
F0.821316
sg13
F0.326761
sg14
F4.0
sg15
F-22.984
sg16
F0.024199
sg17
F0.462929240542
sa(dp1557
g2
F0.204548
sg3
F120.099
sg4
F0.057668
sg5
I4
sg6
F96.76717
sg7
S'6b8cb65e-78e5-3f62-a663-4d055ed5c2c7'
p1558
sg9
S'Act 1 - Dilatation'
p1559
sg11
F0.099077
sg12
F0.567085
sg13
F0.487259
sg14
F4.0
sg15
F-24.48
sg16
F0.06047
sg17
F0.462929240542
sa(dp1560
g2
F0.011978
sg3
F97.939
sg4
F0.033392
sg5
I1
sg6
F128.8839
sg7
S'c001049f-0b64-34b1-b360-37875896914e'
p1561
sg9
S'Act 1 - Formless'
p1562
sg11
F0.116637
sg12
F0.746378
sg13
F0.18138
sg14
F3.0
sg15
F-18.708
sg16
F0.031294
sg17
F0.462929240542
sa(dp1563
g2
F0.986497
sg3
F91.972
sg4
F0.061088
sg5
I3
sg6
F169.45696
sg7
S'b4841084-bd0b-340d-a4dd-8632e706ddfe'
p1564
sg9
S'Act 1 - Coil'
p1565
sg11
F0.151657
sg12
F0.511136
sg13
F0.578462
sg14
F4.0
sg15
F-8.376
sg16
F0.034364
sg17
F0.462929240542
sa(dp1566
g2
F0.018695
sg3
F179.415
sg4
F0.053815
sg5
I2
sg6
F97.99955
sg7
S'cb3f4307-c45b-3227-88e1-c1bce77feb61'
p1567
sg9
S'Act 1 - Synaptic Distortion'
p1568
sg11
F0.11242
sg12
F0.921518
sg13
F0.122614
sg14
F1.0
sg15
F-24.617
sg16
F0.157654
sg17
F0.462929240542
sa(dp1569
g2
F0.413749
sg3
F113.927
sg4
F0.045526
sg5
I1
sg6
F254.68635
sg7
S'aa055e01-9760-3b7a-a6ab-213e85e42e98'
p1570
sg9
S'Act 1 - Blindspots'
p1571
sg11
F0.11159
sg12
F0.627668
sg13
F0.231185
sg14
F4.0
sg15
F-19.449
sg16
F0.055696
sg17
F0.462929240542
sa(dp1572
g2
F0.23169
sg3
F125.54
sg4
F0.049151
sg5
I4
sg6
F192.63855
sg7
S'b89de755-1283-316c-80a9-c0ddd855504c'
p1573
sg9
S'Act 1 - Interference'
p1574
sg11
F0.111478
sg12
F0.013066
sg13
F0.234742
sg14
F4.0
sg15
F-21.163
sg16
F0.039386
sg17
F0.462929240542
sa(dp1575
g2
F0.015477
sg3
F67.116
sg4
F0.038672
sg5
I3
sg6
F66.49955
sg7
S'b63bca20-3eba-3f35-abb9-33e3a739597f'
p1576
sg9
S'Act 1 - Recursive Fault'
p1577
sg11
F0.108178
sg12
F0.796694
sg13
F0.260961
sg14
F5.0
sg15
F-31.273
sg16
F0.142286
sg17
F0.462929240542
sa(dp1578
g2
F0.935409
sg3
F180.394
sg4
F0.246168
sg5
I2
sg6
F565.66966
sg7
S'df07c6ea-e6e2-3109-b1e6-2082646e94f5'
p1579
sg9
S'Survival Of The Fittest'
p1580
sg11
F0.190038
sg12
F0.001484
sg13
F0.238115
sg14
F5.0
sg15
F-9.07
sg16
F0.370309
sg17
F0.252932913188
sa(dp1581
g2
F0.7389
sg3
F130.08
sg4
F0.282979
sg5
I4
sg6
F265.78395
sg7
S'19917937-8961-3eb0-b41d-025d18b48011'
p1582
sg9
S'Beat Hack'
p1583
sg11
F0.286727
sg12
F0.188703
sg13
F0.821577
sg14
F4.0
sg15
F-8.239
sg16
F0.728783
sg17
F0.252932913188
sa(dp1584
g2
F0.494281
sg3
F94.169
sg4
F0.170755
sg5
I3
sg6
F219.46884
sg7
S'5e7606a9-c315-3a2c-bef3-6a61daf56c88'
p1585
sg9
S'The Stash'
p1586
sg11
F0.099721
sg12
F0.013506
sg13
F0.59265
sg14
F5.0
sg15
F-9.418
sg16
F0.443357
sg17
F0.252932913188
sa(dp1587
g2
F0.72793
sg3
F139.96
sg4
F0.095229
sg5
I0
sg6
F275.37088
sg7
S'34397001-6af4-3aee-a65a-24810ed135e0'
p1588
sg9
S'Party Crash'
p1589
sg11
F0.131369
sg12
F0.005534
sg13
F0.761185
sg14
F4.0
sg15
F-9.593
sg16
F0.736806
sg17
F0.252932913188
sa(dp1590
g2
F0.874226
sg3
F139.232
sg4
F0.116169
sg5
I0
sg6
F255.46558
sg7
S'3aca7094-0e90-3cc0-9f3f-c8c98af78613'
p1591
sg9
S'Dark Thoughts'
p1592
sg11
F0.076952
sg12
F0.051981
sg13
F0.499547
sg14
F4.0
sg15
F-6.747
sg16
F0.664316
sg17
F0.252932913188
sa(dp1593
g2
F0.733137
sg3
F140.0
sg4
F0.177883
sg5
I0
sg6
F281.0917
sg7
S'e97b7585-5ace-33cf-a80a-1b158c55c9d0'
p1594
sg9
S'Gangsta Snaps'
p1595
sg11
F0.165514
sg12
F0.074045
sg13
F0.834044
sg14
F4.0
sg15
F-8.872
sg16
F0.819311
sg17
F0.252932913188
sa(dp1596
g2
F0.590338
sg3
F139.914
sg4
F0.053822
sg5
I0
sg6
F301.75456
sg7
S'2d656c70-67d8-3abf-a4aa-d6bd663a5ac1'
p1597
sg9
S'CrossBreed'
p1598
sg11
F0.10082
sg12
F0.000147
sg13
F0.64293
sg14
F4.0
sg15
F-9.164
sg16
F0.499096
sg17
F0.252932913188
sa(dp1599
g2
F0.666216
sg3
F135.914
sg4
F0.393745
sg5
I0
sg6
F205.75456
sg7
S'fb131881-858e-3aff-8937-10d77251ae1a'
p1600
sg9
S'Game Change'
p1601
sg11
F0.053725
sg12
F0.08806
sg13
F0.346995
sg14
F4.0
sg15
F-6.421
sg16
F0.323407
sg17
F0.252932913188
sa(dp1602
g2
F0.725702
sg3
F201.218
sg4
F0.108571
sg5
I2
sg6
F29.8985
sg7
S'877dec6d-3518-36d7-890e-bf2b3d51ad39'
p1603
sg9
S"Do You Like Arby's?"
p1604
sg11
F0.111472
sg12
F0.106537
sg13
F0.584664
sg14
F4.0
sg15
F-5.249
sg16
F0.969398
sg17
F0.533761445244
sa.